ARM GAS  C:\Users\koseki\AppData\Local\Temp\ccemUq3h.s 			page 1


   1              		.syntax unified
   2              		.cpu cortex-m3
   3              		.fpu softvfp
   4              		.eabi_attribute 20, 1
   5              		.eabi_attribute 21, 1
   6              		.eabi_attribute 23, 3
   7              		.eabi_attribute 24, 1
   8              		.eabi_attribute 25, 1
   9              		.eabi_attribute 26, 1
  10              		.eabi_attribute 30, 1
  11              		.eabi_attribute 34, 1
  12              		.eabi_attribute 18, 4
  13              		.thumb
  14              		.syntax unified
  15              		.file	"heap_2.c"
  16              		.text
  17              	.Ltext0:
  18              		.cfi_sections	.debug_frame
  19              		.section	.text.prvHeapInit,"ax",%progbits
  20              		.align	2
  21              		.thumb
  22              		.thumb_func
  23              		.type	prvHeapInit, %function
  24              	prvHeapInit:
  25              	.LFB68:
  26              		.file 1 "..\\FreeRTOS\\heap_2.c"
   1:..\FreeRTOS/heap_2.c **** /*
   2:..\FreeRTOS/heap_2.c ****     FreeRTOS V8.2.3 - Copyright (C) 2015 Real Time Engineers Ltd.
   3:..\FreeRTOS/heap_2.c ****     All rights reserved
   4:..\FreeRTOS/heap_2.c **** 
   5:..\FreeRTOS/heap_2.c ****     VISIT http://www.FreeRTOS.org TO ENSURE YOU ARE USING THE LATEST VERSION.
   6:..\FreeRTOS/heap_2.c **** 
   7:..\FreeRTOS/heap_2.c ****     This file is part of the FreeRTOS distribution.
   8:..\FreeRTOS/heap_2.c **** 
   9:..\FreeRTOS/heap_2.c ****     FreeRTOS is free software; you can redistribute it and/or modify it under
  10:..\FreeRTOS/heap_2.c ****     the terms of the GNU General Public License (version 2) as published by the
  11:..\FreeRTOS/heap_2.c ****     Free Software Foundation >>>> AND MODIFIED BY <<<< the FreeRTOS exception.
  12:..\FreeRTOS/heap_2.c **** 
  13:..\FreeRTOS/heap_2.c ****     ***************************************************************************
  14:..\FreeRTOS/heap_2.c ****     >>!   NOTE: The modification to the GPL is included to allow you to     !<<
  15:..\FreeRTOS/heap_2.c ****     >>!   distribute a combined work that includes FreeRTOS without being   !<<
  16:..\FreeRTOS/heap_2.c ****     >>!   obliged to provide the source code for proprietary components     !<<
  17:..\FreeRTOS/heap_2.c ****     >>!   outside of the FreeRTOS kernel.                                   !<<
  18:..\FreeRTOS/heap_2.c ****     ***************************************************************************
  19:..\FreeRTOS/heap_2.c **** 
  20:..\FreeRTOS/heap_2.c ****     FreeRTOS is distributed in the hope that it will be useful, but WITHOUT ANY
  21:..\FreeRTOS/heap_2.c ****     WARRANTY; without even the implied warranty of MERCHANTABILITY or FITNESS
  22:..\FreeRTOS/heap_2.c ****     FOR A PARTICULAR PURPOSE.  Full license text is available on the following
  23:..\FreeRTOS/heap_2.c ****     link: http://www.freertos.org/a00114.html
  24:..\FreeRTOS/heap_2.c **** 
  25:..\FreeRTOS/heap_2.c ****     ***************************************************************************
  26:..\FreeRTOS/heap_2.c ****      *                                                                       *
  27:..\FreeRTOS/heap_2.c ****      *    FreeRTOS provides completely free yet professionally developed,    *
  28:..\FreeRTOS/heap_2.c ****      *    robust, strictly quality controlled, supported, and cross          *
  29:..\FreeRTOS/heap_2.c ****      *    platform software that is more than just the market leader, it     *
  30:..\FreeRTOS/heap_2.c ****      *    is the industry's de facto standard.                               *
  31:..\FreeRTOS/heap_2.c ****      *                                                                       *
ARM GAS  C:\Users\koseki\AppData\Local\Temp\ccemUq3h.s 			page 2


  32:..\FreeRTOS/heap_2.c ****      *    Help yourself get started quickly while simultaneously helping     *
  33:..\FreeRTOS/heap_2.c ****      *    to support the FreeRTOS project by purchasing a FreeRTOS           *
  34:..\FreeRTOS/heap_2.c ****      *    tutorial book, reference manual, or both:                          *
  35:..\FreeRTOS/heap_2.c ****      *    http://www.FreeRTOS.org/Documentation                              *
  36:..\FreeRTOS/heap_2.c ****      *                                                                       *
  37:..\FreeRTOS/heap_2.c ****     ***************************************************************************
  38:..\FreeRTOS/heap_2.c **** 
  39:..\FreeRTOS/heap_2.c ****     http://www.FreeRTOS.org/FAQHelp.html - Having a problem?  Start by reading
  40:..\FreeRTOS/heap_2.c ****     the FAQ page "My application does not run, what could be wrong?".  Have you
  41:..\FreeRTOS/heap_2.c ****     defined configASSERT()?
  42:..\FreeRTOS/heap_2.c **** 
  43:..\FreeRTOS/heap_2.c ****     http://www.FreeRTOS.org/support - In return for receiving this top quality
  44:..\FreeRTOS/heap_2.c ****     embedded software for free we request you assist our global community by
  45:..\FreeRTOS/heap_2.c ****     participating in the support forum.
  46:..\FreeRTOS/heap_2.c **** 
  47:..\FreeRTOS/heap_2.c ****     http://www.FreeRTOS.org/training - Investing in training allows your team to
  48:..\FreeRTOS/heap_2.c ****     be as productive as possible as early as possible.  Now you can receive
  49:..\FreeRTOS/heap_2.c ****     FreeRTOS training directly from Richard Barry, CEO of Real Time Engineers
  50:..\FreeRTOS/heap_2.c ****     Ltd, and the world's leading authority on the world's leading RTOS.
  51:..\FreeRTOS/heap_2.c **** 
  52:..\FreeRTOS/heap_2.c ****     http://www.FreeRTOS.org/plus - A selection of FreeRTOS ecosystem products,
  53:..\FreeRTOS/heap_2.c ****     including FreeRTOS+Trace - an indispensable productivity tool, a DOS
  54:..\FreeRTOS/heap_2.c ****     compatible FAT file system, and our tiny thread aware UDP/IP stack.
  55:..\FreeRTOS/heap_2.c **** 
  56:..\FreeRTOS/heap_2.c ****     http://www.FreeRTOS.org/labs - Where new FreeRTOS products go to incubate.
  57:..\FreeRTOS/heap_2.c ****     Come and try FreeRTOS+TCP, our new open source TCP/IP stack for FreeRTOS.
  58:..\FreeRTOS/heap_2.c **** 
  59:..\FreeRTOS/heap_2.c ****     http://www.OpenRTOS.com - Real Time Engineers ltd. license FreeRTOS to High
  60:..\FreeRTOS/heap_2.c ****     Integrity Systems ltd. to sell under the OpenRTOS brand.  Low cost OpenRTOS
  61:..\FreeRTOS/heap_2.c ****     licenses offer ticketed support, indemnification and commercial middleware.
  62:..\FreeRTOS/heap_2.c **** 
  63:..\FreeRTOS/heap_2.c ****     http://www.SafeRTOS.com - High Integrity Systems also provide a safety
  64:..\FreeRTOS/heap_2.c ****     engineered and independently SIL3 certified version for use in safety and
  65:..\FreeRTOS/heap_2.c ****     mission critical applications that require provable dependability.
  66:..\FreeRTOS/heap_2.c **** 
  67:..\FreeRTOS/heap_2.c ****     1 tab == 4 spaces!
  68:..\FreeRTOS/heap_2.c **** */
  69:..\FreeRTOS/heap_2.c **** 
  70:..\FreeRTOS/heap_2.c **** /*
  71:..\FreeRTOS/heap_2.c ****  * A sample implementation of pvPortMalloc() and vPortFree() that permits
  72:..\FreeRTOS/heap_2.c ****  * allocated blocks to be freed, but does not combine adjacent free blocks
  73:..\FreeRTOS/heap_2.c ****  * into a single larger block (and so will fragment memory).  See heap_4.c for
  74:..\FreeRTOS/heap_2.c ****  * an equivalent that does combine adjacent blocks into single larger blocks.
  75:..\FreeRTOS/heap_2.c ****  *
  76:..\FreeRTOS/heap_2.c ****  * See heap_1.c, heap_3.c and heap_4.c for alternative implementations, and the
  77:..\FreeRTOS/heap_2.c ****  * memory management pages of http://www.FreeRTOS.org for more information.
  78:..\FreeRTOS/heap_2.c ****  */
  79:..\FreeRTOS/heap_2.c **** #include <stdlib.h>
  80:..\FreeRTOS/heap_2.c **** 
  81:..\FreeRTOS/heap_2.c **** /* Defining MPU_WRAPPERS_INCLUDED_FROM_API_FILE prevents task.h from redefining
  82:..\FreeRTOS/heap_2.c **** all the API functions to use the MPU wrappers.  That should only be done when
  83:..\FreeRTOS/heap_2.c **** task.h is included from an application file. */
  84:..\FreeRTOS/heap_2.c **** #define MPU_WRAPPERS_INCLUDED_FROM_API_FILE
  85:..\FreeRTOS/heap_2.c **** 
  86:..\FreeRTOS/heap_2.c **** #include "FreeRTOS.h"
  87:..\FreeRTOS/heap_2.c **** #include "task.h"
  88:..\FreeRTOS/heap_2.c **** 
ARM GAS  C:\Users\koseki\AppData\Local\Temp\ccemUq3h.s 			page 3


  89:..\FreeRTOS/heap_2.c **** #undef MPU_WRAPPERS_INCLUDED_FROM_API_FILE
  90:..\FreeRTOS/heap_2.c **** 
  91:..\FreeRTOS/heap_2.c **** /* A few bytes might be lost to byte aligning the heap start address. */
  92:..\FreeRTOS/heap_2.c **** #define configADJUSTED_HEAP_SIZE	( configTOTAL_HEAP_SIZE - portBYTE_ALIGNMENT )
  93:..\FreeRTOS/heap_2.c **** 
  94:..\FreeRTOS/heap_2.c **** /*
  95:..\FreeRTOS/heap_2.c ****  * Initialises the heap structures before their first use.
  96:..\FreeRTOS/heap_2.c ****  */
  97:..\FreeRTOS/heap_2.c **** static void prvHeapInit( void );
  98:..\FreeRTOS/heap_2.c **** 
  99:..\FreeRTOS/heap_2.c **** /* Allocate the memory for the heap. */
 100:..\FreeRTOS/heap_2.c **** static uint8_t ucHeap[ configTOTAL_HEAP_SIZE ];
 101:..\FreeRTOS/heap_2.c **** 
 102:..\FreeRTOS/heap_2.c **** /* Define the linked list structure.  This is used to link free blocks in order
 103:..\FreeRTOS/heap_2.c **** of their size. */
 104:..\FreeRTOS/heap_2.c **** typedef struct A_BLOCK_LINK
 105:..\FreeRTOS/heap_2.c **** {
 106:..\FreeRTOS/heap_2.c **** 	struct A_BLOCK_LINK *pxNextFreeBlock;	/*<< The next free block in the list. */
 107:..\FreeRTOS/heap_2.c **** 	size_t xBlockSize;						/*<< The size of the free block. */
 108:..\FreeRTOS/heap_2.c **** } BlockLink_t;
 109:..\FreeRTOS/heap_2.c **** 
 110:..\FreeRTOS/heap_2.c **** 
 111:..\FreeRTOS/heap_2.c **** static const uint16_t heapSTRUCT_SIZE	= ( ( sizeof ( BlockLink_t ) + ( portBYTE_ALIGNMENT - 1 ) ) &
 112:..\FreeRTOS/heap_2.c **** #define heapMINIMUM_BLOCK_SIZE	( ( size_t ) ( heapSTRUCT_SIZE * 2 ) )
 113:..\FreeRTOS/heap_2.c **** 
 114:..\FreeRTOS/heap_2.c **** /* Create a couple of list links to mark the start and end of the list. */
 115:..\FreeRTOS/heap_2.c **** static BlockLink_t xStart, xEnd;
 116:..\FreeRTOS/heap_2.c **** 
 117:..\FreeRTOS/heap_2.c **** /* Keeps track of the number of free bytes remaining, but says nothing about
 118:..\FreeRTOS/heap_2.c **** fragmentation. */
 119:..\FreeRTOS/heap_2.c **** static size_t xFreeBytesRemaining = configADJUSTED_HEAP_SIZE;
 120:..\FreeRTOS/heap_2.c **** 
 121:..\FreeRTOS/heap_2.c **** /* STATIC FUNCTIONS ARE DEFINED AS MACROS TO MINIMIZE THE FUNCTION CALL DEPTH. */
 122:..\FreeRTOS/heap_2.c **** 
 123:..\FreeRTOS/heap_2.c **** /*
 124:..\FreeRTOS/heap_2.c ****  * Insert a block into the list of free blocks - which is ordered by size of
 125:..\FreeRTOS/heap_2.c ****  * the block.  Small blocks at the start of the list and large blocks at the end
 126:..\FreeRTOS/heap_2.c ****  * of the list.
 127:..\FreeRTOS/heap_2.c ****  */
 128:..\FreeRTOS/heap_2.c **** #define prvInsertBlockIntoFreeList( pxBlockToInsert )								\
 129:..\FreeRTOS/heap_2.c **** {																					\
 130:..\FreeRTOS/heap_2.c **** BlockLink_t *pxIterator;																\
 131:..\FreeRTOS/heap_2.c **** size_t xBlockSize;																	\
 132:..\FreeRTOS/heap_2.c **** 																					\
 133:..\FreeRTOS/heap_2.c **** 	xBlockSize = pxBlockToInsert->xBlockSize;										\
 134:..\FreeRTOS/heap_2.c **** 																					\
 135:..\FreeRTOS/heap_2.c **** 	/* Iterate through the list until a block is found that has a larger size */	\
 136:..\FreeRTOS/heap_2.c **** 	/* than the block we are inserting. */											\
 137:..\FreeRTOS/heap_2.c **** 	for( pxIterator = &xStart; pxIterator->pxNextFreeBlock->xBlockSize < xBlockSize; pxIterator = pxIt
 138:..\FreeRTOS/heap_2.c **** 	{																				\
 139:..\FreeRTOS/heap_2.c **** 		/* There is nothing to do here - just iterate to the correct position. */	\
 140:..\FreeRTOS/heap_2.c **** 	}																				\
 141:..\FreeRTOS/heap_2.c **** 																					\
 142:..\FreeRTOS/heap_2.c **** 	/* Update the list to include the block being inserted in the correct */		\
 143:..\FreeRTOS/heap_2.c **** 	/* position. */																	\
 144:..\FreeRTOS/heap_2.c **** 	pxBlockToInsert->pxNextFreeBlock = pxIterator->pxNextFreeBlock;					\
 145:..\FreeRTOS/heap_2.c **** 	pxIterator->pxNextFreeBlock = pxBlockToInsert;									\
ARM GAS  C:\Users\koseki\AppData\Local\Temp\ccemUq3h.s 			page 4


 146:..\FreeRTOS/heap_2.c **** }
 147:..\FreeRTOS/heap_2.c **** /*-----------------------------------------------------------*/
 148:..\FreeRTOS/heap_2.c **** 
 149:..\FreeRTOS/heap_2.c **** void *pvPortMalloc( size_t xWantedSize )
 150:..\FreeRTOS/heap_2.c **** {
 151:..\FreeRTOS/heap_2.c **** BlockLink_t *pxBlock, *pxPreviousBlock, *pxNewBlockLink;
 152:..\FreeRTOS/heap_2.c **** static BaseType_t xHeapHasBeenInitialised = pdFALSE;
 153:..\FreeRTOS/heap_2.c **** void *pvReturn = NULL;
 154:..\FreeRTOS/heap_2.c **** 
 155:..\FreeRTOS/heap_2.c **** 	vTaskSuspendAll();
 156:..\FreeRTOS/heap_2.c **** 	{
 157:..\FreeRTOS/heap_2.c **** 		/* If this is the first call to malloc then the heap will require
 158:..\FreeRTOS/heap_2.c **** 		initialisation to setup the list of free blocks. */
 159:..\FreeRTOS/heap_2.c **** 		if( xHeapHasBeenInitialised == pdFALSE )
 160:..\FreeRTOS/heap_2.c **** 		{
 161:..\FreeRTOS/heap_2.c **** 			prvHeapInit();
 162:..\FreeRTOS/heap_2.c **** 			xHeapHasBeenInitialised = pdTRUE;
 163:..\FreeRTOS/heap_2.c **** 		}
 164:..\FreeRTOS/heap_2.c **** 
 165:..\FreeRTOS/heap_2.c **** 		/* The wanted size is increased so it can contain a BlockLink_t
 166:..\FreeRTOS/heap_2.c **** 		structure in addition to the requested amount of bytes. */
 167:..\FreeRTOS/heap_2.c **** 		if( xWantedSize > 0 )
 168:..\FreeRTOS/heap_2.c **** 		{
 169:..\FreeRTOS/heap_2.c **** 			xWantedSize += heapSTRUCT_SIZE;
 170:..\FreeRTOS/heap_2.c **** 
 171:..\FreeRTOS/heap_2.c **** 			/* Ensure that blocks are always aligned to the required number of bytes. */
 172:..\FreeRTOS/heap_2.c **** 			if( ( xWantedSize & portBYTE_ALIGNMENT_MASK ) != 0 )
 173:..\FreeRTOS/heap_2.c **** 			{
 174:..\FreeRTOS/heap_2.c **** 				/* Byte alignment required. */
 175:..\FreeRTOS/heap_2.c **** 				xWantedSize += ( portBYTE_ALIGNMENT - ( xWantedSize & portBYTE_ALIGNMENT_MASK ) );
 176:..\FreeRTOS/heap_2.c **** 			}
 177:..\FreeRTOS/heap_2.c **** 		}
 178:..\FreeRTOS/heap_2.c **** 
 179:..\FreeRTOS/heap_2.c **** 		if( ( xWantedSize > 0 ) && ( xWantedSize < configADJUSTED_HEAP_SIZE ) )
 180:..\FreeRTOS/heap_2.c **** 		{
 181:..\FreeRTOS/heap_2.c **** 			/* Blocks are stored in byte order - traverse the list from the start
 182:..\FreeRTOS/heap_2.c **** 			(smallest) block until one of adequate size is found. */
 183:..\FreeRTOS/heap_2.c **** 			pxPreviousBlock = &xStart;
 184:..\FreeRTOS/heap_2.c **** 			pxBlock = xStart.pxNextFreeBlock;
 185:..\FreeRTOS/heap_2.c **** 			while( ( pxBlock->xBlockSize < xWantedSize ) && ( pxBlock->pxNextFreeBlock != NULL ) )
 186:..\FreeRTOS/heap_2.c **** 			{
 187:..\FreeRTOS/heap_2.c **** 				pxPreviousBlock = pxBlock;
 188:..\FreeRTOS/heap_2.c **** 				pxBlock = pxBlock->pxNextFreeBlock;
 189:..\FreeRTOS/heap_2.c **** 			}
 190:..\FreeRTOS/heap_2.c **** 
 191:..\FreeRTOS/heap_2.c **** 			/* If we found the end marker then a block of adequate size was not found. */
 192:..\FreeRTOS/heap_2.c **** 			if( pxBlock != &xEnd )
 193:..\FreeRTOS/heap_2.c **** 			{
 194:..\FreeRTOS/heap_2.c **** 				/* Return the memory space - jumping over the BlockLink_t structure
 195:..\FreeRTOS/heap_2.c **** 				at its start. */
 196:..\FreeRTOS/heap_2.c **** 				pvReturn = ( void * ) ( ( ( uint8_t * ) pxPreviousBlock->pxNextFreeBlock ) + heapSTRUCT_SIZE );
 197:..\FreeRTOS/heap_2.c **** 
 198:..\FreeRTOS/heap_2.c **** 				/* This block is being returned for use so must be taken out of the
 199:..\FreeRTOS/heap_2.c **** 				list of free blocks. */
 200:..\FreeRTOS/heap_2.c **** 				pxPreviousBlock->pxNextFreeBlock = pxBlock->pxNextFreeBlock;
 201:..\FreeRTOS/heap_2.c **** 
 202:..\FreeRTOS/heap_2.c **** 				/* If the block is larger than required it can be split into two. */
ARM GAS  C:\Users\koseki\AppData\Local\Temp\ccemUq3h.s 			page 5


 203:..\FreeRTOS/heap_2.c **** 				if( ( pxBlock->xBlockSize - xWantedSize ) > heapMINIMUM_BLOCK_SIZE )
 204:..\FreeRTOS/heap_2.c **** 				{
 205:..\FreeRTOS/heap_2.c **** 					/* This block is to be split into two.  Create a new block
 206:..\FreeRTOS/heap_2.c **** 					following the number of bytes requested. The void cast is
 207:..\FreeRTOS/heap_2.c **** 					used to prevent byte alignment warnings from the compiler. */
 208:..\FreeRTOS/heap_2.c **** 					pxNewBlockLink = ( void * ) ( ( ( uint8_t * ) pxBlock ) + xWantedSize );
 209:..\FreeRTOS/heap_2.c **** 
 210:..\FreeRTOS/heap_2.c **** 					/* Calculate the sizes of two blocks split from the single
 211:..\FreeRTOS/heap_2.c **** 					block. */
 212:..\FreeRTOS/heap_2.c **** 					pxNewBlockLink->xBlockSize = pxBlock->xBlockSize - xWantedSize;
 213:..\FreeRTOS/heap_2.c **** 					pxBlock->xBlockSize = xWantedSize;
 214:..\FreeRTOS/heap_2.c **** 
 215:..\FreeRTOS/heap_2.c **** 					/* Insert the new block into the list of free blocks. */
 216:..\FreeRTOS/heap_2.c **** 					prvInsertBlockIntoFreeList( ( pxNewBlockLink ) );
 217:..\FreeRTOS/heap_2.c **** 				}
 218:..\FreeRTOS/heap_2.c **** 
 219:..\FreeRTOS/heap_2.c **** 				xFreeBytesRemaining -= pxBlock->xBlockSize;
 220:..\FreeRTOS/heap_2.c **** 			}
 221:..\FreeRTOS/heap_2.c **** 		}
 222:..\FreeRTOS/heap_2.c **** 
 223:..\FreeRTOS/heap_2.c **** 		traceMALLOC( pvReturn, xWantedSize );
 224:..\FreeRTOS/heap_2.c **** 	}
 225:..\FreeRTOS/heap_2.c **** 	( void ) xTaskResumeAll();
 226:..\FreeRTOS/heap_2.c **** 
 227:..\FreeRTOS/heap_2.c **** 	#if( configUSE_MALLOC_FAILED_HOOK == 1 )
 228:..\FreeRTOS/heap_2.c **** 	{
 229:..\FreeRTOS/heap_2.c **** 		if( pvReturn == NULL )
 230:..\FreeRTOS/heap_2.c **** 		{
 231:..\FreeRTOS/heap_2.c **** 			extern void vApplicationMallocFailedHook( void );
 232:..\FreeRTOS/heap_2.c **** 			vApplicationMallocFailedHook();
 233:..\FreeRTOS/heap_2.c **** 		}
 234:..\FreeRTOS/heap_2.c **** 	}
 235:..\FreeRTOS/heap_2.c **** 	#endif
 236:..\FreeRTOS/heap_2.c **** 
 237:..\FreeRTOS/heap_2.c **** 	return pvReturn;
 238:..\FreeRTOS/heap_2.c **** }
 239:..\FreeRTOS/heap_2.c **** /*-----------------------------------------------------------*/
 240:..\FreeRTOS/heap_2.c **** 
 241:..\FreeRTOS/heap_2.c **** void vPortFree( void *pv )
 242:..\FreeRTOS/heap_2.c **** {
 243:..\FreeRTOS/heap_2.c **** uint8_t *puc = ( uint8_t * ) pv;
 244:..\FreeRTOS/heap_2.c **** BlockLink_t *pxLink;
 245:..\FreeRTOS/heap_2.c **** 
 246:..\FreeRTOS/heap_2.c **** 	if( pv != NULL )
 247:..\FreeRTOS/heap_2.c **** 	{
 248:..\FreeRTOS/heap_2.c **** 		/* The memory being freed will have an BlockLink_t structure immediately
 249:..\FreeRTOS/heap_2.c **** 		before it. */
 250:..\FreeRTOS/heap_2.c **** 		puc -= heapSTRUCT_SIZE;
 251:..\FreeRTOS/heap_2.c **** 
 252:..\FreeRTOS/heap_2.c **** 		/* This unexpected casting is to keep some compilers from issuing
 253:..\FreeRTOS/heap_2.c **** 		byte alignment warnings. */
 254:..\FreeRTOS/heap_2.c **** 		pxLink = ( void * ) puc;
 255:..\FreeRTOS/heap_2.c **** 
 256:..\FreeRTOS/heap_2.c **** 		vTaskSuspendAll();
 257:..\FreeRTOS/heap_2.c **** 		{
 258:..\FreeRTOS/heap_2.c **** 			/* Add this block to the list of free blocks. */
 259:..\FreeRTOS/heap_2.c **** 			prvInsertBlockIntoFreeList( ( ( BlockLink_t * ) pxLink ) );
ARM GAS  C:\Users\koseki\AppData\Local\Temp\ccemUq3h.s 			page 6


 260:..\FreeRTOS/heap_2.c **** 			xFreeBytesRemaining += pxLink->xBlockSize;
 261:..\FreeRTOS/heap_2.c **** 			traceFREE( pv, pxLink->xBlockSize );
 262:..\FreeRTOS/heap_2.c **** 		}
 263:..\FreeRTOS/heap_2.c **** 		( void ) xTaskResumeAll();
 264:..\FreeRTOS/heap_2.c **** 	}
 265:..\FreeRTOS/heap_2.c **** }
 266:..\FreeRTOS/heap_2.c **** /*-----------------------------------------------------------*/
 267:..\FreeRTOS/heap_2.c **** 
 268:..\FreeRTOS/heap_2.c **** size_t xPortGetFreeHeapSize( void )
 269:..\FreeRTOS/heap_2.c **** {
 270:..\FreeRTOS/heap_2.c **** 	return xFreeBytesRemaining;
 271:..\FreeRTOS/heap_2.c **** }
 272:..\FreeRTOS/heap_2.c **** /*-----------------------------------------------------------*/
 273:..\FreeRTOS/heap_2.c **** 
 274:..\FreeRTOS/heap_2.c **** void vPortInitialiseBlocks( void )
 275:..\FreeRTOS/heap_2.c **** {
 276:..\FreeRTOS/heap_2.c **** 	/* This just exists to keep the linker quiet. */
 277:..\FreeRTOS/heap_2.c **** }
 278:..\FreeRTOS/heap_2.c **** /*-----------------------------------------------------------*/
 279:..\FreeRTOS/heap_2.c **** 
 280:..\FreeRTOS/heap_2.c **** static void prvHeapInit( void )
 281:..\FreeRTOS/heap_2.c **** {
  27              		.loc 1 281 0
  28              		.cfi_startproc
  29              		@ args = 0, pretend = 0, frame = 0
  30              		@ frame_needed = 0, uses_anonymous_args = 0
  31              		@ link register save eliminated.
 282:..\FreeRTOS/heap_2.c **** BlockLink_t *pxFirstFreeBlock;
 283:..\FreeRTOS/heap_2.c **** uint8_t *pucAlignedHeap;
 284:..\FreeRTOS/heap_2.c **** 
 285:..\FreeRTOS/heap_2.c **** 	/* Ensure the heap starts on a correctly aligned boundary. */
 286:..\FreeRTOS/heap_2.c **** 	pucAlignedHeap = ( uint8_t * ) ( ( ( portPOINTER_SIZE_TYPE ) &ucHeap[ portBYTE_ALIGNMENT ] ) & ( ~
  32              		.loc 1 286 0
  33 0000 094A     		ldr	r2, .L2
  34 0002 22F00702 		bic	r2, r2, #7
  35              	.LVL0:
 287:..\FreeRTOS/heap_2.c **** 
 288:..\FreeRTOS/heap_2.c **** 	/* xStart is used to hold a pointer to the first item in the list of free
 289:..\FreeRTOS/heap_2.c **** 	blocks.  The void cast is used to prevent compiler warnings. */
 290:..\FreeRTOS/heap_2.c **** 	xStart.pxNextFreeBlock = ( void * ) pucAlignedHeap;
  36              		.loc 1 290 0
  37 0006 094B     		ldr	r3, .L2+4
  38 0008 C3F83829 		str	r2, [r3, #2360]
 291:..\FreeRTOS/heap_2.c **** 	xStart.xBlockSize = ( size_t ) 0;
  39              		.loc 1 291 0
  40 000c 0020     		movs	r0, #0
  41 000e C3F83C09 		str	r0, [r3, #2364]
 292:..\FreeRTOS/heap_2.c **** 
 293:..\FreeRTOS/heap_2.c **** 	/* xEnd is used to mark the end of the list of free blocks. */
 294:..\FreeRTOS/heap_2.c **** 	xEnd.xBlockSize = configADJUSTED_HEAP_SIZE;
  42              		.loc 1 294 0
  43 0012 47F6F871 		movw	r1, #32760
  44 0016 C3F84419 		str	r1, [r3, #2372]
 295:..\FreeRTOS/heap_2.c **** 	xEnd.pxNextFreeBlock = NULL;
  45              		.loc 1 295 0
  46 001a C3F84009 		str	r0, [r3, #2368]
  47              	.LVL1:
ARM GAS  C:\Users\koseki\AppData\Local\Temp\ccemUq3h.s 			page 7


 296:..\FreeRTOS/heap_2.c **** 
 297:..\FreeRTOS/heap_2.c **** 	/* To start with there is a single free block that is sized to take up the
 298:..\FreeRTOS/heap_2.c **** 	entire heap space. */
 299:..\FreeRTOS/heap_2.c **** 	pxFirstFreeBlock = ( void * ) pucAlignedHeap;
 300:..\FreeRTOS/heap_2.c **** 	pxFirstFreeBlock->xBlockSize = configADJUSTED_HEAP_SIZE;
  48              		.loc 1 300 0
  49 001e 5160     		str	r1, [r2, #4]
 301:..\FreeRTOS/heap_2.c **** 	pxFirstFreeBlock->pxNextFreeBlock = &xEnd;
  50              		.loc 1 301 0
  51 0020 03F51463 		add	r3, r3, #2368
  52 0024 1360     		str	r3, [r2]
  53 0026 7047     		bx	lr
  54              	.L3:
  55              		.align	2
  56              	.L2:
  57 0028 08000000 		.word	.LANCHOR0+8
  58 002c C8760000 		.word	.LANCHOR1
  59              		.cfi_endproc
  60              	.LFE68:
  61              		.size	prvHeapInit, .-prvHeapInit
  62              		.section	.text.pvPortMalloc,"ax",%progbits
  63              		.align	2
  64              		.global	pvPortMalloc
  65              		.thumb
  66              		.thumb_func
  67              		.type	pvPortMalloc, %function
  68              	pvPortMalloc:
  69              	.LFB64:
 150:..\FreeRTOS/heap_2.c **** BlockLink_t *pxBlock, *pxPreviousBlock, *pxNewBlockLink;
  70              		.loc 1 150 0
  71              		.cfi_startproc
  72              		@ args = 0, pretend = 0, frame = 0
  73              		@ frame_needed = 0, uses_anonymous_args = 0
  74              	.LVL2:
  75 0000 70B5     		push	{r4, r5, r6, lr}
  76              		.cfi_def_cfa_offset 16
  77              		.cfi_offset 4, -16
  78              		.cfi_offset 5, -12
  79              		.cfi_offset 6, -8
  80              		.cfi_offset 14, -4
  81 0002 0446     		mov	r4, r0
  82              	.LVL3:
 155:..\FreeRTOS/heap_2.c **** 	{
  83              		.loc 1 155 0
  84 0004 FFF7FEFF 		bl	vTaskSuspendAll
  85              	.LVL4:
 159:..\FreeRTOS/heap_2.c **** 		{
  86              		.loc 1 159 0
  87 0008 264B     		ldr	r3, .L18
  88 000a D3F84839 		ldr	r3, [r3, #2376]
  89 000e 2BB9     		cbnz	r3, .L5
 161:..\FreeRTOS/heap_2.c **** 			xHeapHasBeenInitialised = pdTRUE;
  90              		.loc 1 161 0
  91 0010 FFF7FEFF 		bl	prvHeapInit
  92              	.LVL5:
 162:..\FreeRTOS/heap_2.c **** 		}
  93              		.loc 1 162 0
ARM GAS  C:\Users\koseki\AppData\Local\Temp\ccemUq3h.s 			page 8


  94 0014 0122     		movs	r2, #1
  95 0016 234B     		ldr	r3, .L18
  96 0018 C3F84829 		str	r2, [r3, #2376]
  97              	.L5:
 167:..\FreeRTOS/heap_2.c **** 		{
  98              		.loc 1 167 0
  99 001c 34B1     		cbz	r4, .L6
 169:..\FreeRTOS/heap_2.c **** 
 100              		.loc 1 169 0
 101 001e 0834     		adds	r4, r4, #8
 102              	.LVL6:
 172:..\FreeRTOS/heap_2.c **** 			{
 103              		.loc 1 172 0
 104 0020 14F0070F 		tst	r4, #7
 105 0024 02D0     		beq	.L6
 175:..\FreeRTOS/heap_2.c **** 			}
 106              		.loc 1 175 0
 107 0026 24F00704 		bic	r4, r4, #7
 108              	.LVL7:
 109 002a 0834     		adds	r4, r4, #8
 110              	.LVL8:
 111              	.L6:
 179:..\FreeRTOS/heap_2.c **** 		{
 112              		.loc 1 179 0
 113 002c 621E     		subs	r2, r4, #1
 114 002e 47F6F673 		movw	r3, #32758
 115 0032 9A42     		cmp	r2, r3
 116 0034 2BD8     		bhi	.L13
 117              	.LVL9:
 184:..\FreeRTOS/heap_2.c **** 			while( ( pxBlock->xBlockSize < xWantedSize ) && ( pxBlock->pxNextFreeBlock != NULL ) )
 118              		.loc 1 184 0
 119 0036 1B49     		ldr	r1, .L18
 120 0038 D1F83839 		ldr	r3, [r1, #2360]
 121              	.LVL10:
 183:..\FreeRTOS/heap_2.c **** 			pxBlock = xStart.pxNextFreeBlock;
 122              		.loc 1 183 0
 123 003c 01F63811 		addw	r1, r1, #2360
 185:..\FreeRTOS/heap_2.c **** 			{
 124              		.loc 1 185 0
 125 0040 01E0     		b	.L9
 126              	.LVL11:
 127              	.L14:
 187:..\FreeRTOS/heap_2.c **** 				pxBlock = pxBlock->pxNextFreeBlock;
 128              		.loc 1 187 0
 129 0042 1946     		mov	r1, r3
 130              	.LVL12:
 188:..\FreeRTOS/heap_2.c **** 			}
 131              		.loc 1 188 0
 132 0044 1346     		mov	r3, r2
 133              	.LVL13:
 134              	.L9:
 185:..\FreeRTOS/heap_2.c **** 			{
 135              		.loc 1 185 0
 136 0046 5A68     		ldr	r2, [r3, #4]
 137 0048 9442     		cmp	r4, r2
 138 004a 02D9     		bls	.L8
 185:..\FreeRTOS/heap_2.c **** 			{
ARM GAS  C:\Users\koseki\AppData\Local\Temp\ccemUq3h.s 			page 9


 139              		.loc 1 185 0 is_stmt 0 discriminator 1
 140 004c 1A68     		ldr	r2, [r3]
 141 004e 002A     		cmp	r2, #0
 142 0050 F7D1     		bne	.L14
 143              	.L8:
 192:..\FreeRTOS/heap_2.c **** 			{
 144              		.loc 1 192 0 is_stmt 1
 145 0052 154A     		ldr	r2, .L18+4
 146 0054 9342     		cmp	r3, r2
 147 0056 1CD0     		beq	.L15
 196:..\FreeRTOS/heap_2.c **** 
 148              		.loc 1 196 0
 149 0058 0D68     		ldr	r5, [r1]
 150 005a 0835     		adds	r5, r5, #8
 151              	.LVL14:
 200:..\FreeRTOS/heap_2.c **** 
 152              		.loc 1 200 0
 153 005c 1A68     		ldr	r2, [r3]
 154 005e 0A60     		str	r2, [r1]
 203:..\FreeRTOS/heap_2.c **** 				{
 155              		.loc 1 203 0
 156 0060 5A68     		ldr	r2, [r3, #4]
 157 0062 121B     		subs	r2, r2, r4
 158 0064 102A     		cmp	r2, #16
 159 0066 0CD9     		bls	.L10
 208:..\FreeRTOS/heap_2.c **** 
 160              		.loc 1 208 0
 161 0068 1E19     		adds	r6, r3, r4
 162              	.LVL15:
 212:..\FreeRTOS/heap_2.c **** 					pxBlock->xBlockSize = xWantedSize;
 163              		.loc 1 212 0
 164 006a 7260     		str	r2, [r6, #4]
 213:..\FreeRTOS/heap_2.c **** 
 165              		.loc 1 213 0
 166 006c 5C60     		str	r4, [r3, #4]
 167              	.LBB2:
 216:..\FreeRTOS/heap_2.c **** 				}
 168              		.loc 1 216 0
 169 006e 7468     		ldr	r4, [r6, #4]
 170              	.LVL16:
 171 0070 0E49     		ldr	r1, .L18+8
 172              	.LVL17:
 173 0072 00E0     		b	.L11
 174              	.LVL18:
 175              	.L16:
 176 0074 1146     		mov	r1, r2
 177              	.LVL19:
 178              	.L11:
 216:..\FreeRTOS/heap_2.c **** 				}
 179              		.loc 1 216 0 is_stmt 0 discriminator 1
 180 0076 0A68     		ldr	r2, [r1]
 181 0078 5068     		ldr	r0, [r2, #4]
 182 007a 8442     		cmp	r4, r0
 183 007c FAD8     		bhi	.L16
 216:..\FreeRTOS/heap_2.c **** 				}
 184              		.loc 1 216 0 discriminator 4
 185 007e 3260     		str	r2, [r6]
ARM GAS  C:\Users\koseki\AppData\Local\Temp\ccemUq3h.s 			page 10


 186              	.LVL20:
 187 0080 0E60     		str	r6, [r1]
 188              	.LVL21:
 189              	.L10:
 190              	.LBE2:
 219:..\FreeRTOS/heap_2.c **** 			}
 191              		.loc 1 219 0 is_stmt 1
 192 0082 5968     		ldr	r1, [r3, #4]
 193 0084 0A4A     		ldr	r2, .L18+12
 194 0086 1368     		ldr	r3, [r2]
 195              	.LVL22:
 196 0088 5B1A     		subs	r3, r3, r1
 197 008a 1360     		str	r3, [r2]
 198 008c 02E0     		b	.L7
 199              	.LVL23:
 200              	.L13:
 153:..\FreeRTOS/heap_2.c **** 
 201              		.loc 1 153 0
 202 008e 0025     		movs	r5, #0
 203 0090 00E0     		b	.L7
 204              	.LVL24:
 205              	.L15:
 206 0092 0025     		movs	r5, #0
 207              	.LVL25:
 208              	.L7:
 225:..\FreeRTOS/heap_2.c **** 
 209              		.loc 1 225 0
 210 0094 FFF7FEFF 		bl	xTaskResumeAll
 211              	.LVL26:
 229:..\FreeRTOS/heap_2.c **** 		{
 212              		.loc 1 229 0
 213 0098 0DB9     		cbnz	r5, .L12
 214              	.LBB3:
 232:..\FreeRTOS/heap_2.c **** 		}
 215              		.loc 1 232 0
 216 009a FFF7FEFF 		bl	vApplicationMallocFailedHook
 217              	.LVL27:
 218              	.L12:
 219              	.LBE3:
 238:..\FreeRTOS/heap_2.c **** /*-----------------------------------------------------------*/
 220              		.loc 1 238 0
 221 009e 2846     		mov	r0, r5
 222 00a0 70BD     		pop	{r4, r5, r6, pc}
 223              	.LVL28:
 224              	.L19:
 225 00a2 00BF     		.align	2
 226              	.L18:
 227 00a4 C8760000 		.word	.LANCHOR1
 228 00a8 08800000 		.word	.LANCHOR1+2368
 229 00ac 00800000 		.word	.LANCHOR1+2360
 230 00b0 00000000 		.word	.LANCHOR2
 231              		.cfi_endproc
 232              	.LFE64:
 233              		.size	pvPortMalloc, .-pvPortMalloc
 234              		.section	.text.vPortFree,"ax",%progbits
 235              		.align	2
 236              		.global	vPortFree
ARM GAS  C:\Users\koseki\AppData\Local\Temp\ccemUq3h.s 			page 11


 237              		.thumb
 238              		.thumb_func
 239              		.type	vPortFree, %function
 240              	vPortFree:
 241              	.LFB65:
 242:..\FreeRTOS/heap_2.c **** uint8_t *puc = ( uint8_t * ) pv;
 242              		.loc 1 242 0
 243              		.cfi_startproc
 244              		@ args = 0, pretend = 0, frame = 0
 245              		@ frame_needed = 0, uses_anonymous_args = 0
 246              	.LVL29:
 246:..\FreeRTOS/heap_2.c **** 	{
 247              		.loc 1 246 0
 248 0000 D0B1     		cbz	r0, .L25
 242:..\FreeRTOS/heap_2.c **** uint8_t *puc = ( uint8_t * ) pv;
 249              		.loc 1 242 0
 250 0002 70B5     		push	{r4, r5, r6, lr}
 251              		.cfi_def_cfa_offset 16
 252              		.cfi_offset 4, -16
 253              		.cfi_offset 5, -12
 254              		.cfi_offset 6, -8
 255              		.cfi_offset 14, -4
 256 0004 0546     		mov	r5, r0
 250:..\FreeRTOS/heap_2.c **** 
 257              		.loc 1 250 0
 258 0006 A0F10806 		sub	r6, r0, #8
 259              	.LVL30:
 256:..\FreeRTOS/heap_2.c **** 		{
 260              		.loc 1 256 0
 261 000a FFF7FEFF 		bl	vTaskSuspendAll
 262              	.LVL31:
 263              	.LBB4:
 259:..\FreeRTOS/heap_2.c **** 			xFreeBytesRemaining += pxLink->xBlockSize;
 264              		.loc 1 259 0
 265 000e 55F8044C 		ldr	r4, [r5, #-4]
 266              	.LVL32:
 267 0012 0A4A     		ldr	r2, .L26
 268 0014 00E0     		b	.L22
 269              	.LVL33:
 270              	.L23:
 271 0016 1A46     		mov	r2, r3
 272              	.LVL34:
 273              	.L22:
 259:..\FreeRTOS/heap_2.c **** 			xFreeBytesRemaining += pxLink->xBlockSize;
 274              		.loc 1 259 0 is_stmt 0 discriminator 1
 275 0018 1368     		ldr	r3, [r2]
 276 001a 5968     		ldr	r1, [r3, #4]
 277 001c 8C42     		cmp	r4, r1
 278 001e FAD8     		bhi	.L23
 259:..\FreeRTOS/heap_2.c **** 			xFreeBytesRemaining += pxLink->xBlockSize;
 279              		.loc 1 259 0 discriminator 4
 280 0020 45F8083C 		str	r3, [r5, #-8]
 281 0024 1660     		str	r6, [r2]
 282              	.LBE4:
 260:..\FreeRTOS/heap_2.c **** 			traceFREE( pv, pxLink->xBlockSize );
 283              		.loc 1 260 0 is_stmt 1 discriminator 4
 284 0026 55F8043C 		ldr	r3, [r5, #-4]
ARM GAS  C:\Users\koseki\AppData\Local\Temp\ccemUq3h.s 			page 12


 285 002a 054A     		ldr	r2, .L26+4
 286              	.LVL35:
 287 002c 1168     		ldr	r1, [r2]
 288 002e 0B44     		add	r3, r3, r1
 289 0030 1360     		str	r3, [r2]
 263:..\FreeRTOS/heap_2.c **** 	}
 290              		.loc 1 263 0 discriminator 4
 291 0032 FFF7FEFF 		bl	xTaskResumeAll
 292              	.LVL36:
 293 0036 70BD     		pop	{r4, r5, r6, pc}
 294              	.LVL37:
 295              	.L25:
 296              		.cfi_def_cfa_offset 0
 297              		.cfi_restore 4
 298              		.cfi_restore 5
 299              		.cfi_restore 6
 300              		.cfi_restore 14
 301 0038 7047     		bx	lr
 302              	.L27:
 303 003a 00BF     		.align	2
 304              	.L26:
 305 003c 00800000 		.word	.LANCHOR1+2360
 306 0040 00000000 		.word	.LANCHOR2
 307              		.cfi_endproc
 308              	.LFE65:
 309              		.size	vPortFree, .-vPortFree
 310              		.section	.text.xPortGetFreeHeapSize,"ax",%progbits
 311              		.align	2
 312              		.global	xPortGetFreeHeapSize
 313              		.thumb
 314              		.thumb_func
 315              		.type	xPortGetFreeHeapSize, %function
 316              	xPortGetFreeHeapSize:
 317              	.LFB66:
 269:..\FreeRTOS/heap_2.c **** 	return xFreeBytesRemaining;
 318              		.loc 1 269 0
 319              		.cfi_startproc
 320              		@ args = 0, pretend = 0, frame = 0
 321              		@ frame_needed = 0, uses_anonymous_args = 0
 322              		@ link register save eliminated.
 271:..\FreeRTOS/heap_2.c **** /*-----------------------------------------------------------*/
 323              		.loc 1 271 0
 324 0000 014B     		ldr	r3, .L29
 325 0002 1868     		ldr	r0, [r3]
 326 0004 7047     		bx	lr
 327              	.L30:
 328 0006 00BF     		.align	2
 329              	.L29:
 330 0008 00000000 		.word	.LANCHOR2
 331              		.cfi_endproc
 332              	.LFE66:
 333              		.size	xPortGetFreeHeapSize, .-xPortGetFreeHeapSize
 334              		.section	.text.vPortInitialiseBlocks,"ax",%progbits
 335              		.align	2
 336              		.global	vPortInitialiseBlocks
 337              		.thumb
 338              		.thumb_func
ARM GAS  C:\Users\koseki\AppData\Local\Temp\ccemUq3h.s 			page 13


 339              		.type	vPortInitialiseBlocks, %function
 340              	vPortInitialiseBlocks:
 341              	.LFB67:
 275:..\FreeRTOS/heap_2.c **** 	/* This just exists to keep the linker quiet. */
 342              		.loc 1 275 0
 343              		.cfi_startproc
 344              		@ args = 0, pretend = 0, frame = 0
 345              		@ frame_needed = 0, uses_anonymous_args = 0
 346              		@ link register save eliminated.
 347 0000 7047     		bx	lr
 348              		.cfi_endproc
 349              	.LFE67:
 350              		.size	vPortInitialiseBlocks, .-vPortInitialiseBlocks
 351 0002 00BF     		.data
 352              		.align	2
 353              		.set	.LANCHOR2,. + 0
 354              		.type	xFreeBytesRemaining, %object
 355              		.size	xFreeBytesRemaining, 4
 356              	xFreeBytesRemaining:
 357 0000 F87F0000 		.word	32760
 358              		.bss
 359              		.align	2
 360              		.set	.LANCHOR0,. + 0
 361              		.set	.LANCHOR1,. + 30408
 362              		.type	ucHeap, %object
 363              		.size	ucHeap, 32768
 364              	ucHeap:
 365 0000 00000000 		.space	32768
 365      00000000 
 365      00000000 
 365      00000000 
 365      00000000 
 366              		.type	xStart, %object
 367              		.size	xStart, 8
 368              	xStart:
 369 8000 00000000 		.space	8
 369      00000000 
 370              		.type	xEnd, %object
 371              		.size	xEnd, 8
 372              	xEnd:
 373 8008 00000000 		.space	8
 373      00000000 
 374              		.type	xHeapHasBeenInitialised.7141, %object
 375              		.size	xHeapHasBeenInitialised.7141, 4
 376              	xHeapHasBeenInitialised.7141:
 377 8010 00000000 		.space	4
 378              		.text
 379              	.Letext0:
 380              		.file 2 "c:\\program files (x86)\\cypress\\psoc creator\\4.2\\psoc creator\\import\\gnu\\arm\\5.4.
 381              		.file 3 "c:\\program files (x86)\\cypress\\psoc creator\\4.2\\psoc creator\\import\\gnu\\arm\\5.4.
 382              		.file 4 "c:\\program files (x86)\\cypress\\psoc creator\\4.2\\psoc creator\\import\\gnu\\arm\\5.4.
 383              		.file 5 "..\\FreeRTOS\\portmacro.h"
 384              		.file 6 "..\\FreeRTOS\\task.h"
 385              		.file 7 "Generated_Source\\PSoC5/core_cm3.h"