ARM GAS  C:\Users\koseki\AppData\Local\Temp\ccVtbkIw.s 			page 1


   1              		.syntax unified
   2              		.cpu cortex-m3
   3              		.fpu softvfp
   4              		.eabi_attribute 20, 1
   5              		.eabi_attribute 21, 1
   6              		.eabi_attribute 23, 3
   7              		.eabi_attribute 24, 1
   8              		.eabi_attribute 25, 1
   9              		.eabi_attribute 26, 1
  10              		.eabi_attribute 30, 1
  11              		.eabi_attribute 34, 1
  12              		.eabi_attribute 18, 4
  13              		.thumb
  14              		.syntax unified
  15              		.file	"list.c"
  16              		.text
  17              	.Ltext0:
  18              		.cfi_sections	.debug_frame
  19              		.section	.text.vListInitialise,"ax",%progbits
  20              		.align	2
  21              		.global	vListInitialise
  22              		.thumb
  23              		.thumb_func
  24              		.type	vListInitialise, %function
  25              	vListInitialise:
  26              	.LFB64:
  27              		.file 1 "..\\FreeRTOS\\list.c"
   1:..\FreeRTOS/list.c **** /*
   2:..\FreeRTOS/list.c ****     FreeRTOS V8.2.3 - Copyright (C) 2015 Real Time Engineers Ltd.
   3:..\FreeRTOS/list.c ****     All rights reserved
   4:..\FreeRTOS/list.c **** 
   5:..\FreeRTOS/list.c ****     VISIT http://www.FreeRTOS.org TO ENSURE YOU ARE USING THE LATEST VERSION.
   6:..\FreeRTOS/list.c **** 
   7:..\FreeRTOS/list.c ****     This file is part of the FreeRTOS distribution.
   8:..\FreeRTOS/list.c **** 
   9:..\FreeRTOS/list.c ****     FreeRTOS is free software; you can redistribute it and/or modify it under
  10:..\FreeRTOS/list.c ****     the terms of the GNU General Public License (version 2) as published by the
  11:..\FreeRTOS/list.c ****     Free Software Foundation >>>> AND MODIFIED BY <<<< the FreeRTOS exception.
  12:..\FreeRTOS/list.c **** 
  13:..\FreeRTOS/list.c ****     ***************************************************************************
  14:..\FreeRTOS/list.c ****     >>!   NOTE: The modification to the GPL is included to allow you to     !<<
  15:..\FreeRTOS/list.c ****     >>!   distribute a combined work that includes FreeRTOS without being   !<<
  16:..\FreeRTOS/list.c ****     >>!   obliged to provide the source code for proprietary components     !<<
  17:..\FreeRTOS/list.c ****     >>!   outside of the FreeRTOS kernel.                                   !<<
  18:..\FreeRTOS/list.c ****     ***************************************************************************
  19:..\FreeRTOS/list.c **** 
  20:..\FreeRTOS/list.c ****     FreeRTOS is distributed in the hope that it will be useful, but WITHOUT ANY
  21:..\FreeRTOS/list.c ****     WARRANTY; without even the implied warranty of MERCHANTABILITY or FITNESS
  22:..\FreeRTOS/list.c ****     FOR A PARTICULAR PURPOSE.  Full license text is available on the following
  23:..\FreeRTOS/list.c ****     link: http://www.freertos.org/a00114.html
  24:..\FreeRTOS/list.c **** 
  25:..\FreeRTOS/list.c ****     ***************************************************************************
  26:..\FreeRTOS/list.c ****      *                                                                       *
  27:..\FreeRTOS/list.c ****      *    FreeRTOS provides completely free yet professionally developed,    *
  28:..\FreeRTOS/list.c ****      *    robust, strictly quality controlled, supported, and cross          *
  29:..\FreeRTOS/list.c ****      *    platform software that is more than just the market leader, it     *
  30:..\FreeRTOS/list.c ****      *    is the industry's de facto standard.                               *
ARM GAS  C:\Users\koseki\AppData\Local\Temp\ccVtbkIw.s 			page 2


  31:..\FreeRTOS/list.c ****      *                                                                       *
  32:..\FreeRTOS/list.c ****      *    Help yourself get started quickly while simultaneously helping     *
  33:..\FreeRTOS/list.c ****      *    to support the FreeRTOS project by purchasing a FreeRTOS           *
  34:..\FreeRTOS/list.c ****      *    tutorial book, reference manual, or both:                          *
  35:..\FreeRTOS/list.c ****      *    http://www.FreeRTOS.org/Documentation                              *
  36:..\FreeRTOS/list.c ****      *                                                                       *
  37:..\FreeRTOS/list.c ****     ***************************************************************************
  38:..\FreeRTOS/list.c **** 
  39:..\FreeRTOS/list.c ****     http://www.FreeRTOS.org/FAQHelp.html - Having a problem?  Start by reading
  40:..\FreeRTOS/list.c ****     the FAQ page "My application does not run, what could be wrong?".  Have you
  41:..\FreeRTOS/list.c ****     defined configASSERT()?
  42:..\FreeRTOS/list.c **** 
  43:..\FreeRTOS/list.c ****     http://www.FreeRTOS.org/support - In return for receiving this top quality
  44:..\FreeRTOS/list.c ****     embedded software for free we request you assist our global community by
  45:..\FreeRTOS/list.c ****     participating in the support forum.
  46:..\FreeRTOS/list.c **** 
  47:..\FreeRTOS/list.c ****     http://www.FreeRTOS.org/training - Investing in training allows your team to
  48:..\FreeRTOS/list.c ****     be as productive as possible as early as possible.  Now you can receive
  49:..\FreeRTOS/list.c ****     FreeRTOS training directly from Richard Barry, CEO of Real Time Engineers
  50:..\FreeRTOS/list.c ****     Ltd, and the world's leading authority on the world's leading RTOS.
  51:..\FreeRTOS/list.c **** 
  52:..\FreeRTOS/list.c ****     http://www.FreeRTOS.org/plus - A selection of FreeRTOS ecosystem products,
  53:..\FreeRTOS/list.c ****     including FreeRTOS+Trace - an indispensable productivity tool, a DOS
  54:..\FreeRTOS/list.c ****     compatible FAT file system, and our tiny thread aware UDP/IP stack.
  55:..\FreeRTOS/list.c **** 
  56:..\FreeRTOS/list.c ****     http://www.FreeRTOS.org/labs - Where new FreeRTOS products go to incubate.
  57:..\FreeRTOS/list.c ****     Come and try FreeRTOS+TCP, our new open source TCP/IP stack for FreeRTOS.
  58:..\FreeRTOS/list.c **** 
  59:..\FreeRTOS/list.c ****     http://www.OpenRTOS.com - Real Time Engineers ltd. license FreeRTOS to High
  60:..\FreeRTOS/list.c ****     Integrity Systems ltd. to sell under the OpenRTOS brand.  Low cost OpenRTOS
  61:..\FreeRTOS/list.c ****     licenses offer ticketed support, indemnification and commercial middleware.
  62:..\FreeRTOS/list.c **** 
  63:..\FreeRTOS/list.c ****     http://www.SafeRTOS.com - High Integrity Systems also provide a safety
  64:..\FreeRTOS/list.c ****     engineered and independently SIL3 certified version for use in safety and
  65:..\FreeRTOS/list.c ****     mission critical applications that require provable dependability.
  66:..\FreeRTOS/list.c **** 
  67:..\FreeRTOS/list.c ****     1 tab == 4 spaces!
  68:..\FreeRTOS/list.c **** */
  69:..\FreeRTOS/list.c **** 
  70:..\FreeRTOS/list.c **** 
  71:..\FreeRTOS/list.c **** #include <stdlib.h>
  72:..\FreeRTOS/list.c **** #include "FreeRTOS.h"
  73:..\FreeRTOS/list.c **** #include "list.h"
  74:..\FreeRTOS/list.c **** 
  75:..\FreeRTOS/list.c **** /*-----------------------------------------------------------
  76:..\FreeRTOS/list.c ****  * PUBLIC LIST API documented in list.h
  77:..\FreeRTOS/list.c ****  *----------------------------------------------------------*/
  78:..\FreeRTOS/list.c **** 
  79:..\FreeRTOS/list.c **** void vListInitialise( List_t * const pxList )
  80:..\FreeRTOS/list.c **** {
  28              		.loc 1 80 0
  29              		.cfi_startproc
  30              		@ args = 0, pretend = 0, frame = 0
  31              		@ frame_needed = 0, uses_anonymous_args = 0
  32              		@ link register save eliminated.
  33              	.LVL0:
  81:..\FreeRTOS/list.c **** 	/* The list structure contains a list item which is used to mark the
ARM GAS  C:\Users\koseki\AppData\Local\Temp\ccVtbkIw.s 			page 3


  82:..\FreeRTOS/list.c **** 	end of the list.  To initialise the list the list end is inserted
  83:..\FreeRTOS/list.c **** 	as the only list entry. */
  84:..\FreeRTOS/list.c **** 	pxList->pxIndex = ( ListItem_t * ) &( pxList->xListEnd );			/*lint !e826 !e740 The mini list struc
  34              		.loc 1 84 0
  35 0000 00F10803 		add	r3, r0, #8
  36 0004 4360     		str	r3, [r0, #4]
  85:..\FreeRTOS/list.c **** 
  86:..\FreeRTOS/list.c **** 	/* The list end value is the highest possible value in the list to
  87:..\FreeRTOS/list.c **** 	ensure it remains at the end of the list. */
  88:..\FreeRTOS/list.c **** 	pxList->xListEnd.xItemValue = portMAX_DELAY;
  37              		.loc 1 88 0
  38 0006 4FF0FF32 		mov	r2, #-1
  39 000a 8260     		str	r2, [r0, #8]
  89:..\FreeRTOS/list.c **** 
  90:..\FreeRTOS/list.c **** 	/* The list end next and previous pointers point to itself so we know
  91:..\FreeRTOS/list.c **** 	when the list is empty. */
  92:..\FreeRTOS/list.c **** 	pxList->xListEnd.pxNext = ( ListItem_t * ) &( pxList->xListEnd );	/*lint !e826 !e740 The mini list
  40              		.loc 1 92 0
  41 000c C360     		str	r3, [r0, #12]
  93:..\FreeRTOS/list.c **** 	pxList->xListEnd.pxPrevious = ( ListItem_t * ) &( pxList->xListEnd );/*lint !e826 !e740 The mini l
  42              		.loc 1 93 0
  43 000e 0361     		str	r3, [r0, #16]
  94:..\FreeRTOS/list.c **** 
  95:..\FreeRTOS/list.c **** 	pxList->uxNumberOfItems = ( UBaseType_t ) 0U;
  44              		.loc 1 95 0
  45 0010 0023     		movs	r3, #0
  46 0012 0360     		str	r3, [r0]
  47 0014 7047     		bx	lr
  48              		.cfi_endproc
  49              	.LFE64:
  50              		.size	vListInitialise, .-vListInitialise
  51 0016 00BF     		.section	.text.vListInitialiseItem,"ax",%progbits
  52              		.align	2
  53              		.global	vListInitialiseItem
  54              		.thumb
  55              		.thumb_func
  56              		.type	vListInitialiseItem, %function
  57              	vListInitialiseItem:
  58              	.LFB65:
  96:..\FreeRTOS/list.c **** 
  97:..\FreeRTOS/list.c **** 	/* Write known values into the list if
  98:..\FreeRTOS/list.c **** 	configUSE_LIST_DATA_INTEGRITY_CHECK_BYTES is set to 1. */
  99:..\FreeRTOS/list.c **** 	listSET_LIST_INTEGRITY_CHECK_1_VALUE( pxList );
 100:..\FreeRTOS/list.c **** 	listSET_LIST_INTEGRITY_CHECK_2_VALUE( pxList );
 101:..\FreeRTOS/list.c **** }
 102:..\FreeRTOS/list.c **** /*-----------------------------------------------------------*/
 103:..\FreeRTOS/list.c **** 
 104:..\FreeRTOS/list.c **** void vListInitialiseItem( ListItem_t * const pxItem )
 105:..\FreeRTOS/list.c **** {
  59              		.loc 1 105 0
  60              		.cfi_startproc
  61              		@ args = 0, pretend = 0, frame = 0
  62              		@ frame_needed = 0, uses_anonymous_args = 0
  63              		@ link register save eliminated.
  64              	.LVL1:
 106:..\FreeRTOS/list.c **** 	/* Make sure the list item is not recorded as being on a list. */
 107:..\FreeRTOS/list.c **** 	pxItem->pvContainer = NULL;
ARM GAS  C:\Users\koseki\AppData\Local\Temp\ccVtbkIw.s 			page 4


  65              		.loc 1 107 0
  66 0000 0023     		movs	r3, #0
  67 0002 0361     		str	r3, [r0, #16]
  68 0004 7047     		bx	lr
  69              		.cfi_endproc
  70              	.LFE65:
  71              		.size	vListInitialiseItem, .-vListInitialiseItem
  72 0006 00BF     		.section	.text.vListInsertEnd,"ax",%progbits
  73              		.align	2
  74              		.global	vListInsertEnd
  75              		.thumb
  76              		.thumb_func
  77              		.type	vListInsertEnd, %function
  78              	vListInsertEnd:
  79              	.LFB66:
 108:..\FreeRTOS/list.c **** 
 109:..\FreeRTOS/list.c **** 	/* Write known values into the list item if
 110:..\FreeRTOS/list.c **** 	configUSE_LIST_DATA_INTEGRITY_CHECK_BYTES is set to 1. */
 111:..\FreeRTOS/list.c **** 	listSET_FIRST_LIST_ITEM_INTEGRITY_CHECK_VALUE( pxItem );
 112:..\FreeRTOS/list.c **** 	listSET_SECOND_LIST_ITEM_INTEGRITY_CHECK_VALUE( pxItem );
 113:..\FreeRTOS/list.c **** }
 114:..\FreeRTOS/list.c **** /*-----------------------------------------------------------*/
 115:..\FreeRTOS/list.c **** 
 116:..\FreeRTOS/list.c **** void vListInsertEnd( List_t * const pxList, ListItem_t * const pxNewListItem )
 117:..\FreeRTOS/list.c **** {
  80              		.loc 1 117 0
  81              		.cfi_startproc
  82              		@ args = 0, pretend = 0, frame = 0
  83              		@ frame_needed = 0, uses_anonymous_args = 0
  84              		@ link register save eliminated.
  85              	.LVL2:
 118:..\FreeRTOS/list.c **** ListItem_t * const pxIndex = pxList->pxIndex;
  86              		.loc 1 118 0
  87 0000 4368     		ldr	r3, [r0, #4]
  88              	.LVL3:
 119:..\FreeRTOS/list.c **** 
 120:..\FreeRTOS/list.c **** 	/* Only effective when configASSERT() is also defined, these tests may catch
 121:..\FreeRTOS/list.c **** 	the list data structures being overwritten in memory.  They will not catch
 122:..\FreeRTOS/list.c **** 	data errors caused by incorrect configuration or use of FreeRTOS. */
 123:..\FreeRTOS/list.c **** 	listTEST_LIST_INTEGRITY( pxList );
 124:..\FreeRTOS/list.c **** 	listTEST_LIST_ITEM_INTEGRITY( pxNewListItem );
 125:..\FreeRTOS/list.c **** 
 126:..\FreeRTOS/list.c **** 	/* Insert a new list item into pxList, but rather than sort the list,
 127:..\FreeRTOS/list.c **** 	makes the new list item the last item to be removed by a call to
 128:..\FreeRTOS/list.c **** 	listGET_OWNER_OF_NEXT_ENTRY(). */
 129:..\FreeRTOS/list.c **** 	pxNewListItem->pxNext = pxIndex;
  89              		.loc 1 129 0
  90 0002 4B60     		str	r3, [r1, #4]
 130:..\FreeRTOS/list.c **** 	pxNewListItem->pxPrevious = pxIndex->pxPrevious;
  91              		.loc 1 130 0
  92 0004 9A68     		ldr	r2, [r3, #8]
  93 0006 8A60     		str	r2, [r1, #8]
 131:..\FreeRTOS/list.c **** 
 132:..\FreeRTOS/list.c **** 	/* Only used during decision coverage testing. */
 133:..\FreeRTOS/list.c **** 	mtCOVERAGE_TEST_DELAY();
 134:..\FreeRTOS/list.c **** 
 135:..\FreeRTOS/list.c **** 	pxIndex->pxPrevious->pxNext = pxNewListItem;
ARM GAS  C:\Users\koseki\AppData\Local\Temp\ccVtbkIw.s 			page 5


  94              		.loc 1 135 0
  95 0008 9A68     		ldr	r2, [r3, #8]
  96 000a 5160     		str	r1, [r2, #4]
 136:..\FreeRTOS/list.c **** 	pxIndex->pxPrevious = pxNewListItem;
  97              		.loc 1 136 0
  98 000c 9960     		str	r1, [r3, #8]
 137:..\FreeRTOS/list.c **** 
 138:..\FreeRTOS/list.c **** 	/* Remember which list the item is in. */
 139:..\FreeRTOS/list.c **** 	pxNewListItem->pvContainer = ( void * ) pxList;
  99              		.loc 1 139 0
 100 000e 0861     		str	r0, [r1, #16]
 140:..\FreeRTOS/list.c **** 
 141:..\FreeRTOS/list.c **** 	( pxList->uxNumberOfItems )++;
 101              		.loc 1 141 0
 102 0010 0368     		ldr	r3, [r0]
 103              	.LVL4:
 104 0012 0133     		adds	r3, r3, #1
 105 0014 0360     		str	r3, [r0]
 106 0016 7047     		bx	lr
 107              		.cfi_endproc
 108              	.LFE66:
 109              		.size	vListInsertEnd, .-vListInsertEnd
 110              		.section	.text.vListInsert,"ax",%progbits
 111              		.align	2
 112              		.global	vListInsert
 113              		.thumb
 114              		.thumb_func
 115              		.type	vListInsert, %function
 116              	vListInsert:
 117              	.LFB67:
 142:..\FreeRTOS/list.c **** }
 143:..\FreeRTOS/list.c **** /*-----------------------------------------------------------*/
 144:..\FreeRTOS/list.c **** 
 145:..\FreeRTOS/list.c **** void vListInsert( List_t * const pxList, ListItem_t * const pxNewListItem )
 146:..\FreeRTOS/list.c **** {
 118              		.loc 1 146 0
 119              		.cfi_startproc
 120              		@ args = 0, pretend = 0, frame = 0
 121              		@ frame_needed = 0, uses_anonymous_args = 0
 122              		@ link register save eliminated.
 123              	.LVL5:
 124 0000 30B4     		push	{r4, r5}
 125              		.cfi_def_cfa_offset 8
 126              		.cfi_offset 4, -8
 127              		.cfi_offset 5, -4
 147:..\FreeRTOS/list.c **** ListItem_t *pxIterator;
 148:..\FreeRTOS/list.c **** const TickType_t xValueOfInsertion = pxNewListItem->xItemValue;
 128              		.loc 1 148 0
 129 0002 0D68     		ldr	r5, [r1]
 130              	.LVL6:
 149:..\FreeRTOS/list.c **** 
 150:..\FreeRTOS/list.c **** 	/* Only effective when configASSERT() is also defined, these tests may catch
 151:..\FreeRTOS/list.c **** 	the list data structures being overwritten in memory.  They will not catch
 152:..\FreeRTOS/list.c **** 	data errors caused by incorrect configuration or use of FreeRTOS. */
 153:..\FreeRTOS/list.c **** 	listTEST_LIST_INTEGRITY( pxList );
 154:..\FreeRTOS/list.c **** 	listTEST_LIST_ITEM_INTEGRITY( pxNewListItem );
 155:..\FreeRTOS/list.c **** 
ARM GAS  C:\Users\koseki\AppData\Local\Temp\ccVtbkIw.s 			page 6


 156:..\FreeRTOS/list.c **** 	/* Insert the new list item into the list, sorted in xItemValue order.
 157:..\FreeRTOS/list.c **** 
 158:..\FreeRTOS/list.c **** 	If the list already contains a list item with the same item value then the
 159:..\FreeRTOS/list.c **** 	new list item should be placed after it.  This ensures that TCB's which are
 160:..\FreeRTOS/list.c **** 	stored in ready lists (all of which have the same xItemValue value) get a
 161:..\FreeRTOS/list.c **** 	share of the CPU.  However, if the xItemValue is the same as the back marker
 162:..\FreeRTOS/list.c **** 	the iteration loop below will not end.  Therefore the value is checked
 163:..\FreeRTOS/list.c **** 	first, and the algorithm slightly modified if necessary. */
 164:..\FreeRTOS/list.c **** 	if( xValueOfInsertion == portMAX_DELAY )
 131              		.loc 1 164 0
 132 0004 B5F1FF3F 		cmp	r5, #-1
 133 0008 01D1     		bne	.L5
 165:..\FreeRTOS/list.c **** 	{
 166:..\FreeRTOS/list.c **** 		pxIterator = pxList->xListEnd.pxPrevious;
 134              		.loc 1 166 0
 135 000a 0269     		ldr	r2, [r0, #16]
 136              	.LVL7:
 137 000c 07E0     		b	.L6
 138              	.LVL8:
 139              	.L5:
 167:..\FreeRTOS/list.c **** 	}
 168:..\FreeRTOS/list.c **** 	else
 169:..\FreeRTOS/list.c **** 	{
 170:..\FreeRTOS/list.c **** 		/* *** NOTE ***********************************************************
 171:..\FreeRTOS/list.c **** 		If you find your application is crashing here then likely causes are
 172:..\FreeRTOS/list.c **** 		listed below.  In addition see http://www.freertos.org/FAQHelp.html for
 173:..\FreeRTOS/list.c **** 		more tips, and ensure configASSERT() is defined!
 174:..\FreeRTOS/list.c **** 		http://www.freertos.org/a00110.html#configASSERT
 175:..\FreeRTOS/list.c **** 
 176:..\FreeRTOS/list.c **** 			1) Stack overflow -
 177:..\FreeRTOS/list.c **** 			   see http://www.freertos.org/Stacks-and-stack-overflow-checking.html
 178:..\FreeRTOS/list.c **** 			2) Incorrect interrupt priority assignment, especially on Cortex-M
 179:..\FreeRTOS/list.c **** 			   parts where numerically high priority values denote low actual
 180:..\FreeRTOS/list.c **** 			   interrupt priorities, which can seem counter intuitive.  See
 181:..\FreeRTOS/list.c **** 			   http://www.freertos.org/RTOS-Cortex-M3-M4.html and the definition
 182:..\FreeRTOS/list.c **** 			   of configMAX_SYSCALL_INTERRUPT_PRIORITY on
 183:..\FreeRTOS/list.c **** 			   http://www.freertos.org/a00110.html
 184:..\FreeRTOS/list.c **** 			3) Calling an API function from within a critical section or when
 185:..\FreeRTOS/list.c **** 			   the scheduler is suspended, or calling an API function that does
 186:..\FreeRTOS/list.c **** 			   not end in "FromISR" from an interrupt.
 187:..\FreeRTOS/list.c **** 			4) Using a queue or semaphore before it has been initialised or
 188:..\FreeRTOS/list.c **** 			   before the scheduler has been started (are interrupts firing
 189:..\FreeRTOS/list.c **** 			   before vTaskStartScheduler() has been called?).
 190:..\FreeRTOS/list.c **** 		**********************************************************************/
 191:..\FreeRTOS/list.c **** 
 192:..\FreeRTOS/list.c **** 		for( pxIterator = ( ListItem_t * ) &( pxList->xListEnd ); pxIterator->pxNext->xItemValue <= xValu
 140              		.loc 1 192 0
 141 000e 00F10802 		add	r2, r0, #8
 142              	.LVL9:
 143 0012 00E0     		b	.L7
 144              	.L8:
 145 0014 1A46     		mov	r2, r3
 146              	.LVL10:
 147              	.L7:
 148              		.loc 1 192 0 is_stmt 0 discriminator 1
 149 0016 5368     		ldr	r3, [r2, #4]
 150 0018 1C68     		ldr	r4, [r3]
ARM GAS  C:\Users\koseki\AppData\Local\Temp\ccVtbkIw.s 			page 7


 151 001a A542     		cmp	r5, r4
 152 001c FAD2     		bcs	.L8
 153              	.L6:
 193:..\FreeRTOS/list.c **** 		{
 194:..\FreeRTOS/list.c **** 			/* There is nothing to do here, just iterating to the wanted
 195:..\FreeRTOS/list.c **** 			insertion position. */
 196:..\FreeRTOS/list.c **** 		}
 197:..\FreeRTOS/list.c **** 	}
 198:..\FreeRTOS/list.c **** 
 199:..\FreeRTOS/list.c **** 	pxNewListItem->pxNext = pxIterator->pxNext;
 154              		.loc 1 199 0 is_stmt 1
 155 001e 5368     		ldr	r3, [r2, #4]
 156 0020 4B60     		str	r3, [r1, #4]
 200:..\FreeRTOS/list.c **** 	pxNewListItem->pxNext->pxPrevious = pxNewListItem;
 157              		.loc 1 200 0
 158 0022 9960     		str	r1, [r3, #8]
 201:..\FreeRTOS/list.c **** 	pxNewListItem->pxPrevious = pxIterator;
 159              		.loc 1 201 0
 160 0024 8A60     		str	r2, [r1, #8]
 202:..\FreeRTOS/list.c **** 	pxIterator->pxNext = pxNewListItem;
 161              		.loc 1 202 0
 162 0026 5160     		str	r1, [r2, #4]
 203:..\FreeRTOS/list.c **** 
 204:..\FreeRTOS/list.c **** 	/* Remember which list the item is in.  This allows fast removal of the
 205:..\FreeRTOS/list.c **** 	item later. */
 206:..\FreeRTOS/list.c **** 	pxNewListItem->pvContainer = ( void * ) pxList;
 163              		.loc 1 206 0
 164 0028 0861     		str	r0, [r1, #16]
 207:..\FreeRTOS/list.c **** 
 208:..\FreeRTOS/list.c **** 	( pxList->uxNumberOfItems )++;
 165              		.loc 1 208 0
 166 002a 0368     		ldr	r3, [r0]
 167 002c 0133     		adds	r3, r3, #1
 168 002e 0360     		str	r3, [r0]
 209:..\FreeRTOS/list.c **** }
 169              		.loc 1 209 0
 170 0030 30BC     		pop	{r4, r5}
 171              		.cfi_restore 5
 172              		.cfi_restore 4
 173              		.cfi_def_cfa_offset 0
 174              	.LVL11:
 175 0032 7047     		bx	lr
 176              		.cfi_endproc
 177              	.LFE67:
 178              		.size	vListInsert, .-vListInsert
 179              		.section	.text.uxListRemove,"ax",%progbits
 180              		.align	2
 181              		.global	uxListRemove
 182              		.thumb
 183              		.thumb_func
 184              		.type	uxListRemove, %function
 185              	uxListRemove:
 186              	.LFB68:
 210:..\FreeRTOS/list.c **** /*-----------------------------------------------------------*/
 211:..\FreeRTOS/list.c **** 
 212:..\FreeRTOS/list.c **** UBaseType_t uxListRemove( ListItem_t * const pxItemToRemove )
 213:..\FreeRTOS/list.c **** {
ARM GAS  C:\Users\koseki\AppData\Local\Temp\ccVtbkIw.s 			page 8


 187              		.loc 1 213 0
 188              		.cfi_startproc
 189              		@ args = 0, pretend = 0, frame = 0
 190              		@ frame_needed = 0, uses_anonymous_args = 0
 191              		@ link register save eliminated.
 192              	.LVL12:
 214:..\FreeRTOS/list.c **** /* The list item knows which list it is in.  Obtain the list from the list
 215:..\FreeRTOS/list.c **** item. */
 216:..\FreeRTOS/list.c **** List_t * const pxList = ( List_t * ) pxItemToRemove->pvContainer;
 193              		.loc 1 216 0
 194 0000 0369     		ldr	r3, [r0, #16]
 195              	.LVL13:
 217:..\FreeRTOS/list.c **** 
 218:..\FreeRTOS/list.c **** 	pxItemToRemove->pxNext->pxPrevious = pxItemToRemove->pxPrevious;
 196              		.loc 1 218 0
 197 0002 4268     		ldr	r2, [r0, #4]
 198 0004 8168     		ldr	r1, [r0, #8]
 199 0006 9160     		str	r1, [r2, #8]
 219:..\FreeRTOS/list.c **** 	pxItemToRemove->pxPrevious->pxNext = pxItemToRemove->pxNext;
 200              		.loc 1 219 0
 201 0008 8268     		ldr	r2, [r0, #8]
 202 000a 4168     		ldr	r1, [r0, #4]
 203 000c 5160     		str	r1, [r2, #4]
 220:..\FreeRTOS/list.c **** 
 221:..\FreeRTOS/list.c **** 	/* Only used during decision coverage testing. */
 222:..\FreeRTOS/list.c **** 	mtCOVERAGE_TEST_DELAY();
 223:..\FreeRTOS/list.c **** 
 224:..\FreeRTOS/list.c **** 	/* Make sure the index is left pointing to a valid item. */
 225:..\FreeRTOS/list.c **** 	if( pxList->pxIndex == pxItemToRemove )
 204              		.loc 1 225 0
 205 000e 5A68     		ldr	r2, [r3, #4]
 206 0010 9042     		cmp	r0, r2
 207 0012 01D1     		bne	.L11
 226:..\FreeRTOS/list.c **** 	{
 227:..\FreeRTOS/list.c **** 		pxList->pxIndex = pxItemToRemove->pxPrevious;
 208              		.loc 1 227 0
 209 0014 8268     		ldr	r2, [r0, #8]
 210 0016 5A60     		str	r2, [r3, #4]
 211              	.L11:
 228:..\FreeRTOS/list.c **** 	}
 229:..\FreeRTOS/list.c **** 	else
 230:..\FreeRTOS/list.c **** 	{
 231:..\FreeRTOS/list.c **** 		mtCOVERAGE_TEST_MARKER();
 232:..\FreeRTOS/list.c **** 	}
 233:..\FreeRTOS/list.c **** 
 234:..\FreeRTOS/list.c **** 	pxItemToRemove->pvContainer = NULL;
 212              		.loc 1 234 0
 213 0018 0022     		movs	r2, #0
 214 001a 0261     		str	r2, [r0, #16]
 235:..\FreeRTOS/list.c **** 	( pxList->uxNumberOfItems )--;
 215              		.loc 1 235 0
 216 001c 1868     		ldr	r0, [r3]
 217              	.LVL14:
 218 001e 0138     		subs	r0, r0, #1
 219 0020 1860     		str	r0, [r3]
 236:..\FreeRTOS/list.c **** 
 237:..\FreeRTOS/list.c **** 	return pxList->uxNumberOfItems;
ARM GAS  C:\Users\koseki\AppData\Local\Temp\ccVtbkIw.s 			page 9


 238:..\FreeRTOS/list.c **** }
 220              		.loc 1 238 0
 221 0022 7047     		bx	lr
 222              		.cfi_endproc
 223              	.LFE68:
 224              		.size	uxListRemove, .-uxListRemove
 225              		.text
 226              	.Letext0:
 227              		.file 2 "c:\\program files (x86)\\cypress\\psoc creator\\4.2\\psoc creator\\import\\gnu\\arm\\5.4.
 228              		.file 3 "c:\\program files (x86)\\cypress\\psoc creator\\4.2\\psoc creator\\import\\gnu\\arm\\5.4.
 229              		.file 4 "..\\FreeRTOS\\portmacro.h"
 230              		.file 5 "..\\FreeRTOS\\list.h"
 231              		.file 6 "Generated_Source\\PSoC5/core_cm3.h"