ARM GAS  C:\Users\koseki\AppData\Local\Temp\ccmIoLyk.s 			page 1


   1              		.syntax unified
   2              		.cpu cortex-m3
   3              		.fpu softvfp
   4              		.eabi_attribute 20, 1
   5              		.eabi_attribute 21, 1
   6              		.eabi_attribute 23, 3
   7              		.eabi_attribute 24, 1
   8              		.eabi_attribute 25, 1
   9              		.eabi_attribute 26, 1
  10              		.eabi_attribute 30, 1
  11              		.eabi_attribute 34, 1
  12              		.eabi_attribute 18, 4
  13              		.thumb
  14              		.syntax unified
  15              		.file	"rot.c"
  16              		.text
  17              	.Ltext0:
  18              		.cfi_sections	.debug_frame
  19              		.section	.text.Init_ROT,"ax",%progbits
  20              		.align	2
  21              		.global	Init_ROT
  22              		.thumb
  23              		.thumb_func
  24              		.type	Init_ROT, %function
  25              	Init_ROT:
  26              	.LFB64:
  27              		.file 1 "..\\API\\rot.c"
   1:..\API/rot.c  **** /* ========================================
   2:..\API/rot.c  ****  *
   3:..\API/rot.c  ****  * Copyright YOUR COMPANY, THE YEAR
   4:..\API/rot.c  ****  * All Rights Reserved
   5:..\API/rot.c  ****  * UNPUBLISHED, LICENSED SOFTWARE.
   6:..\API/rot.c  ****  *
   7:..\API/rot.c  ****  * CONFIDENTIAL AND PROPRIETARY INFORMATION
   8:..\API/rot.c  ****  * WHICH IS THE PROPERTY OF your company.
   9:..\API/rot.c  ****  *
  10:..\API/rot.c  ****  * ========================================
  11:..\API/rot.c  ****  */
  12:..\API/rot.c  **** 
  13:..\API/rot.c  **** /* API */
  14:..\API/rot.c  **** #include "rot.h"
  15:..\API/rot.c  **** 
  16:..\API/rot.c  **** /* Definitions of FreeRTOS related Resource */
  17:..\API/rot.c  **** extern xQueueHandle xQueue_ROT;
  18:..\API/rot.c  **** 
  19:..\API/rot.c  **** /***********************
  20:..\API/rot.c  ****  *  Initialize ROT     *
  21:..\API/rot.c  ****  ***********************/
  22:..\API/rot.c  **** void Init_ROT(void)
  23:..\API/rot.c  **** {
  28              		.loc 1 23 0
  29              		.cfi_startproc
  30              		@ args = 0, pretend = 0, frame = 0
  31              		@ frame_needed = 0, uses_anonymous_args = 0
  32              		@ link register save eliminated.
  33 0000 7047     		bx	lr
  34              		.cfi_endproc
ARM GAS  C:\Users\koseki\AppData\Local\Temp\ccmIoLyk.s 			page 2


  35              	.LFE64:
  36              		.size	Init_ROT, .-Init_ROT
  37 0002 00BF     		.section	.text.Task_ROT,"ax",%progbits
  38              		.align	2
  39              		.global	Task_ROT
  40              		.thumb
  41              		.thumb_func
  42              		.type	Task_ROT, %function
  43              	Task_ROT:
  44              	.LFB65:
  24:..\API/rot.c  ****     /* initialize the rotary encoder */    
  25:..\API/rot.c  **** }
  26:..\API/rot.c  **** 
  27:..\API/rot.c  **** 
  28:..\API/rot.c  **** #define QUEUE_INTERVAL 50
  29:..\API/rot.c  **** 
  30:..\API/rot.c  **** /***********************
  31:..\API/rot.c  ****  *  Task ROT           *
  32:..\API/rot.c  ****  ***********************/
  33:..\API/rot.c  **** void Task_ROT(void *pvParameters)
  34:..\API/rot.c  **** {
  45              		.loc 1 34 0
  46              		.cfi_startproc
  47              		@ args = 0, pretend = 0, frame = 8
  48              		@ frame_needed = 0, uses_anonymous_args = 0
  49              	.LVL0:
  50              		.loc 1 34 0
  51 0000 70B5     		push	{r4, r5, r6, lr}
  52              		.cfi_def_cfa_offset 16
  53              		.cfi_offset 4, -16
  54              		.cfi_offset 5, -12
  55              		.cfi_offset 6, -8
  56              		.cfi_offset 14, -4
  57 0002 82B0     		sub	sp, sp, #8
  58              		.cfi_def_cfa_offset 24
  59              	.LVL1:
  35:..\API/rot.c  ****     /* Block for 3ms */
  36:..\API/rot.c  ****     const portTickType xDelay = 3 / portTICK_RATE_MS;
  37:..\API/rot.c  **** 
  38:..\API/rot.c  ****     uint8 new = 0;  /* current state of ROT */
  39:..\API/rot.c  ****     uint8 prev = 0; /* previous state of ROT */
  40:..\API/rot.c  ****     int8 count = 0; /* click count */
  60              		.loc 1 40 0
  61 0004 0026     		movs	r6, #0
  62 0006 8DF80760 		strb	r6, [sp, #7]
  63              	.LVL2:
  41:..\API/rot.c  ****     uint16 cntTask = 0;   /* task count */
  64              		.loc 1 41 0
  65 000a 3546     		mov	r5, r6
  66              	.LVL3:
  67              	.L6:
  68              	.LBB2:
  42:..\API/rot.c  **** 
  43:..\API/rot.c  ****     /* Task Loop */
  44:..\API/rot.c  ****     while(1)
  45:..\API/rot.c  ****     {
  46:..\API/rot.c  ****         /*****************************************
ARM GAS  C:\Users\koseki\AppData\Local\Temp\ccmIoLyk.s 			page 3


  47:..\API/rot.c  **** 		*	Rotary Encoder
  48:..\API/rot.c  **** 		******************************************/
  49:..\API/rot.c  **** 
  50:..\API/rot.c  ****         /* click detect */
  51:..\API/rot.c  ****         new = (ROT_A_Read() << 1) + ROT_B_Read();
  69              		.loc 1 51 0
  70 000c FFF7FEFF 		bl	ROT_A_Read
  71              	.LVL4:
  72 0010 0446     		mov	r4, r0
  73 0012 FFF7FEFF 		bl	ROT_B_Read
  74              	.LVL5:
  75 0016 00EB4400 		add	r0, r0, r4, lsl #1
  76 001a C0B2     		uxtb	r0, r0
  77              	.LVL6:
  52:..\API/rot.c  ****         if (new != prev)
  78              		.loc 1 52 0
  79 001c 8642     		cmp	r6, r0
  80 001e 16D0     		beq	.L3
  53:..\API/rot.c  ****         {
  54:..\API/rot.c  ****             /* click CW ? */
  55:..\API/rot.c  ****             if ((new == 0x03u) && (prev == 0x02u))
  81              		.loc 1 55 0
  82 0020 0328     		cmp	r0, #3
  83 0022 06D1     		bne	.L4
  84              		.loc 1 55 0 is_stmt 0 discriminator 1
  85 0024 022E     		cmp	r6, #2
  86 0026 04D1     		bne	.L4
  56:..\API/rot.c  ****                 count++;
  87              		.loc 1 56 0 is_stmt 1
  88 0028 9DF80730 		ldrb	r3, [sp, #7]	@ zero_extendqisi2
  89 002c 0133     		adds	r3, r3, #1
  90 002e 8DF80730 		strb	r3, [sp, #7]
  91              	.L4:
  57:..\API/rot.c  ****             /* click CCW ? */
  58:..\API/rot.c  ****             if ((new == 0x03u) && (prev == 0x01u))
  92              		.loc 1 58 0
  93 0032 0328     		cmp	r0, #3
  94 0034 08D1     		bne	.L7
  95              		.loc 1 58 0 is_stmt 0 discriminator 1
  96 0036 012E     		cmp	r6, #1
  97 0038 08D1     		bne	.L8
  59:..\API/rot.c  ****                 count--;
  98              		.loc 1 59 0 is_stmt 1
  99 003a 9DF80730 		ldrb	r3, [sp, #7]	@ zero_extendqisi2
 100 003e 013B     		subs	r3, r3, #1
 101 0040 8DF80730 		strb	r3, [sp, #7]
  60:..\API/rot.c  ****             /* update the ROT state */
  61:..\API/rot.c  ****             prev = new;
 102              		.loc 1 61 0
 103 0044 0646     		mov	r6, r0
 104              	.LVL7:
 105 0046 02E0     		b	.L3
 106              	.LVL8:
 107              	.L7:
 108 0048 0646     		mov	r6, r0
 109              	.LVL9:
 110 004a 00E0     		b	.L3
ARM GAS  C:\Users\koseki\AppData\Local\Temp\ccmIoLyk.s 			page 4


 111              	.LVL10:
 112              	.L8:
 113 004c 0646     		mov	r6, r0
 114              	.LVL11:
 115              	.L3:
  62:..\API/rot.c  ****         }
  63:..\API/rot.c  **** 
  64:..\API/rot.c  ****         cntTask++;
 116              		.loc 1 64 0
 117 004e 0135     		adds	r5, r5, #1
 118              	.LVL12:
 119 0050 ADB2     		uxth	r5, r5
 120              	.LVL13:
  65:..\API/rot.c  ****         if (cntTask >= QUEUE_INTERVAL)
 121              		.loc 1 65 0
 122 0052 312D     		cmp	r5, #49
 123 0054 0FD9     		bls	.L5
  66:..\API/rot.c  ****         {
  67:..\API/rot.c  ****             if (count != 0)
 124              		.loc 1 67 0
 125 0056 9DF90730 		ldrsb	r3, [sp, #7]
 126 005a 5BB1     		cbz	r3, .L9
  68:..\API/rot.c  ****             {
  69:..\API/rot.c  ****                 xQueueSend(xQueue_ROT, &count, 0);
 127              		.loc 1 69 0
 128 005c 0023     		movs	r3, #0
 129 005e 1A46     		mov	r2, r3
 130 0060 0DF10701 		add	r1, sp, #7
 131 0064 0648     		ldr	r0, .L11
 132              	.LVL14:
 133 0066 0068     		ldr	r0, [r0]
 134 0068 FFF7FEFF 		bl	xQueueGenericSend
 135              	.LVL15:
  70:..\API/rot.c  ****                 count = 0;
 136              		.loc 1 70 0
 137 006c 0025     		movs	r5, #0
 138              	.LVL16:
 139 006e 8DF80750 		strb	r5, [sp, #7]
 140 0072 00E0     		b	.L5
 141              	.LVL17:
 142              	.L9:
  71:..\API/rot.c  ****             }
  72:..\API/rot.c  ****             cntTask = 0;
 143              		.loc 1 72 0
 144 0074 0025     		movs	r5, #0
 145              	.LVL18:
 146              	.L5:
  73:..\API/rot.c  ****         }
  74:..\API/rot.c  **** 
  75:..\API/rot.c  ****         /* Blocking Task */
  76:..\API/rot.c  ****         vTaskDelay(xDelay);
 147              		.loc 1 76 0
 148 0076 0320     		movs	r0, #3
 149 0078 FFF7FEFF 		bl	vTaskDelay
 150              	.LVL19:
 151              	.LBE2:
  77:..\API/rot.c  ****     }
ARM GAS  C:\Users\koseki\AppData\Local\Temp\ccmIoLyk.s 			page 5


 152              		.loc 1 77 0
 153 007c C6E7     		b	.L6
 154              	.L12:
 155 007e 00BF     		.align	2
 156              	.L11:
 157 0080 00000000 		.word	xQueue_ROT
 158              		.cfi_endproc
 159              	.LFE65:
 160              		.size	Task_ROT, .-Task_ROT
 161              		.text
 162              	.Letext0:
 163              		.file 2 "c:\\program files (x86)\\cypress\\psoc creator\\4.1\\psoc creator\\import\\gnu\\arm\\5.4.
 164              		.file 3 "c:\\program files (x86)\\cypress\\psoc creator\\4.1\\psoc creator\\import\\gnu\\arm\\5.4.
 165              		.file 4 "Generated_Source\\PSoC5/cytypes.h"
 166              		.file 5 "..\\FreeRTOS/portmacro.h"
 167              		.file 6 "..\\FreeRTOS/queue.h"
 168              		.file 7 "Generated_Source\\PSoC5/core_cm3.h"
 169              		.file 8 "..\\FreeRTOS/task.h"