ARM GAS  C:\Users\koseki\AppData\Local\Temp\ccHqSQTX.s 			page 1


   1              		.syntax unified
   2              		.cpu cortex-m3
   3              		.fpu softvfp
   4              		.eabi_attribute 20, 1
   5              		.eabi_attribute 21, 1
   6              		.eabi_attribute 23, 3
   7              		.eabi_attribute 24, 1
   8              		.eabi_attribute 25, 1
   9              		.eabi_attribute 26, 1
  10              		.eabi_attribute 30, 1
  11              		.eabi_attribute 34, 1
  12              		.eabi_attribute 18, 4
  13              		.thumb
  14              		.syntax unified
  15              		.file	"Serial.c"
  16              		.text
  17              	.Ltext0:
  18              		.cfi_sections	.debug_frame
  19              		.section	.text.ProcessComRx,"ax",%progbits
  20              		.align	2
  21              		.global	ProcessComRx
  22              		.thumb
  23              		.thumb_func
  24              		.type	ProcessComRx, %function
  25              	ProcessComRx:
  26              	.LFB64:
  27              		.file 1 "Serial.c"
   1:Serial.c      **** //----------------------------------------------------------------------------
   2:Serial.c      **** //
   3:Serial.c      **** //	SIMPLE SDR RECEIVER PSoC3 FIRMWARE for Hardware Rev -
   4:Serial.c      **** //
   5:Serial.c      **** //	Copyright 2011 Simple Circuits Inc.
   6:Serial.c      **** //
   7:Serial.c      **** //	06/03/2011	Original release.
   8:Serial.c      **** //
   9:Serial.c      **** //----------------------------------------------------------------------------
  10:Serial.c      **** //  (2017.9.12) JA7RHK
  11:Serial.c      **** //  modified for PSoC5LP
  12:Serial.c      **** //
  13:Serial.c      **** #include <device.h>
  14:Serial.c      **** #include <string.h>
  15:Serial.c      **** #include "main.h"
  16:Serial.c      **** // PSoC3 => PSoC5LP
  17:Serial.c      **** #include "USBUART_FIFO.h"
  18:Serial.c      **** #include <stdlib.h>
  19:Serial.c      **** #include <stdio.h>
  20:Serial.c      **** 
  21:Serial.c      **** //----------------------------------------------------------------------------
  22:Serial.c      **** //
  23:Serial.c      **** //	Global variables
  24:Serial.c      **** //
  25:Serial.c      **** //----------------------------------------------------------------------------
  26:Serial.c      **** extern uint8	ComRxCmd [32];				// remote command rx buffer
  27:Serial.c      **** extern uint8	UsbTxBuffer [64];
  28:Serial.c      **** extern uint8	ComRxPtr;					// pointer into com rx buffer
  29:Serial.c      **** 
  30:Serial.c      **** extern uint8	Freq [8];					// frequency in ASCII BCD
ARM GAS  C:\Users\koseki\AppData\Local\Temp\ccHqSQTX.s 			page 2


  31:Serial.c      **** extern int32	Frequency;					// receive frequency in binary
  32:Serial.c      **** 
  33:Serial.c      **** extern uint8	LedTimer;					// LED on timer
  34:Serial.c      **** extern uint8	DisplayIndex;				// index for status display
  35:Serial.c      **** 
  36:Serial.c      **** extern uint8	AgcDisable;					// Agc disable flag
  37:Serial.c      **** extern uint8	AgcGain;					// AGC for ADC input, power of 2 scaling factor
  38:Serial.c      **** extern uint8	AgcIntegrator;				// AGC integrator
  39:Serial.c      **** extern uint8	AgcTimeConstant;            // AGC time constant
  40:Serial.c      **** extern uint8	Mode;						// operating mode
  41:Serial.c      **** extern uint8	Filter;						// audio filter bandwidth
  42:Serial.c      **** extern uint8	AttenuatorOn;				// rx attenuator on/off flag
  43:Serial.c      **** extern uint8	Squelch;					// squelch level, 0 - 250.
  44:Serial.c      **** 
  45:Serial.c      **** extern const uint8 FREQ_ERROR[8];			// freq offset is 1st row of eeprom
  46:Serial.c      **** extern const uint8 SERIAL_NUM[8];			// serial number is 2nd row of eeprom
  47:Serial.c      **** 
  48:Serial.c      **** //----------------------------------------------------------------------------
  49:Serial.c      **** //
  50:Serial.c      **** //	SERIAL ROUTINES
  51:Serial.c      **** //
  52:Serial.c      **** //----------------------------------------------------------------------------
  53:Serial.c      **** 
  54:Serial.c      **** //
  55:Serial.c      **** //	Process com rx commands
  56:Serial.c      **** //
  57:Serial.c      **** void ProcessComRx (void)
  58:Serial.c      **** {
  28              		.loc 1 58 0
  29              		.cfi_startproc
  30              		@ args = 0, pretend = 0, frame = 8
  31              		@ frame_needed = 0, uses_anonymous_args = 0
  32 0000 F0B5     		push	{r4, r5, r6, r7, lr}
  33              		.cfi_def_cfa_offset 20
  34              		.cfi_offset 4, -20
  35              		.cfi_offset 5, -16
  36              		.cfi_offset 6, -12
  37              		.cfi_offset 7, -8
  38              		.cfi_offset 14, -4
  39 0002 83B0     		sub	sp, sp, #12
  40              		.cfi_def_cfa_offset 32
  41              	.LVL0:
  59:Serial.c      **** #define GET_CMD		(ComRxCmd [2] == ';')
  60:Serial.c      **** 	uint8	i;
  61:Serial.c      **** 	uint8	sendUsb = FALSE;
  62:Serial.c      ****     char    str[8];
  63:Serial.c      **** 	
  64:Serial.c      **** 	switch ((ComRxCmd [0] * 256) + ComRxCmd [1])
  42              		.loc 1 64 0
  43 0004 B74A     		ldr	r2, .L68
  44 0006 1178     		ldrb	r1, [r2]	@ zero_extendqisi2
  45 0008 5378     		ldrb	r3, [r2, #1]	@ zero_extendqisi2
  46 000a 03EB0123 		add	r3, r3, r1, lsl #8
  47 000e 44F64412 		movw	r2, #18756
  48 0012 9342     		cmp	r3, r2
  49 0014 00F0D481 		beq	.L3
  50 0018 35DC     		bgt	.L4
ARM GAS  C:\Users\koseki\AppData\Local\Temp\ccHqSQTX.s 			page 3


  51 001a 44F24162 		movw	r2, #17985
  52 001e 9342     		cmp	r3, r2
  53 0020 00F0DE80 		beq	.L5
  54 0024 13DC     		bgt	.L6
  55 0026 44F24E12 		movw	r2, #16718
  56 002a 9342     		cmp	r3, r2
  57 002c 74D0     		beq	.L7
  58 002e 04DC     		bgt	.L8
  59 0030 44F24912 		movw	r2, #16713
  60 0034 9342     		cmp	r3, r2
  61 0036 64D0     		beq	.L9
  62 0038 B3E2     		b	.L51
  63              	.L8:
  64 003a 44F24722 		movw	r2, #16967
  65 003e 9342     		cmp	r3, r2
  66 0040 75D0     		beq	.L10
  67 0042 44F25342 		movw	r2, #17491
  68 0046 9342     		cmp	r3, r2
  69 0048 00F08F80 		beq	.L11
  70 004c A9E2     		b	.L51
  71              	.L6:
  72 004e 44F25462 		movw	r2, #18004
  73 0052 9342     		cmp	r3, r2
  74 0054 00F0FD80 		beq	.L12
  75 0058 0ADC     		bgt	.L13
  76 005a 44F24262 		movw	r2, #17986
  77 005e 9342     		cmp	r3, r2
  78 0060 00F0DD80 		beq	.L14
  79 0064 44F25262 		movw	r2, #18002
  80 0068 9342     		cmp	r3, r2
  81 006a 00F0E780 		beq	.L15
  82 006e 98E2     		b	.L51
  83              	.L13:
  84 0070 44F25762 		movw	r2, #18007
  85 0074 9342     		cmp	r3, r2
  86 0076 00F0F780 		beq	.L16
  87 007a 44F25472 		movw	r2, #18260
  88 007e 9342     		cmp	r3, r2
  89 0080 00F07381 		beq	.L17
  90 0084 8DE2     		b	.L51
  91              	.L4:
  92 0086 44F64262 		movw	r2, #20034
  93 008a 9342     		cmp	r3, r2
  94 008c 00F0F781 		beq	.L18
  95 0090 1BDC     		bgt	.L19
  96 0092 44F65332 		movw	r2, #19283
  97 0096 9342     		cmp	r3, r2
  98 0098 00F0C181 		beq	.L20
  99 009c 0ADC     		bgt	.L21
 100 009e 44F64612 		movw	r2, #18758
 101 00a2 9342     		cmp	r3, r2
 102 00a4 00F09481 		beq	.L22
 103 00a8 44F63232 		movw	r2, #19250
 104 00ac 9342     		cmp	r3, r2
 105 00ae 00F0AB81 		beq	.L23
 106 00b2 76E2     		b	.L51
 107              	.L21:
ARM GAS  C:\Users\koseki\AppData\Local\Temp\ccHqSQTX.s 			page 4


 108 00b4 44F64B42 		movw	r2, #19531
 109 00b8 9342     		cmp	r3, r2
 110 00ba 00F0BD81 		beq	.L24
 111 00be 44F64452 		movw	r2, #19780
 112 00c2 9342     		cmp	r3, r2
 113 00c4 00F0C381 		beq	.L25
 114 00c8 6BE2     		b	.L51
 115              	.L19:
 116 00ca 45F25302 		movw	r2, #20563
 117 00ce 9342     		cmp	r3, r2
 118 00d0 00F0FC81 		beq	.L26
 119 00d4 0ADC     		bgt	.L27
 120 00d6 45F24102 		movw	r2, #20545
 121 00da 9342     		cmp	r3, r2
 122 00dc 00F0DC81 		beq	.L28
 123 00e0 45F24302 		movw	r2, #20547
 124 00e4 9342     		cmp	r3, r2
 125 00e6 00F0E281 		beq	.L29
 126 00ea 5AE2     		b	.L51
 127              	.L27:
 128 00ec 45F24122 		movw	r2, #21057
 129 00f0 9342     		cmp	r3, r2
 130 00f2 00F0F181 		beq	.L30
 131 00f6 45F25132 		movw	r2, #21329
 132 00fa 9342     		cmp	r3, r2
 133 00fc 00F01582 		beq	.L31
 134 0100 4FE2     		b	.L51
 135              	.L9:
  65:Serial.c      **** 	{
  66:Serial.c      **** 		case CMD_AI:					// auto-information, make always mode 0
  67:Serial.c      **** 			if (GET_CMD)
 136              		.loc 1 67 0
 137 0102 784B     		ldr	r3, .L68
 138 0104 9B78     		ldrb	r3, [r3, #2]	@ zero_extendqisi2
 139 0106 3B2B     		cmp	r3, #59
 140 0108 40F04D82 		bne	.L52
 141              	.LVL1:
  68:Serial.c      **** 			{
  69:Serial.c      **** 				sendUsb = 4;			// flag to send response
  70:Serial.c      **** 				memcpy (UsbTxBuffer, "AI0;", sendUsb);
 142              		.loc 1 70 0
 143 010c 764B     		ldr	r3, .L68+4
 144 010e 1868     		ldr	r0, [r3]	@ unaligned
 145 0110 764B     		ldr	r3, .L68+8
 146 0112 1860     		str	r0, [r3]	@ unaligned
  69:Serial.c      **** 				memcpy (UsbTxBuffer, "AI0;", sendUsb);
 147              		.loc 1 69 0
 148 0114 0423     		movs	r3, #4
 149 0116 5DE2     		b	.L2
 150              	.LVL2:
 151              	.L7:
  71:Serial.c      **** 			}
  72:Serial.c      **** 			break;
  73:Serial.c      **** 
  74:Serial.c      **** 		case CMD_AN:					// antenna select, always 1
  75:Serial.c      **** 			if (GET_CMD)
 152              		.loc 1 75 0
ARM GAS  C:\Users\koseki\AppData\Local\Temp\ccHqSQTX.s 			page 5


 153 0118 724B     		ldr	r3, .L68
 154 011a 9B78     		ldrb	r3, [r3, #2]	@ zero_extendqisi2
 155 011c 3B2B     		cmp	r3, #59
 156 011e 40F04482 		bne	.L53
 157              	.LVL3:
  76:Serial.c      **** 			{
  77:Serial.c      **** 				sendUsb = 4;
  78:Serial.c      **** 				memcpy (UsbTxBuffer, "AN1;", sendUsb);
 158              		.loc 1 78 0
 159 0122 734B     		ldr	r3, .L68+12
 160 0124 1868     		ldr	r0, [r3]	@ unaligned
 161 0126 714B     		ldr	r3, .L68+8
 162 0128 1860     		str	r0, [r3]	@ unaligned
  77:Serial.c      **** 				memcpy (UsbTxBuffer, "AN1;", sendUsb);
 163              		.loc 1 77 0
 164 012a 0423     		movs	r3, #4
 165 012c 52E2     		b	.L2
 166              	.LVL4:
 167              	.L10:
  79:Serial.c      **** 			}
  80:Serial.c      **** 			break;
  81:Serial.c      **** 
  82:Serial.c      **** 		case CMD_BG:					// bar graph, return BG12 thru BG22
  83:Serial.c      **** 			sendUsb = 5;
  84:Serial.c      **** 			i = AgcGain / 6;			// 64 >= AgcGain >= 0, 10 >= i >= 0
 168              		.loc 1 84 0
 169 012e 714B     		ldr	r3, .L68+16
 170 0130 1B78     		ldrb	r3, [r3]	@ zero_extendqisi2
 171 0132 714A     		ldr	r2, .L68+20
 172 0134 A2FB0323 		umull	r2, r3, r2, r3
 173 0138 9B08     		lsrs	r3, r3, #2
 174              	.LVL5:
  85:Serial.c      **** 			i = (10 - i) + 12;			// between 22 and 12.
 175              		.loc 1 85 0
 176 013a C3F11603 		rsb	r3, r3, #22
 177              	.LVL6:
 178 013e DBB2     		uxtb	r3, r3
 179              	.LVL7:
  86:Serial.c      **** 			memcpy (UsbTxBuffer, "BG12;", sendUsb);
 180              		.loc 1 86 0
 181 0140 6A49     		ldr	r1, .L68+8
 182 0142 6E4A     		ldr	r2, .L68+24
 183 0144 1068     		ldr	r0, [r2]	@ unaligned
 184 0146 0860     		str	r0, [r1]	@ unaligned
 185 0148 1279     		ldrb	r2, [r2, #4]	@ zero_extendqisi2
 186 014a 0A71     		strb	r2, [r1, #4]
  87:Serial.c      **** 			UsbTxBuffer [2] = (i / 10) + '0';	// either '1' or '2'
 187              		.loc 1 87 0
 188 014c 6C4A     		ldr	r2, .L68+28
 189 014e A2FB0302 		umull	r0, r2, r2, r3
 190 0152 D208     		lsrs	r2, r2, #3
 191 0154 02F13000 		add	r0, r2, #48
 192 0158 8870     		strb	r0, [r1, #2]
  88:Serial.c      **** 			UsbTxBuffer [3] = (i % 10) + '0';	// '0' thru '9'
 193              		.loc 1 88 0
 194 015a 02EB8202 		add	r2, r2, r2, lsl #2
 195 015e A3EB4203 		sub	r3, r3, r2, lsl #1
ARM GAS  C:\Users\koseki\AppData\Local\Temp\ccHqSQTX.s 			page 6


 196              	.LVL8:
 197 0162 3033     		adds	r3, r3, #48
 198 0164 CB70     		strb	r3, [r1, #3]
  83:Serial.c      **** 			i = AgcGain / 6;			// 64 >= AgcGain >= 0, 10 >= i >= 0
 199              		.loc 1 83 0
 200 0166 0523     		movs	r3, #5
  89:Serial.c      **** 			break;
 201              		.loc 1 89 0
 202 0168 34E2     		b	.L2
 203              	.LVL9:
 204              	.L11:
  90:Serial.c      **** 
  91:Serial.c      **** 		case CMD_DS:					// display read
  92:Serial.c      **** 			sendUsb = 13;
  93:Serial.c      **** 			DisplayIndex++;
 205              		.loc 1 93 0
 206 016a 6649     		ldr	r1, .L68+32
 207 016c 0A78     		ldrb	r2, [r1]	@ zero_extendqisi2
 208 016e 0132     		adds	r2, r2, #1
 209 0170 D2B2     		uxtb	r2, r2
  94:Serial.c      **** 			DisplayIndex %= 12;
 210              		.loc 1 94 0
 211 0172 614B     		ldr	r3, .L68+20
 212 0174 A3FB0203 		umull	r0, r3, r3, r2
 213 0178 DB08     		lsrs	r3, r3, #3
 214 017a 03EB4303 		add	r3, r3, r3, lsl #1
 215 017e A2EB8303 		sub	r3, r2, r3, lsl #2
 216 0182 DBB2     		uxtb	r3, r3
 217 0184 0B70     		strb	r3, [r1]
  95:Serial.c      **** 			if (DisplayIndex < 4)		// display version info
 218              		.loc 1 95 0
 219 0186 032B     		cmp	r3, #3
 220 0188 07D8     		bhi	.L32
  96:Serial.c      **** 				memcpy (UsbTxBuffer, VERSION, 10);
 221              		.loc 1 96 0
 222 018a 584A     		ldr	r2, .L68+8
 223 018c 5E4B     		ldr	r3, .L68+36
 224 018e 03CB     		ldmia	r3!, {r0, r1}
 225 0190 1060     		str	r0, [r2]	@ unaligned
 226 0192 5160     		str	r1, [r2, #4]	@ unaligned
 227 0194 1B88     		ldrh	r3, [r3]	@ unaligned
 228 0196 1381     		strh	r3, [r2, #8]	@ unaligned
 229 0198 1AE0     		b	.L33
 230              	.L32:
  97:Serial.c      **** 			else if (DisplayIndex < 8)
 231              		.loc 1 97 0
 232 019a 072B     		cmp	r3, #7
 233 019c 0CD8     		bhi	.L34
  98:Serial.c      **** 			{
  99:Serial.c      **** 				memcpy (UsbTxBuffer, "DSSN ", 5);
 234              		.loc 1 99 0
 235 019e 534B     		ldr	r3, .L68+8
 236 01a0 5A4A     		ldr	r2, .L68+40
 237 01a2 1068     		ldr	r0, [r2]	@ unaligned
 238 01a4 1860     		str	r0, [r3]	@ unaligned
 239 01a6 1279     		ldrb	r2, [r2, #4]	@ zero_extendqisi2
 240 01a8 1A71     		strb	r2, [r3, #4]
ARM GAS  C:\Users\koseki\AppData\Local\Temp\ccHqSQTX.s 			page 7


 100:Serial.c      **** 				memcpy (&UsbTxBuffer [5], &SERIAL_NUM [3], 5);
 241              		.loc 1 100 0
 242 01aa 594A     		ldr	r2, .L68+44
 243 01ac 1168     		ldr	r1, [r2]	@ unaligned
 244 01ae C3F80510 		str	r1, [r3, #5]	@ unaligned
 245 01b2 1279     		ldrb	r2, [r2, #4]	@ zero_extendqisi2
 246 01b4 5A72     		strb	r2, [r3, #9]
 247 01b6 0BE0     		b	.L33
 248              	.L34:
 101:Serial.c      **** 			}
 102:Serial.c      **** 			else
 103:Serial.c      **** 			{
 104:Serial.c      **** 				memcpy (UsbTxBuffer, "DSFR ", 5);
 249              		.loc 1 104 0
 250 01b8 4C4B     		ldr	r3, .L68+8
 251 01ba 564A     		ldr	r2, .L68+48
 252 01bc 1068     		ldr	r0, [r2]	@ unaligned
 253 01be 1860     		str	r0, [r3]	@ unaligned
 254 01c0 1279     		ldrb	r2, [r2, #4]	@ zero_extendqisi2
 255 01c2 1A71     		strb	r2, [r3, #4]
 105:Serial.c      **** 				memcpy (&UsbTxBuffer [5], &FREQ_ERROR [3], 5);
 256              		.loc 1 105 0
 257 01c4 544A     		ldr	r2, .L68+52
 258 01c6 1168     		ldr	r1, [r2]	@ unaligned
 259 01c8 C3F80510 		str	r1, [r3, #5]	@ unaligned
 260 01cc 1279     		ldrb	r2, [r2, #4]	@ zero_extendqisi2
 261 01ce 5A72     		strb	r2, [r3, #9]
 262              	.L33:
 106:Serial.c      **** 			}
 107:Serial.c      **** 			UsbTxBuffer [10] = UsbTxBuffer [11] = 0x80;
 263              		.loc 1 107 0
 264 01d0 464B     		ldr	r3, .L68+8
 265 01d2 8022     		movs	r2, #128
 266 01d4 DA72     		strb	r2, [r3, #11]
 267 01d6 9A72     		strb	r2, [r3, #10]
 108:Serial.c      **** 			UsbTxBuffer [12] = ';';
 268              		.loc 1 108 0
 269 01d8 3B22     		movs	r2, #59
 270 01da 1A73     		strb	r2, [r3, #12]
  92:Serial.c      **** 			DisplayIndex++;
 271              		.loc 1 92 0
 272 01dc 0D23     		movs	r3, #13
 109:Serial.c      **** 			break;
 273              		.loc 1 109 0
 274 01de F9E1     		b	.L2
 275              	.LVL10:
 276              	.L5:
 110:Serial.c      **** 		
 111:Serial.c      **** 		case CMD_FA:					// set/get frequency
 112:Serial.c      **** 			if (GET_CMD)
 277              		.loc 1 112 0
 278 01e0 404B     		ldr	r3, .L68
 279 01e2 9B78     		ldrb	r3, [r3, #2]	@ zero_extendqisi2
 280 01e4 3B2B     		cmp	r3, #59
 281 01e6 0FD1     		bne	.L35
 282              	.LVL11:
 113:Serial.c      **** 			{
ARM GAS  C:\Users\koseki\AppData\Local\Temp\ccHqSQTX.s 			page 8


 114:Serial.c      **** 				sendUsb = 14;
 115:Serial.c      **** 				memcpy (UsbTxBuffer, "FA00000000000;", sendUsb);
 283              		.loc 1 115 0
 284 01e8 404C     		ldr	r4, .L68+8
 285 01ea 4C4B     		ldr	r3, .L68+56
 286 01ec 07CB     		ldmia	r3!, {r0, r1, r2}
 287 01ee 2060     		str	r0, [r4]	@ unaligned
 288 01f0 6160     		str	r1, [r4, #4]	@ unaligned
 289 01f2 1B88     		ldrh	r3, [r3]	@ unaligned
 290 01f4 A381     		strh	r3, [r4, #12]	@ unaligned
 116:Serial.c      **** 				memcpy (&UsbTxBuffer [5], Freq, 8);
 291              		.loc 1 116 0
 292 01f6 4A4B     		ldr	r3, .L68+60
 293 01f8 1A68     		ldr	r2, [r3]	@ unaligned
 294 01fa 5B68     		ldr	r3, [r3, #4]	@ unaligned
 295 01fc C4F80520 		str	r2, [r4, #5]	@ unaligned
 296 0200 C4F80930 		str	r3, [r4, #9]	@ unaligned
 114:Serial.c      **** 				memcpy (UsbTxBuffer, "FA00000000000;", sendUsb);
 297              		.loc 1 114 0
 298 0204 0E23     		movs	r3, #14
 299 0206 E5E1     		b	.L2
 300              	.LVL12:
 301              	.L35:
 117:Serial.c      **** 			}
 118:Serial.c      **** 			else
 119:Serial.c      **** 			{
 120:Serial.c      **** 				memcpy (Freq, &ComRxCmd [5], 8);
 302              		.loc 1 120 0
 303 0208 454A     		ldr	r2, .L68+60
 304 020a 364B     		ldr	r3, .L68
 305 020c 53F8051F 		ldr	r1, [r3, #5]!	@ unaligned
 306 0210 5B68     		ldr	r3, [r3, #4]	@ unaligned
 307 0212 1160     		str	r1, [r2]	@ unaligned
 308 0214 5360     		str	r3, [r2, #4]	@ unaligned
 121:Serial.c      **** 				SetFrequency ();		// set new frequency
 309              		.loc 1 121 0
 310 0216 FFF7FEFF 		bl	SetFrequency
 311              	.LVL13:
  61:Serial.c      ****     char    str[8];
 312              		.loc 1 61 0
 313 021a 0023     		movs	r3, #0
 314 021c DAE1     		b	.L2
 315              	.L14:
 122:Serial.c      **** 			}
 123:Serial.c      **** 			break;
 124:Serial.c      **** 
 125:Serial.c      **** 		case CMD_FB:					// no VFO B to set/get
 126:Serial.c      **** 			if (GET_CMD)
 316              		.loc 1 126 0
 317 021e 314B     		ldr	r3, .L68
 318 0220 9B78     		ldrb	r3, [r3, #2]	@ zero_extendqisi2
 319 0222 3B2B     		cmp	r3, #59
 320 0224 40F0C381 		bne	.L54
 321              	.LVL14:
 127:Serial.c      **** 			{
 128:Serial.c      **** 				sendUsb = 14;
 129:Serial.c      **** 				memcpy (UsbTxBuffer, "FB00000000000;", sendUsb);
ARM GAS  C:\Users\koseki\AppData\Local\Temp\ccHqSQTX.s 			page 9


 322              		.loc 1 129 0
 323 0228 304C     		ldr	r4, .L68+8
 324 022a 3E4B     		ldr	r3, .L68+64
 325 022c 07CB     		ldmia	r3!, {r0, r1, r2}
 326 022e 2060     		str	r0, [r4]	@ unaligned
 327 0230 6160     		str	r1, [r4, #4]	@ unaligned
 328 0232 A260     		str	r2, [r4, #8]	@ unaligned
 329 0234 1B88     		ldrh	r3, [r3]	@ unaligned
 330 0236 A381     		strh	r3, [r4, #12]	@ unaligned
 128:Serial.c      **** 				memcpy (UsbTxBuffer, "FB00000000000;", sendUsb);
 331              		.loc 1 128 0
 332 0238 0E23     		movs	r3, #14
 333 023a CBE1     		b	.L2
 334              	.LVL15:
 335              	.L15:
 130:Serial.c      **** 			}
 131:Serial.c      **** 			break;
 132:Serial.c      **** 
 133:Serial.c      **** 		case CMD_FR:					// no receive split mode, always 0
 134:Serial.c      **** 			if (GET_CMD)
 336              		.loc 1 134 0
 337 023c 294B     		ldr	r3, .L68
 338 023e 9B78     		ldrb	r3, [r3, #2]	@ zero_extendqisi2
 339 0240 3B2B     		cmp	r3, #59
 340 0242 40F0B681 		bne	.L55
 341              	.LVL16:
 135:Serial.c      **** 			{
 136:Serial.c      **** 				sendUsb = 4;
 137:Serial.c      **** 				memcpy (UsbTxBuffer, "FR0;", sendUsb);
 342              		.loc 1 137 0
 343 0246 384B     		ldr	r3, .L68+68
 344 0248 1868     		ldr	r0, [r3]	@ unaligned
 345 024a 284B     		ldr	r3, .L68+8
 346 024c 1860     		str	r0, [r3]	@ unaligned
 136:Serial.c      **** 				memcpy (UsbTxBuffer, "FR0;", sendUsb);
 347              		.loc 1 136 0
 348 024e 0423     		movs	r3, #4
 349 0250 C0E1     		b	.L2
 350              	.LVL17:
 351              	.L12:
 138:Serial.c      **** 			}
 139:Serial.c      **** 			break;
 140:Serial.c      **** 
 141:Serial.c      **** 		case CMD_FT:					// no transmit split mode, always 0
 142:Serial.c      **** 			if (GET_CMD)
 352              		.loc 1 142 0
 353 0252 244B     		ldr	r3, .L68
 354 0254 9B78     		ldrb	r3, [r3, #2]	@ zero_extendqisi2
 355 0256 3B2B     		cmp	r3, #59
 356 0258 40F0AD81 		bne	.L56
 357              	.LVL18:
 143:Serial.c      **** 			{
 144:Serial.c      **** 				sendUsb = 4;
 145:Serial.c      **** 				memcpy (UsbTxBuffer, "FT0;", sendUsb);
 358              		.loc 1 145 0
 359 025c 334B     		ldr	r3, .L68+72
 360 025e 1868     		ldr	r0, [r3]	@ unaligned
ARM GAS  C:\Users\koseki\AppData\Local\Temp\ccHqSQTX.s 			page 10


 361 0260 224B     		ldr	r3, .L68+8
 362 0262 1860     		str	r0, [r3]	@ unaligned
 144:Serial.c      **** 				memcpy (UsbTxBuffer, "FT0;", sendUsb);
 363              		.loc 1 144 0
 364 0264 0423     		movs	r3, #4
 365 0266 B5E1     		b	.L2
 366              	.LVL19:
 367              	.L16:
 146:Serial.c      **** 			}
 147:Serial.c      **** 			break;
 148:Serial.c      **** 
 149:Serial.c      **** 		case CMD_FW:					// filter bandwidth
 150:Serial.c      **** 			if (GET_CMD)
 368              		.loc 1 150 0
 369 0268 1E4B     		ldr	r3, .L68
 370 026a 9B78     		ldrb	r3, [r3, #2]	@ zero_extendqisi2
 371 026c 3B2B     		cmp	r3, #59
 372 026e 6BD1     		bne	.L36
 373              	.LVL20:
 151:Serial.c      **** 			{
 152:Serial.c      **** 				sendUsb = 9;
 153:Serial.c      **** 				if (Filter == FILTER_FL1)
 374              		.loc 1 153 0
 375 0270 2F4B     		ldr	r3, .L68+76
 376 0272 1B78     		ldrb	r3, [r3]	@ zero_extendqisi2
 377 0274 43B9     		cbnz	r3, .L37
 154:Serial.c      **** 					memcpy (UsbTxBuffer, "FW250010;", sendUsb);
 378              		.loc 1 154 0
 379 0276 1D4A     		ldr	r2, .L68+8
 380 0278 2E4B     		ldr	r3, .L68+80
 381 027a 03CB     		ldmia	r3!, {r0, r1}
 382 027c 1060     		str	r0, [r2]	@ unaligned
 383 027e 5160     		str	r1, [r2, #4]	@ unaligned
 384 0280 1B78     		ldrb	r3, [r3]	@ zero_extendqisi2
 385 0282 1372     		strb	r3, [r2, #8]
 152:Serial.c      **** 				if (Filter == FILTER_FL1)
 386              		.loc 1 152 0
 387 0284 0923     		movs	r3, #9
 388 0286 A5E1     		b	.L2
 389              	.L37:
 155:Serial.c      **** 				else if (Filter == FILTER_FL2)
 390              		.loc 1 155 0
 391 0288 012B     		cmp	r3, #1
 392 028a 08D1     		bne	.L38
 156:Serial.c      **** 					memcpy (UsbTxBuffer, "FW200020;", sendUsb);
 393              		.loc 1 156 0
 394 028c 174A     		ldr	r2, .L68+8
 395 028e 2A4B     		ldr	r3, .L68+84
 396 0290 03CB     		ldmia	r3!, {r0, r1}
 397 0292 1060     		str	r0, [r2]	@ unaligned
 398 0294 5160     		str	r1, [r2, #4]	@ unaligned
 399 0296 1B78     		ldrb	r3, [r3]	@ zero_extendqisi2
 400 0298 1372     		strb	r3, [r2, #8]
 152:Serial.c      **** 				if (Filter == FILTER_FL1)
 401              		.loc 1 152 0
 402 029a 0923     		movs	r3, #9
 403 029c 9AE1     		b	.L2
ARM GAS  C:\Users\koseki\AppData\Local\Temp\ccHqSQTX.s 			page 11


 404              	.L38:
 157:Serial.c      **** 				else if (Filter == FILTER_FL3)
 405              		.loc 1 157 0
 406 029e 022B     		cmp	r3, #2
 407 02a0 08D1     		bne	.L39
 158:Serial.c      **** 					memcpy (UsbTxBuffer, "FW150030;", sendUsb);
 408              		.loc 1 158 0
 409 02a2 124A     		ldr	r2, .L68+8
 410 02a4 254B     		ldr	r3, .L68+88
 411 02a6 03CB     		ldmia	r3!, {r0, r1}
 412 02a8 1060     		str	r0, [r2]	@ unaligned
 413 02aa 5160     		str	r1, [r2, #4]	@ unaligned
 414 02ac 1B78     		ldrb	r3, [r3]	@ zero_extendqisi2
 415 02ae 1372     		strb	r3, [r2, #8]
 152:Serial.c      **** 				if (Filter == FILTER_FL1)
 416              		.loc 1 152 0
 417 02b0 0923     		movs	r3, #9
 418 02b2 8FE1     		b	.L2
 419              	.L39:
 159:Serial.c      **** 				else if (Filter == FILTER_FL4)
 420              		.loc 1 159 0
 421 02b4 032B     		cmp	r3, #3
 422 02b6 08D1     		bne	.L40
 160:Serial.c      **** 					memcpy (UsbTxBuffer, "FW100040;", sendUsb);
 423              		.loc 1 160 0
 424 02b8 0C4A     		ldr	r2, .L68+8
 425 02ba 214B     		ldr	r3, .L68+92
 426 02bc 03CB     		ldmia	r3!, {r0, r1}
 427 02be 1060     		str	r0, [r2]	@ unaligned
 428 02c0 5160     		str	r1, [r2, #4]	@ unaligned
 429 02c2 1B78     		ldrb	r3, [r3]	@ zero_extendqisi2
 430 02c4 1372     		strb	r3, [r2, #8]
 152:Serial.c      **** 				if (Filter == FILTER_FL1)
 431              		.loc 1 152 0
 432 02c6 0923     		movs	r3, #9
 433 02c8 84E1     		b	.L2
 434              	.L40:
 161:Serial.c      **** 				else if (Filter == FILTER_AM)
 435              		.loc 1 161 0
 436 02ca 042B     		cmp	r3, #4
 437 02cc 40F07581 		bne	.L57
 162:Serial.c      **** 					memcpy (UsbTxBuffer, "FW380050;", sendUsb);   // 2017.11.4(koseki)
 438              		.loc 1 162 0
 439 02d0 064A     		ldr	r2, .L68+8
 440 02d2 1C4B     		ldr	r3, .L68+96
 441 02d4 03CB     		ldmia	r3!, {r0, r1}
 442 02d6 1060     		str	r0, [r2]	@ unaligned
 443 02d8 5160     		str	r1, [r2, #4]	@ unaligned
 444 02da 1B78     		ldrb	r3, [r3]	@ zero_extendqisi2
 445 02dc 1372     		strb	r3, [r2, #8]
 152:Serial.c      **** 				if (Filter == FILTER_FL1)
 446              		.loc 1 152 0
 447 02de 0923     		movs	r3, #9
 448 02e0 78E1     		b	.L2
 449              	.L69:
 450 02e2 00BF     		.align	2
 451              	.L68:
ARM GAS  C:\Users\koseki\AppData\Local\Temp\ccHqSQTX.s 			page 12


 452 02e4 00000000 		.word	ComRxCmd
 453 02e8 00000000 		.word	.LC0
 454 02ec 00000000 		.word	UsbTxBuffer
 455 02f0 08000000 		.word	.LC1
 456 02f4 00000000 		.word	AgcGain
 457 02f8 ABAAAAAA 		.word	-1431655765
 458 02fc 10000000 		.word	.LC2
 459 0300 CDCCCCCC 		.word	-858993459
 460 0304 00000000 		.word	DisplayIndex
 461 0308 18000000 		.word	.LC3
 462 030c 24000000 		.word	.LC4
 463 0310 03000000 		.word	SERIAL_NUM+3
 464 0314 2C000000 		.word	.LC5
 465 0318 03000000 		.word	FREQ_ERROR+3
 466 031c 34000000 		.word	.LC6
 467 0320 00000000 		.word	Freq
 468 0324 44000000 		.word	.LC7
 469 0328 54000000 		.word	.LC8
 470 032c 5C000000 		.word	.LC9
 471 0330 00000000 		.word	Filter
 472 0334 64000000 		.word	.LC10
 473 0338 70000000 		.word	.LC11
 474 033c 7C000000 		.word	.LC12
 475 0340 88000000 		.word	.LC13
 476 0344 94000000 		.word	.LC14
 477              	.LVL21:
 478              	.L36:
 163:Serial.c      **** 			}
 164:Serial.c      **** 			else
 165:Serial.c      **** 			{
 166:Serial.c      **** 				Filter = ComRxCmd [6] - '1';
 479              		.loc 1 166 0
 480 0348 A84B     		ldr	r3, .L70
 481 034a 9B79     		ldrb	r3, [r3, #6]	@ zero_extendqisi2
 482 034c 313B     		subs	r3, r3, #49
 483 034e DBB2     		uxtb	r3, r3
 484 0350 A74A     		ldr	r2, .L70+4
 485 0352 1370     		strb	r3, [r2]
 167:Serial.c      **** 				if (Filter > FILTER_RST)
 486              		.loc 1 167 0
 487 0354 052B     		cmp	r3, #5
 488 0356 02D9     		bls	.L41
 168:Serial.c      **** 					Filter = FILTER_FL1;
 489              		.loc 1 168 0
 490 0358 0022     		movs	r2, #0
 491 035a A54B     		ldr	r3, .L70+4
 492 035c 1A70     		strb	r2, [r3]
 493              	.L41:
 169:Serial.c      **** 				LoadFilter (Filter);
 494              		.loc 1 169 0
 495 035e A44B     		ldr	r3, .L70+4
 496 0360 1878     		ldrb	r0, [r3]	@ zero_extendqisi2
 497 0362 FFF7FEFF 		bl	LoadFilter
 498              	.LVL22:
  61:Serial.c      ****     char    str[8];
 499              		.loc 1 61 0
 500 0366 0023     		movs	r3, #0
ARM GAS  C:\Users\koseki\AppData\Local\Temp\ccHqSQTX.s 			page 13


 501 0368 34E1     		b	.L2
 502              	.L17:
 170:Serial.c      **** 			}
 171:Serial.c      **** 			break;
 172:Serial.c      **** 
 173:Serial.c      **** 		case CMD_GT:					// AGC time constant, slow, on/off
 174:Serial.c      **** 			if (GET_CMD)
 503              		.loc 1 174 0
 504 036a A04B     		ldr	r3, .L70
 505 036c 9B78     		ldrb	r3, [r3, #2]	@ zero_extendqisi2
 506 036e 3B2B     		cmp	r3, #59
 507 0370 18D1     		bne	.L42
 508              	.LVL23:
 175:Serial.c      **** 			{
 176:Serial.c      **** 				sendUsb = 7;
 177:Serial.c      **** 				//memcpy (UsbTxBuffer, "GT0040;", sendUsb);
 178:Serial.c      ****                 sprintf(str, "GT%03d0;", AgcTimeConstant);
 509              		.loc 1 178 0
 510 0372 A04B     		ldr	r3, .L70+8
 511 0374 1A78     		ldrb	r2, [r3]	@ zero_extendqisi2
 512 0376 A049     		ldr	r1, .L70+12
 513 0378 6846     		mov	r0, sp
 514 037a FFF7FEFF 		bl	sprintf
 515              	.LVL24:
 179:Serial.c      **** 				memcpy (UsbTxBuffer, str, sendUsb);
 516              		.loc 1 179 0
 517 037e 9F4B     		ldr	r3, .L70+16
 518 0380 0098     		ldr	r0, [sp]	@ unaligned
 519 0382 1860     		str	r0, [r3]	@ unaligned
 520 0384 BDF80410 		ldrh	r1, [sp, #4]	@ unaligned
 521 0388 9DF80620 		ldrb	r2, [sp, #6]	@ zero_extendqisi2
 522 038c 9980     		strh	r1, [r3, #4]	@ unaligned
 523 038e 9A71     		strb	r2, [r3, #6]
 180:Serial.c      **** 				UsbTxBuffer [5] = (AgcDisable) ? '0' : '1';
 524              		.loc 1 180 0
 525 0390 9B4B     		ldr	r3, .L70+20
 526 0392 1B78     		ldrb	r3, [r3]	@ zero_extendqisi2
 527 0394 0BB1     		cbz	r3, .L58
 528 0396 3022     		movs	r2, #48
 529 0398 00E0     		b	.L43
 530              	.L58:
 531 039a 3122     		movs	r2, #49
 532              	.L43:
 533              		.loc 1 180 0 is_stmt 0 discriminator 4
 534 039c 974B     		ldr	r3, .L70+16
 535 039e 5A71     		strb	r2, [r3, #5]
 176:Serial.c      **** 				//memcpy (UsbTxBuffer, "GT0040;", sendUsb);
 536              		.loc 1 176 0 is_stmt 1 discriminator 4
 537 03a0 0723     		movs	r3, #7
 538 03a2 17E1     		b	.L2
 539              	.LVL25:
 540              	.L42:
 181:Serial.c      **** 			}
 182:Serial.c      **** 			else
 183:Serial.c      ****             {
 184:Serial.c      ****                 AgcTimeConstant = ComRxCmd [4] - '0';
 541              		.loc 1 184 0
ARM GAS  C:\Users\koseki\AppData\Local\Temp\ccHqSQTX.s 			page 14


 542 03a4 914A     		ldr	r2, .L70
 543 03a6 1379     		ldrb	r3, [r2, #4]	@ zero_extendqisi2
 544 03a8 303B     		subs	r3, r3, #48
 545 03aa 9249     		ldr	r1, .L70+8
 546 03ac 0B70     		strb	r3, [r1]
 185:Serial.c      ****                 AgcDisable = (ComRxCmd [5] == '0');
 547              		.loc 1 185 0
 548 03ae 5379     		ldrb	r3, [r2, #5]	@ zero_extendqisi2
 549 03b0 302B     		cmp	r3, #48
 550 03b2 14BF     		ite	ne
 551 03b4 0023     		movne	r3, #0
 552 03b6 0123     		moveq	r3, #1
 553 03b8 914A     		ldr	r2, .L70+20
 554 03ba 1370     		strb	r3, [r2]
  61:Serial.c      ****     char    str[8];
 555              		.loc 1 61 0
 556 03bc 0023     		movs	r3, #0
 557 03be 09E1     		b	.L2
 558              	.L3:
 559              	.LVL26:
 186:Serial.c      **** 			}
 187:Serial.c      ****             break;
 188:Serial.c      **** 
 189:Serial.c      **** 		case CMD_ID:					// K2 ID number
 190:Serial.c      **** 			sendUsb = 6;
 191:Serial.c      **** 			memcpy (UsbTxBuffer, "ID017;", sendUsb);
 560              		.loc 1 191 0
 561 03c0 8E4B     		ldr	r3, .L70+16
 562 03c2 904A     		ldr	r2, .L70+24
 563 03c4 1068     		ldr	r0, [r2]	@ unaligned
 564 03c6 1860     		str	r0, [r3]	@ unaligned
 565 03c8 9288     		ldrh	r2, [r2, #4]	@ unaligned
 566 03ca 9A80     		strh	r2, [r3, #4]	@ unaligned
 190:Serial.c      **** 			memcpy (UsbTxBuffer, "ID017;", sendUsb);
 567              		.loc 1 190 0
 568 03cc 0623     		movs	r3, #6
 192:Serial.c      **** 			break;
 569              		.loc 1 192 0
 570 03ce 01E1     		b	.L2
 571              	.LVL27:
 572              	.L22:
 193:Serial.c      **** 
 194:Serial.c      **** 		case CMD_IF:					// radio info
 195:Serial.c      **** 			sendUsb = 35;
 196:Serial.c      **** 			memcpy (UsbTxBuffer, "IF00000000000     +00000001000001 ;", sendUsb);
 573              		.loc 1 196 0
 574 03d0 8D4E     		ldr	r6, .L70+28
 575 03d2 8A4C     		ldr	r4, .L70+16
 576 03d4 06F12007 		add	r7, r6, #32
 577              	.L44:
 578 03d8 3546     		mov	r5, r6
 579 03da 0FCD     		ldmia	r5!, {r0, r1, r2, r3}
 580 03dc 2060     		str	r0, [r4]	@ unaligned
 581 03de 6160     		str	r1, [r4, #4]	@ unaligned
 582 03e0 A260     		str	r2, [r4, #8]	@ unaligned
 583 03e2 E360     		str	r3, [r4, #12]	@ unaligned
 584 03e4 2E46     		mov	r6, r5
ARM GAS  C:\Users\koseki\AppData\Local\Temp\ccHqSQTX.s 			page 15


 585 03e6 1034     		adds	r4, r4, #16
 586 03e8 BD42     		cmp	r5, r7
 587 03ea F5D1     		bne	.L44
 588 03ec 2A88     		ldrh	r2, [r5]	@ unaligned
 589 03ee AB78     		ldrb	r3, [r5, #2]	@ zero_extendqisi2
 590 03f0 2280     		strh	r2, [r4]	@ unaligned
 591 03f2 A370     		strb	r3, [r4, #2]
 197:Serial.c      **** 			memcpy (&UsbTxBuffer [5], Freq, 8);
 592              		.loc 1 197 0
 593 03f4 814B     		ldr	r3, .L70+16
 594 03f6 854A     		ldr	r2, .L70+32
 595 03f8 1168     		ldr	r1, [r2]	@ unaligned
 596 03fa 5268     		ldr	r2, [r2, #4]	@ unaligned
 597 03fc C3F80510 		str	r1, [r3, #5]	@ unaligned
 598 0400 C3F80920 		str	r2, [r3, #9]	@ unaligned
 195:Serial.c      **** 			memcpy (UsbTxBuffer, "IF00000000000     +00000001000001 ;", sendUsb);
 599              		.loc 1 195 0
 600 0404 2323     		movs	r3, #35
 198:Serial.c      **** 			break;
 601              		.loc 1 198 0
 602 0406 E5E0     		b	.L2
 603              	.LVL28:
 604              	.L23:
 199:Serial.c      **** 
 200:Serial.c      **** 		case CMD_K2:					// meta-command
 201:Serial.c      **** 			if (GET_CMD)
 605              		.loc 1 201 0
 606 0408 784B     		ldr	r3, .L70
 607 040a 9B78     		ldrb	r3, [r3, #2]	@ zero_extendqisi2
 608 040c 3B2B     		cmp	r3, #59
 609 040e 40F0D680 		bne	.L59
 610              	.LVL29:
 202:Serial.c      **** 			{
 203:Serial.c      **** 				sendUsb = 4;
 204:Serial.c      **** 				memcpy (UsbTxBuffer, "K22;", sendUsb);
 611              		.loc 1 204 0
 612 0412 7F4B     		ldr	r3, .L70+36
 613 0414 1868     		ldr	r0, [r3]	@ unaligned
 614 0416 794B     		ldr	r3, .L70+16
 615 0418 1860     		str	r0, [r3]	@ unaligned
 203:Serial.c      **** 				memcpy (UsbTxBuffer, "K22;", sendUsb);
 616              		.loc 1 203 0
 617 041a 0423     		movs	r3, #4
 618 041c DAE0     		b	.L2
 619              	.LVL30:
 620              	.L20:
 205:Serial.c      **** 			}
 206:Serial.c      **** 			break;
 207:Serial.c      **** 
 208:Serial.c      **** 		case CMD_KS:					// keyer speed, not used
 209:Serial.c      **** 			if (GET_CMD)
 621              		.loc 1 209 0
 622 041e 734B     		ldr	r3, .L70
 623 0420 9B78     		ldrb	r3, [r3, #2]	@ zero_extendqisi2
 624 0422 3B2B     		cmp	r3, #59
 625 0424 40F0CD80 		bne	.L60
 626              	.LVL31:
ARM GAS  C:\Users\koseki\AppData\Local\Temp\ccHqSQTX.s 			page 16


 210:Serial.c      **** 			{
 211:Serial.c      **** 				sendUsb = 6;
 212:Serial.c      **** 				memcpy (UsbTxBuffer, "KS009;", sendUsb);
 627              		.loc 1 212 0
 628 0428 744B     		ldr	r3, .L70+16
 629 042a 7A4A     		ldr	r2, .L70+40
 630 042c 1068     		ldr	r0, [r2]	@ unaligned
 631 042e 1860     		str	r0, [r3]	@ unaligned
 632 0430 9288     		ldrh	r2, [r2, #4]	@ unaligned
 633 0432 9A80     		strh	r2, [r3, #4]	@ unaligned
 211:Serial.c      **** 				memcpy (UsbTxBuffer, "KS009;", sendUsb);
 634              		.loc 1 211 0
 635 0434 0623     		movs	r3, #6
 636 0436 CDE0     		b	.L2
 637              	.LVL32:
 638              	.L24:
 213:Serial.c      **** 			}
 214:Serial.c      **** 			break;
 215:Serial.c      **** 
 216:Serial.c      **** 		case CMD_LK:					// VFO lock, always unlocked
 217:Serial.c      **** 			if (GET_CMD)
 639              		.loc 1 217 0
 640 0438 6C4B     		ldr	r3, .L70
 641 043a 9B78     		ldrb	r3, [r3, #2]	@ zero_extendqisi2
 642 043c 3B2B     		cmp	r3, #59
 643 043e 40F0C280 		bne	.L61
 644              	.LVL33:
 218:Serial.c      **** 			{
 219:Serial.c      **** 				sendUsb = 4;
 220:Serial.c      **** 				memcpy (UsbTxBuffer, "LK0;", sendUsb);
 645              		.loc 1 220 0
 646 0442 754B     		ldr	r3, .L70+44
 647 0444 1868     		ldr	r0, [r3]	@ unaligned
 648 0446 6D4B     		ldr	r3, .L70+16
 649 0448 1860     		str	r0, [r3]	@ unaligned
 219:Serial.c      **** 				memcpy (UsbTxBuffer, "LK0;", sendUsb);
 650              		.loc 1 219 0
 651 044a 0423     		movs	r3, #4
 652 044c C2E0     		b	.L2
 653              	.LVL34:
 654              	.L25:
 221:Serial.c      **** 			}
 222:Serial.c      **** 			break;
 223:Serial.c      **** 
 224:Serial.c      **** 		case CMD_MD:					// operating mode
 225:Serial.c      **** 			if (GET_CMD)
 655              		.loc 1 225 0
 656 044e 674B     		ldr	r3, .L70
 657 0450 9878     		ldrb	r0, [r3, #2]	@ zero_extendqisi2
 658 0452 3B28     		cmp	r0, #59
 659 0454 09D1     		bne	.L45
 660              	.LVL35:
 226:Serial.c      **** 			{
 227:Serial.c      **** 				sendUsb = 4;
 228:Serial.c      **** 				memcpy (UsbTxBuffer, "MD1;", sendUsb);
 661              		.loc 1 228 0
 662 0456 694A     		ldr	r2, .L70+16
ARM GAS  C:\Users\koseki\AppData\Local\Temp\ccHqSQTX.s 			page 17


 663 0458 704B     		ldr	r3, .L70+48
 664 045a 1868     		ldr	r0, [r3]	@ unaligned
 665 045c 1060     		str	r0, [r2]	@ unaligned
 229:Serial.c      **** 				UsbTxBuffer [2] = Mode + '1';	// Mode = 0 - 9
 666              		.loc 1 229 0
 667 045e 704B     		ldr	r3, .L70+52
 668 0460 1B78     		ldrb	r3, [r3]	@ zero_extendqisi2
 669 0462 3133     		adds	r3, r3, #49
 670 0464 9370     		strb	r3, [r2, #2]
 227:Serial.c      **** 				memcpy (UsbTxBuffer, "MD1;", sendUsb);
 671              		.loc 1 227 0
 672 0466 0423     		movs	r3, #4
 673 0468 B4E0     		b	.L2
 674              	.LVL36:
 675              	.L45:
 230:Serial.c      **** 			}
 231:Serial.c      **** 			else
 232:Serial.c      ****             {
 233:Serial.c      **** 				SetMode (ComRxCmd [2] - '1');	// map Mode to 0 - 9
 676              		.loc 1 233 0
 677 046a 3138     		subs	r0, r0, #49
 678 046c C0B2     		uxtb	r0, r0
 679 046e FFF7FEFF 		bl	SetMode
 680              	.LVL37:
 234:Serial.c      ****                 LoadFilter (Filter);
 681              		.loc 1 234 0
 682 0472 5F4B     		ldr	r3, .L70+4
 683 0474 1878     		ldrb	r0, [r3]	@ zero_extendqisi2
 684 0476 FFF7FEFF 		bl	LoadFilter
 685              	.LVL38:
  61:Serial.c      ****     char    str[8];
 686              		.loc 1 61 0
 687 047a 0023     		movs	r3, #0
 688 047c AAE0     		b	.L2
 689              	.L18:
 235:Serial.c      ****             }   
 236:Serial.c      **** 			break;
 237:Serial.c      **** 
 238:Serial.c      **** 		case CMD_NB:					// noise blanker mode, extended
 239:Serial.c      **** 			if (GET_CMD)
 690              		.loc 1 239 0
 691 047e 5B4B     		ldr	r3, .L70
 692 0480 9B78     		ldrb	r3, [r3, #2]	@ zero_extendqisi2
 693 0482 3B2B     		cmp	r3, #59
 694 0484 40F0A180 		bne	.L62
 695              	.LVL39:
 240:Serial.c      **** 			{
 241:Serial.c      **** 				sendUsb = 5;
 242:Serial.c      **** 				memcpy (UsbTxBuffer, "NB01;", sendUsb);
 696              		.loc 1 242 0
 697 0488 5C4B     		ldr	r3, .L70+16
 698 048a 664A     		ldr	r2, .L70+56
 699 048c 1068     		ldr	r0, [r2]	@ unaligned
 700 048e 1860     		str	r0, [r3]	@ unaligned
 701 0490 1279     		ldrb	r2, [r2, #4]	@ zero_extendqisi2
 702 0492 1A71     		strb	r2, [r3, #4]
 241:Serial.c      **** 				memcpy (UsbTxBuffer, "NB01;", sendUsb);
ARM GAS  C:\Users\koseki\AppData\Local\Temp\ccHqSQTX.s 			page 18


 703              		.loc 1 241 0
 704 0494 0523     		movs	r3, #5
 705 0496 9DE0     		b	.L2
 706              	.LVL40:
 707              	.L28:
 243:Serial.c      **** 			}
 244:Serial.c      **** #ifdef PSoC3            
 245:Serial.c      **** 			else if (!memcmp (Freq, "10101010", 8))	// special frequency test
 246:Serial.c      **** 				CyBtldr_Load();			// enter USB boot loader mode
 247:Serial.c      **** 			else
 248:Serial.c      **** 			{
 249:Serial.c      **** 				Clock_FracN_SetDividerValue (10);	// unlock and reloack PLL
 250:Serial.c      **** 				CyDelay (100);						// delay in msec
 251:Serial.c      **** 				Clock_FracN_SetDividerValue (9);
 252:Serial.c      **** 			}
 253:Serial.c      **** #endif
 254:Serial.c      ****             break;
 255:Serial.c      **** 
 256:Serial.c      **** 		case CMD_PA:					// rx preamp, always off
 257:Serial.c      **** 			if (GET_CMD)
 708              		.loc 1 257 0
 709 0498 544B     		ldr	r3, .L70
 710 049a 9B78     		ldrb	r3, [r3, #2]	@ zero_extendqisi2
 711 049c 3B2B     		cmp	r3, #59
 712 049e 40F09680 		bne	.L63
 713              	.LVL41:
 258:Serial.c      **** 			{
 259:Serial.c      **** 				sendUsb = 4;
 260:Serial.c      **** 				memcpy (UsbTxBuffer, "PA0;", sendUsb);
 714              		.loc 1 260 0
 715 04a2 614B     		ldr	r3, .L70+60
 716 04a4 1868     		ldr	r0, [r3]	@ unaligned
 717 04a6 554B     		ldr	r3, .L70+16
 718 04a8 1860     		str	r0, [r3]	@ unaligned
 259:Serial.c      **** 				memcpy (UsbTxBuffer, "PA0;", sendUsb);
 719              		.loc 1 259 0
 720 04aa 0423     		movs	r3, #4
 721 04ac 92E0     		b	.L2
 722              	.LVL42:
 723              	.L29:
 261:Serial.c      **** 			}
 262:Serial.c      **** 			break;
 263:Serial.c      **** 
 264:Serial.c      **** 		case CMD_PC:					// power output level
 265:Serial.c      **** 			if (GET_CMD)
 724              		.loc 1 265 0
 725 04ae 4F4B     		ldr	r3, .L70
 726 04b0 9B78     		ldrb	r3, [r3, #2]	@ zero_extendqisi2
 727 04b2 3B2B     		cmp	r3, #59
 728 04b4 40F08D80 		bne	.L64
 729              	.LVL43:
 266:Serial.c      **** 			{
 267:Serial.c      **** 				sendUsb = 7;
 268:Serial.c      **** 				memcpy (UsbTxBuffer, "PC0000;", sendUsb);
 730              		.loc 1 268 0
 731 04b8 504B     		ldr	r3, .L70+16
 732 04ba 5C4A     		ldr	r2, .L70+64
ARM GAS  C:\Users\koseki\AppData\Local\Temp\ccHqSQTX.s 			page 19


 733 04bc 1068     		ldr	r0, [r2]	@ unaligned
 734 04be 1860     		str	r0, [r3]	@ unaligned
 735 04c0 9188     		ldrh	r1, [r2, #4]	@ unaligned
 736 04c2 9279     		ldrb	r2, [r2, #6]	@ zero_extendqisi2
 737 04c4 9980     		strh	r1, [r3, #4]	@ unaligned
 738 04c6 9A71     		strb	r2, [r3, #6]
 267:Serial.c      **** 				memcpy (UsbTxBuffer, "PC0000;", sendUsb);
 739              		.loc 1 267 0
 740 04c8 0723     		movs	r3, #7
 741 04ca 83E0     		b	.L2
 742              	.LVL44:
 743              	.L26:
 269:Serial.c      **** 			}
 270:Serial.c      **** 			break;
 271:Serial.c      **** 
 272:Serial.c      **** 		case CMD_PS:					// radio power status, always on
 273:Serial.c      **** 			sendUsb = 4;
 274:Serial.c      **** 			memcpy (UsbTxBuffer, "PS1;", sendUsb);
 744              		.loc 1 274 0
 745 04cc 584B     		ldr	r3, .L70+68
 746 04ce 1868     		ldr	r0, [r3]	@ unaligned
 747 04d0 4A4B     		ldr	r3, .L70+16
 748 04d2 1860     		str	r0, [r3]	@ unaligned
 273:Serial.c      **** 			memcpy (UsbTxBuffer, "PS1;", sendUsb);
 749              		.loc 1 273 0
 750 04d4 0423     		movs	r3, #4
 275:Serial.c      **** 			break;
 751              		.loc 1 275 0
 752 04d6 7DE0     		b	.L2
 753              	.LVL45:
 754              	.L30:
 276:Serial.c      **** 
 277:Serial.c      **** 		case CMD_RA:					// rx attenuator, 0 = off, 1 = on
 278:Serial.c      **** 			if (GET_CMD)
 755              		.loc 1 278 0
 756 04d8 444B     		ldr	r3, .L70
 757 04da 9B78     		ldrb	r3, [r3, #2]	@ zero_extendqisi2
 758 04dc 3B2B     		cmp	r3, #59
 759 04de 0FD1     		bne	.L46
 760              	.LVL46:
 279:Serial.c      **** 			{
 280:Serial.c      **** 				sendUsb = 5;
 281:Serial.c      **** 				memcpy (UsbTxBuffer, "RA00;", sendUsb);
 761              		.loc 1 281 0
 762 04e0 464B     		ldr	r3, .L70+16
 763 04e2 544A     		ldr	r2, .L70+72
 764 04e4 1068     		ldr	r0, [r2]	@ unaligned
 765 04e6 1860     		str	r0, [r3]	@ unaligned
 766 04e8 1279     		ldrb	r2, [r2, #4]	@ zero_extendqisi2
 767 04ea 1A71     		strb	r2, [r3, #4]
 282:Serial.c      **** 				UsbTxBuffer [3] = (AttenuatorOn) ? '1' : '0';
 768              		.loc 1 282 0
 769 04ec 524B     		ldr	r3, .L70+76
 770 04ee 1B78     		ldrb	r3, [r3]	@ zero_extendqisi2
 771 04f0 0BB1     		cbz	r3, .L65
 772 04f2 3122     		movs	r2, #49
 773 04f4 00E0     		b	.L47
ARM GAS  C:\Users\koseki\AppData\Local\Temp\ccHqSQTX.s 			page 20


 774              	.L65:
 775 04f6 3022     		movs	r2, #48
 776              	.L47:
 777              		.loc 1 282 0 is_stmt 0 discriminator 4
 778 04f8 404B     		ldr	r3, .L70+16
 779 04fa DA70     		strb	r2, [r3, #3]
 280:Serial.c      **** 				memcpy (UsbTxBuffer, "RA00;", sendUsb);
 780              		.loc 1 280 0 is_stmt 1 discriminator 4
 781 04fc 0523     		movs	r3, #5
 782 04fe 69E0     		b	.L2
 783              	.LVL47:
 784              	.L46:
 283:Serial.c      **** 			}
 284:Serial.c      **** 			else
 285:Serial.c      **** 			{
 286:Serial.c      **** 				AttenuatorOn = (ComRxCmd [3] == '1');
 785              		.loc 1 286 0
 786 0500 3A4B     		ldr	r3, .L70
 787 0502 DB78     		ldrb	r3, [r3, #3]	@ zero_extendqisi2
 788 0504 312B     		cmp	r3, #49
 789 0506 14BF     		ite	ne
 790 0508 0023     		movne	r3, #0
 791 050a 0123     		moveq	r3, #1
 792 050c 4A4A     		ldr	r2, .L70+76
 793 050e 1370     		strb	r3, [r2]
 287:Serial.c      **** 				AgcGain = AgcIntegrator = 0;	// mute the input signal during ADC range changes
 794              		.loc 1 287 0
 795 0510 0022     		movs	r2, #0
 796 0512 4A49     		ldr	r1, .L70+80
 797 0514 0A70     		strb	r2, [r1]
 798 0516 4A49     		ldr	r1, .L70+84
 799 0518 0A70     		strb	r2, [r1]
 288:Serial.c      **** 				ADC_SetBufferGain ( (AttenuatorOn) ? 1 : 4 );
 800              		.loc 1 288 0
 801 051a 0BB1     		cbz	r3, .L66
 802 051c 0120     		movs	r0, #1
 803 051e 00E0     		b	.L48
 804              	.L66:
 805 0520 0420     		movs	r0, #4
 806              	.L48:
 807              		.loc 1 288 0 is_stmt 0 discriminator 4
 808 0522 FFF7FEFF 		bl	ADC_SetBufferGain
 809              	.LVL48:
  61:Serial.c      ****     char    str[8];
 810              		.loc 1 61 0 is_stmt 1 discriminator 4
 811 0526 0023     		movs	r3, #0
 812 0528 54E0     		b	.L2
 813              	.L31:
 289:Serial.c      **** 			}	
 290:Serial.c      **** 			break;
 291:Serial.c      **** 							
 292:Serial.c      **** 		case CMD_SQ:					// squelch, 0 2 250.
 293:Serial.c      **** 			if (GET_CMD)
 814              		.loc 1 293 0
 815 052a 304B     		ldr	r3, .L70
 816 052c 9B78     		ldrb	r3, [r3, #2]	@ zero_extendqisi2
 817 052e 3B2B     		cmp	r3, #59
ARM GAS  C:\Users\koseki\AppData\Local\Temp\ccHqSQTX.s 			page 21


 818 0530 21D1     		bne	.L49
 819              	.LVL49:
 294:Serial.c      **** 			{
 295:Serial.c      **** 				sendUsb = 6;
 296:Serial.c      **** 				memcpy (UsbTxBuffer, "SQ000;", sendUsb);
 820              		.loc 1 296 0
 821 0532 3249     		ldr	r1, .L70+16
 822 0534 434B     		ldr	r3, .L70+88
 823 0536 1868     		ldr	r0, [r3]	@ unaligned
 824 0538 0860     		str	r0, [r1]	@ unaligned
 825 053a 9B88     		ldrh	r3, [r3, #4]	@ unaligned
 826 053c 8B80     		strh	r3, [r1, #4]	@ unaligned
 297:Serial.c      **** 				i = Squelch;
 827              		.loc 1 297 0
 828 053e 424B     		ldr	r3, .L70+92
 829 0540 1878     		ldrb	r0, [r3]	@ zero_extendqisi2
 830              	.LVL50:
 298:Serial.c      **** 				UsbTxBuffer [2] = (i / 100) + '0';	// hundreds
 831              		.loc 1 298 0
 832 0542 424A     		ldr	r2, .L70+96
 833 0544 A2FB0032 		umull	r3, r2, r2, r0
 834 0548 5309     		lsrs	r3, r2, #5
 835 054a 03F13002 		add	r2, r3, #48
 836 054e 8A70     		strb	r2, [r1, #2]
 299:Serial.c      **** 				i = i % 100;
 837              		.loc 1 299 0
 838 0550 6422     		movs	r2, #100
 839 0552 02FB1303 		mls	r3, r2, r3, r0
 840 0556 DBB2     		uxtb	r3, r3
 841              	.LVL51:
 300:Serial.c      **** 				UsbTxBuffer [3] = (i / 10) + '0';	// tens
 842              		.loc 1 300 0
 843 0558 3D4A     		ldr	r2, .L70+100
 844 055a A2FB0302 		umull	r0, r2, r2, r3
 845 055e D208     		lsrs	r2, r2, #3
 846 0560 02F13000 		add	r0, r2, #48
 847 0564 C870     		strb	r0, [r1, #3]
 301:Serial.c      **** 				UsbTxBuffer [4] = (i % 10) + '0';	// units
 848              		.loc 1 301 0
 849 0566 02EB8202 		add	r2, r2, r2, lsl #2
 850 056a A3EB4203 		sub	r3, r3, r2, lsl #1
 851              	.LVL52:
 852 056e 3033     		adds	r3, r3, #48
 853 0570 0B71     		strb	r3, [r1, #4]
 295:Serial.c      **** 				memcpy (UsbTxBuffer, "SQ000;", sendUsb);
 854              		.loc 1 295 0
 855 0572 0623     		movs	r3, #6
 856 0574 2EE0     		b	.L2
 857              	.LVL53:
 858              	.L49:
 302:Serial.c      **** 			}
 303:Serial.c      **** 			else
 304:Serial.c      **** 			{
 305:Serial.c      **** 				Squelch = 100 * (ComRxCmd [2] - '0');
 859              		.loc 1 305 0
 860 0576 303B     		subs	r3, r3, #48
 861 0578 03EB8303 		add	r3, r3, r3, lsl #2
ARM GAS  C:\Users\koseki\AppData\Local\Temp\ccHqSQTX.s 			page 22


 862 057c 03EB8303 		add	r3, r3, r3, lsl #2
 863 0580 9B00     		lsls	r3, r3, #2
 864 0582 DAB2     		uxtb	r2, r3
 306:Serial.c      **** 				Squelch += 10 * (ComRxCmd [3] - '0');
 865              		.loc 1 306 0
 866 0584 1949     		ldr	r1, .L70
 867 0586 CB78     		ldrb	r3, [r1, #3]	@ zero_extendqisi2
 868 0588 303B     		subs	r3, r3, #48
 869 058a 03EB8303 		add	r3, r3, r3, lsl #2
 870 058e 02EB4303 		add	r3, r2, r3, lsl #1
 871 0592 DBB2     		uxtb	r3, r3
 307:Serial.c      **** 				Squelch += ComRxCmd [4] - '0';
 872              		.loc 1 307 0
 873 0594 0A79     		ldrb	r2, [r1, #4]	@ zero_extendqisi2
 874 0596 1344     		add	r3, r3, r2
 875 0598 303B     		subs	r3, r3, #48
 876 059a 2B4A     		ldr	r2, .L70+92
 877 059c 1370     		strb	r3, [r2]
  61:Serial.c      ****     char    str[8];
 878              		.loc 1 61 0
 879 059e 0023     		movs	r3, #0
 880 05a0 18E0     		b	.L2
 881              	.L51:
 882 05a2 0023     		movs	r3, #0
 883 05a4 16E0     		b	.L2
 884              	.L52:
 885 05a6 0023     		movs	r3, #0
 886 05a8 14E0     		b	.L2
 887              	.L53:
 888 05aa 0023     		movs	r3, #0
 889 05ac 12E0     		b	.L2
 890              	.L54:
 891 05ae 0023     		movs	r3, #0
 892 05b0 10E0     		b	.L2
 893              	.L55:
 894 05b2 0023     		movs	r3, #0
 895 05b4 0EE0     		b	.L2
 896              	.L56:
 897 05b6 0023     		movs	r3, #0
 898 05b8 0CE0     		b	.L2
 899              	.LVL54:
 900              	.L57:
 152:Serial.c      **** 				if (Filter == FILTER_FL1)
 901              		.loc 1 152 0
 902 05ba 0923     		movs	r3, #9
 903 05bc 0AE0     		b	.L2
 904              	.LVL55:
 905              	.L59:
  61:Serial.c      ****     char    str[8];
 906              		.loc 1 61 0
 907 05be 0023     		movs	r3, #0
 908 05c0 08E0     		b	.L2
 909              	.L60:
 910 05c2 0023     		movs	r3, #0
 911 05c4 06E0     		b	.L2
 912              	.L61:
 913 05c6 0023     		movs	r3, #0
ARM GAS  C:\Users\koseki\AppData\Local\Temp\ccHqSQTX.s 			page 23


 914 05c8 04E0     		b	.L2
 915              	.L62:
 916 05ca 0023     		movs	r3, #0
 917 05cc 02E0     		b	.L2
 918              	.L63:
 919 05ce 0023     		movs	r3, #0
 920 05d0 00E0     		b	.L2
 921              	.L64:
 922 05d2 0023     		movs	r3, #0
 923              	.LVL56:
 924              	.L2:
 308:Serial.c      **** 			}
 309:Serial.c      **** 			break;
 310:Serial.c      **** 	}
 311:Serial.c      **** 
 312:Serial.c      **** 	if (sendUsb)
 925              		.loc 1 312 0
 926 05d4 3BB1     		cbz	r3, .L1
 313:Serial.c      **** 	{
 314:Serial.c      **** #ifdef PSoC3 // original code
 315:Serial.c      **** 		USBUART_Write(UsbTxBuffer, sendUsb);	// send response
 316:Serial.c      **** #else
 317:Serial.c      ****         UsbTxBuffer [sendUsb] = '\0';   // 2017.11.4(koseki)
 927              		.loc 1 317 0
 928 05d6 0948     		ldr	r0, .L70+16
 929 05d8 0022     		movs	r2, #0
 930 05da C254     		strb	r2, [r0, r3]
 318:Serial.c      ****         putstr((char*)UsbTxBuffer);
 931              		.loc 1 318 0
 932 05dc FFF7FEFF 		bl	putstr
 933              	.LVL57:
 319:Serial.c      ****         putch('\n');
 934              		.loc 1 319 0
 935 05e0 0A20     		movs	r0, #10
 936 05e2 FFF7FEFF 		bl	putch
 937              	.LVL58:
 938              	.L1:
 320:Serial.c      **** #endif
 321:Serial.c      ****     }
 322:Serial.c      **** }
 939              		.loc 1 322 0
 940 05e6 03B0     		add	sp, sp, #12
 941              		.cfi_def_cfa_offset 20
 942              		@ sp needed
 943 05e8 F0BD     		pop	{r4, r5, r6, r7, pc}
 944              	.L71:
 945 05ea 00BF     		.align	2
 946              	.L70:
 947 05ec 00000000 		.word	ComRxCmd
 948 05f0 00000000 		.word	Filter
 949 05f4 00000000 		.word	AgcTimeConstant
 950 05f8 A0000000 		.word	.LC15
 951 05fc 00000000 		.word	UsbTxBuffer
 952 0600 00000000 		.word	AgcDisable
 953 0604 AC000000 		.word	.LC16
 954 0608 B4000000 		.word	.LC17
 955 060c 00000000 		.word	Freq
ARM GAS  C:\Users\koseki\AppData\Local\Temp\ccHqSQTX.s 			page 24


 956 0610 D8000000 		.word	.LC18
 957 0614 E0000000 		.word	.LC19
 958 0618 E8000000 		.word	.LC20
 959 061c F0000000 		.word	.LC21
 960 0620 00000000 		.word	Mode
 961 0624 F8000000 		.word	.LC22
 962 0628 00010000 		.word	.LC23
 963 062c 08010000 		.word	.LC24
 964 0630 10010000 		.word	.LC25
 965 0634 18010000 		.word	.LC26
 966 0638 00000000 		.word	AttenuatorOn
 967 063c 00000000 		.word	AgcIntegrator
 968 0640 00000000 		.word	AgcGain
 969 0644 20010000 		.word	.LC27
 970 0648 00000000 		.word	Squelch
 971 064c 1F85EB51 		.word	1374389535
 972 0650 CDCCCCCC 		.word	-858993459
 973              		.cfi_endproc
 974              	.LFE64:
 975              		.size	ProcessComRx, .-ProcessComRx
 976              		.section	.rodata.str1.4,"aMS",%progbits,1
 977              		.align	2
 978              	.LC0:
 979 0000 4149303B 		.ascii	"AI0;\000"
 979      00
 980 0005 000000   		.space	3
 981              	.LC1:
 982 0008 414E313B 		.ascii	"AN1;\000"
 982      00
 983 000d 000000   		.space	3
 984              	.LC2:
 985 0010 42473132 		.ascii	"BG12;\000"
 985      3B00
 986 0016 0000     		.space	2
 987              	.LC3:
 988 0018 4453483A 		.ascii	"DSH:S 0000\000"
 988      53203030 
 988      303000
 989 0023 00       		.space	1
 990              	.LC4:
 991 0024 4453534E 		.ascii	"DSSN \000"
 991      2000
 992 002a 0000     		.space	2
 993              	.LC5:
 994 002c 44534652 		.ascii	"DSFR \000"
 994      2000
 995 0032 0000     		.space	2
 996              	.LC6:
 997 0034 46413030 		.ascii	"FA00000000000;\000"
 997      30303030 
 997      30303030 
 997      303B00
 998 0043 00       		.space	1
 999              	.LC7:
 1000 0044 46423030 		.ascii	"FB00000000000;\000"
 1000      30303030 
 1000      30303030 
ARM GAS  C:\Users\koseki\AppData\Local\Temp\ccHqSQTX.s 			page 25


 1000      303B00
 1001 0053 00       		.space	1
 1002              	.LC8:
 1003 0054 4652303B 		.ascii	"FR0;\000"
 1003      00
 1004 0059 000000   		.space	3
 1005              	.LC9:
 1006 005c 4654303B 		.ascii	"FT0;\000"
 1006      00
 1007 0061 000000   		.space	3
 1008              	.LC10:
 1009 0064 46573235 		.ascii	"FW250010;\000"
 1009      30303130 
 1009      3B00
 1010 006e 0000     		.space	2
 1011              	.LC11:
 1012 0070 46573230 		.ascii	"FW200020;\000"
 1012      30303230 
 1012      3B00
 1013 007a 0000     		.space	2
 1014              	.LC12:
 1015 007c 46573135 		.ascii	"FW150030;\000"
 1015      30303330 
 1015      3B00
 1016 0086 0000     		.space	2
 1017              	.LC13:
 1018 0088 46573130 		.ascii	"FW100040;\000"
 1018      30303430 
 1018      3B00
 1019 0092 0000     		.space	2
 1020              	.LC14:
 1021 0094 46573338 		.ascii	"FW380050;\000"
 1021      30303530 
 1021      3B00
 1022 009e 0000     		.space	2
 1023              	.LC15:
 1024 00a0 47542530 		.ascii	"GT%03d0;\000"
 1024      3364303B 
 1024      00
 1025 00a9 000000   		.space	3
 1026              	.LC16:
 1027 00ac 49443031 		.ascii	"ID017;\000"
 1027      373B00
 1028 00b3 00       		.space	1
 1029              	.LC17:
 1030 00b4 49463030 		.ascii	"IF00000000000     +00000001000001 ;\000"
 1030      30303030 
 1030      30303030 
 1030      30202020 
 1030      20202B30 
 1031              	.LC18:
 1032 00d8 4B32323B 		.ascii	"K22;\000"
 1032      00
 1033 00dd 000000   		.space	3
 1034              	.LC19:
 1035 00e0 4B533030 		.ascii	"KS009;\000"
 1035      393B00
ARM GAS  C:\Users\koseki\AppData\Local\Temp\ccHqSQTX.s 			page 26


 1036 00e7 00       		.space	1
 1037              	.LC20:
 1038 00e8 4C4B303B 		.ascii	"LK0;\000"
 1038      00
 1039 00ed 000000   		.space	3
 1040              	.LC21:
 1041 00f0 4D44313B 		.ascii	"MD1;\000"
 1041      00
 1042 00f5 000000   		.space	3
 1043              	.LC22:
 1044 00f8 4E423031 		.ascii	"NB01;\000"
 1044      3B00
 1045 00fe 0000     		.space	2
 1046              	.LC23:
 1047 0100 5041303B 		.ascii	"PA0;\000"
 1047      00
 1048 0105 000000   		.space	3
 1049              	.LC24:
 1050 0108 50433030 		.ascii	"PC0000;\000"
 1050      30303B00 
 1051              	.LC25:
 1052 0110 5053313B 		.ascii	"PS1;\000"
 1052      00
 1053 0115 000000   		.space	3
 1054              	.LC26:
 1055 0118 52413030 		.ascii	"RA00;\000"
 1055      3B00
 1056 011e 0000     		.space	2
 1057              	.LC27:
 1058 0120 53513030 		.ascii	"SQ000;\000"
 1058      303B00
 1059              		.text
 1060              	.Letext0:
 1061              		.file 2 "c:\\program files (x86)\\cypress\\psoc creator\\4.2\\psoc creator\\import\\gnu\\arm\\5.4.
 1062              		.file 3 "c:\\program files (x86)\\cypress\\psoc creator\\4.2\\psoc creator\\import\\gnu\\arm\\5.4.
 1063              		.file 4 "Generated_Source\\PSoC5/cytypes.h"
 1064              		.file 5 "Generated_Source\\PSoC5/core_cm3.h"
 1065              		.file 6 "main.h"
 1066              		.file 7 "c:\\program files (x86)\\cypress\\psoc creator\\4.2\\psoc creator\\import\\gnu\\arm\\5.4.
 1067              		.file 8 "Generated_Source\\PSoC5/ADC.h"
 1068              		.file 9 "USBUART_FIFO.h"