ARM GAS  C:\Users\koseki\AppData\Local\Temp\ccMyT5GO.s 			page 1


   1              		.syntax unified
   2              		.cpu cortex-m3
   3              		.fpu softvfp
   4              		.eabi_attribute 20, 1
   5              		.eabi_attribute 21, 1
   6              		.eabi_attribute 23, 3
   7              		.eabi_attribute 24, 1
   8              		.eabi_attribute 25, 1
   9              		.eabi_attribute 26, 1
  10              		.eabi_attribute 30, 1
  11              		.eabi_attribute 34, 1
  12              		.eabi_attribute 18, 4
  13              		.thumb
  14              		.syntax unified
  15              		.file	"si5351.c"
  16              		.text
  17              	.Ltext0:
  18              		.cfi_sections	.debug_frame
  19              		.global	__aeabi_uldivmod
  20              		.section	.text.pll_calc,"ax",%progbits
  21              		.align	2
  22              		.thumb
  23              		.thumb_func
  24              		.type	pll_calc, %function
  25              	pll_calc:
  26              	.LFB5:
  27              		.file 1 "si5351.c"
   1:si5351.c      **** /*
   2:si5351.c      ****  * si5351.c - Generic Si5351A3 library
   3:si5351.c      ****  *
   4:si5351.c      ****  * Copyright (C) 2014 Jason Milldrum <milldrum@gmail.com>
   5:si5351.c      ****  * Copyright 2015, Dana H. Myers <k6jq@comcast.net>
   6:si5351.c      ****  *
   7:si5351.c      ****  * Extensive re-factoring 25 Jan 2015:
   8:si5351.c      ****  *  - Merged multisynth_calc() into a single function that takes a PLL
   9:si5351.c      ****  *    frequency parameter and an integer division flag. Single function
  10:si5351.c      ****  *    can calculate maximum precision, reduced jitter, or re-calculate.
  11:si5351.c      ****  *
  12:si5351.c      ****  *  - si5351_init() takes reference correction and calculates corrected
  13:si5351.c      ****  *    reference once. Also take load capacitance parameter. Initialization
  14:si5351.c      ****  *    simulates power-on reset by clearing all registers.
  15:si5351.c      ****  *
  16:si5351.c      ****  *  - si5351_calibration_mode() switches pass-through of reference to CLK0
  17:si5351.c      ****  *    output to permit direct measurement of reference
  18:si5351.c      ****  *
  19:si5351.c      ****  *  - Various enhancement; eliminate floating-point use, do_div() macro
  20:si5351.c      ****  *    malloc() use, eliminates unused headers
  21:si5351.c      ****  *
  22:si5351.c      ****  * This program is free software: you can redistribute it and/or modify
  23:si5351.c      ****  * it under the terms of the GNU General Public License as published by
  24:si5351.c      ****  * the Free Software Foundation, either version 3 of the License, or
  25:si5351.c      ****  * (at your option) any later version.
  26:si5351.c      ****  *
  27:si5351.c      ****  * This program is distributed in the hope that it will be useful,
  28:si5351.c      ****  * but WITHOUT ANY WARRANTY; without even the implied warranty of
  29:si5351.c      ****  * MERCHANTABILITY or FITNESS FOR A PARTICULAR PURPOSE.  See the
  30:si5351.c      ****  * GNU General Public License for more details.
ARM GAS  C:\Users\koseki\AppData\Local\Temp\ccMyT5GO.s 			page 2


  31:si5351.c      ****  *
  32:si5351.c      ****  * You should have received a copy of the GNU General Public License
  33:si5351.c      ****  * along with this program.  If not, see <http://www.gnu.org/licenses/>.
  34:si5351.c      ****  */
  35:si5351.c      **** 
  36:si5351.c      **** //#include <stddef.h>
  37:si5351.c      **** //#include <stdint.h>
  38:si5351.c      **** #include "si5351.h"
  39:si5351.c      **** 
  40:si5351.c      **** #define RFRAC_DENOM ((1L << 20) - 1)
  41:si5351.c      **** 
  42:si5351.c      **** static int32_t pll_calc(int32_t, uint8_t *);
  43:si5351.c      **** static int32_t multisynth_calc(int32_t, int32_t, uint8_t *, uint8_t *);
  44:si5351.c      **** 
  45:si5351.c      **** int32_t	plla_freq, pllb_freq;
  46:si5351.c      **** int32_t    freq_ref;
  47:si5351.c      **** uint8_t clock_control[8];
  48:si5351.c      **** 
  49:si5351.c      **** /*
  50:si5351.c      ****  * n_si5351_init
  51:si5351.c      ****  */
  52:si5351.c      **** void si5351_init(int32_t freq_xtal, int32_t xtal_correction, int load_cap)
  53:si5351.c      **** {
  54:si5351.c      ****     int clock;
  55:si5351.c      **** 
  56:si5351.c      ****     /*
  57:si5351.c      ****      * Wait for system init completion - occurs after power-up
  58:si5351.c      ****      */
  59:si5351.c      ****     while (SI5351_READ_BYTE(SI5351_DEVICE_STATUS) & SI5351_STATUS_SYS_INIT)
  60:si5351.c      ****         ;
  61:si5351.c      ****     
  62:si5351.c      ****     SI5351_WRITE_BYTE(SI5351_OUTPUT_ENABLE_CTRL, 0xFF);
  63:si5351.c      ****     SI5351_WRITE_BYTE(SI5351_CRYSTAL_LOAD, load_cap | 0x12);
  64:si5351.c      ****     
  65:si5351.c      ****     /* Disable and power-down clock outputs */
  66:si5351.c      ****     clock_control[0] = SI5351_CLK_INPUT_MULTISYNTH_N;
  67:si5351.c      ****     clock_control[1] = SI5351_CLK_INPUT_MULTISYNTH_N | SI5351_CLK_PLL_SELECT;
  68:si5351.c      ****     clock_control[2] = SI5351_CLK_INPUT_MULTISYNTH_N | SI5351_CLK_PLL_SELECT;
  69:si5351.c      ****     
  70:si5351.c      ****     for (clock = SI5351_CLK0; clock <= SI5351_CLK7; clock++)
  71:si5351.c      ****         si5351_clock_enable(clock, 0);
  72:si5351.c      **** 
  73:si5351.c      ****     /* Calculated corrected reference frequency */
  74:si5351.c      ****     /* xtal_correction is Measured in parts-per-ten million */
  75:si5351.c      ****     freq_ref = freq_xtal + (int32_t)((((((int64_t)xtal_correction) << 31) /
  76:si5351.c      ****       10000000LL) * freq_xtal) >> 31);
  77:si5351.c      **** }
  78:si5351.c      **** 
  79:si5351.c      **** // get frequency
  80:si5351.c      **** 
  81:si5351.c      **** /*
  82:si5351.c      ****  * Calibration mode for the crystal
  83:si5351.c      ****  * enabled: XTAL output appears on CLK0 output
  84:si5351.c      ****  * disable: multisynth output appears on CLK0 output
  85:si5351.c      ****  * note that CLK0 must be enabled, too
  86:si5351.c      ****  */
  87:si5351.c      **** void si5351_calibration_mode(int enable)
ARM GAS  C:\Users\koseki\AppData\Local\Temp\ccMyT5GO.s 			page 3


  88:si5351.c      **** {
  89:si5351.c      ****     
  90:si5351.c      ****     if (enable) {
  91:si5351.c      ****         SI5351_WRITE_BYTE(SI5351_FANOUT_ENABLE,
  92:si5351.c      ****           SI5351_READ_BYTE(SI5351_FANOUT_ENABLE) | SI5351_XTAL_ENABLE);
  93:si5351.c      ****         SI5351_WRITE_BYTE(SI5351_CLK0_CTRL,
  94:si5351.c      ****           (SI5351_READ_BYTE(SI5351_CLK0_CTRL) & ~SI5351_CLK_INPUT_MASK) |
  95:si5351.c      ****           SI5351_CLK_INPUT_XTAL);
  96:si5351.c      ****     } else {
  97:si5351.c      ****         SI5351_WRITE_BYTE(SI5351_CLK0_CTRL,
  98:si5351.c      ****           (SI5351_READ_BYTE(SI5351_CLK0_CTRL) & ~SI5351_CLK_INPUT_MASK) |
  99:si5351.c      ****           SI5351_CLK_INPUT_MULTISYNTH_N);
 100:si5351.c      ****         SI5351_WRITE_BYTE(SI5351_FANOUT_ENABLE,
 101:si5351.c      ****           SI5351_READ_BYTE(SI5351_FANOUT_ENABLE) & ~SI5351_XTAL_ENABLE);
 102:si5351.c      ****     }
 103:si5351.c      **** }
 104:si5351.c      **** 
 105:si5351.c      **** /*
 106:si5351.c      ****  * si5351_clock_enable(enum si5351_clock clk, uint8_t enable)
 107:si5351.c      ****  *
 108:si5351.c      ****  * Enable or disable a chosen clock
 109:si5351.c      ****  * clk - Clock output
 110:si5351.c      ****  *   (use the si5351_clock enum)
 111:si5351.c      ****  * enable - Set to 1 to enable, 0 to disable
 112:si5351.c      ****  */
 113:si5351.c      **** void si5351_clock_enable(enum si5351_clock clk, int enable)
 114:si5351.c      **** {
 115:si5351.c      ****     uint8_t reg_val;
 116:si5351.c      **** 
 117:si5351.c      ****     reg_val = SI5351_READ_BYTE(SI5351_OUTPUT_ENABLE_CTRL) |
 118:si5351.c      ****       (1 << (uint8_t)clk);
 119:si5351.c      **** 
 120:si5351.c      ****     if (enable) {
 121:si5351.c      ****         reg_val &= ~(1<<(uint8_t)clk);
 122:si5351.c      ****     }
 123:si5351.c      ****     SI5351_WRITE_BYTE(SI5351_OUTPUT_ENABLE_CTRL, reg_val);
 124:si5351.c      ****     
 125:si5351.c      ****     if (enable) {
 126:si5351.c      ****         clock_control[clk] &= ~SI5351_CLK_POWERDOWN;
 127:si5351.c      ****     } else {
 128:si5351.c      ****         clock_control[clk] |= SI5351_CLK_POWERDOWN;
 129:si5351.c      ****     }
 130:si5351.c      ****     
 131:si5351.c      ****     SI5351_WRITE_BYTE(SI5351_CLK0_CTRL + (uint8_t)clk, clock_control[clk]);
 132:si5351.c      **** }
 133:si5351.c      **** 
 134:si5351.c      **** /*
 135:si5351.c      ****  * si5351_drive_strength(enum si5351_clock clk, enum si5351_drive drive)
 136:si5351.c      ****  *
 137:si5351.c      ****  * Sets the drive strength of the specified clock output
 138:si5351.c      ****  *
 139:si5351.c      ****  * clk - Clock output
 140:si5351.c      ****  *   (use the si5351_clock enum)
 141:si5351.c      ****  * drive - Desired drive level
 142:si5351.c      ****  *   (use the si5351_drive enum)
 143:si5351.c      ****  */
 144:si5351.c      **** void si5351_drive_strength(enum si5351_clock clk, enum si5351_drive drive)
ARM GAS  C:\Users\koseki\AppData\Local\Temp\ccMyT5GO.s 			page 4


 145:si5351.c      **** {
 146:si5351.c      **** 
 147:si5351.c      ****     clock_control[clk] &= ~SI5351_CLK_DRIVE_STRENGTH_MASK;
 148:si5351.c      **** 
 149:si5351.c      ****     switch(drive) {
 150:si5351.c      ****     case SI5351_DRIVE_2MA:
 151:si5351.c      ****         clock_control[clk] |= SI5351_CLK_DRIVE_STRENGTH_2MA;
 152:si5351.c      ****         break;
 153:si5351.c      ****     case SI5351_DRIVE_4MA:
 154:si5351.c      ****         clock_control[clk] |= SI5351_CLK_DRIVE_STRENGTH_4MA;
 155:si5351.c      ****         break;
 156:si5351.c      ****     case SI5351_DRIVE_6MA:
 157:si5351.c      ****         clock_control[clk] |= SI5351_CLK_DRIVE_STRENGTH_6MA;
 158:si5351.c      ****         break;
 159:si5351.c      ****     case SI5351_DRIVE_8MA:
 160:si5351.c      ****         clock_control[clk] |= SI5351_CLK_DRIVE_STRENGTH_8MA;
 161:si5351.c      ****         break;
 162:si5351.c      ****     }
 163:si5351.c      **** 
 164:si5351.c      ****     SI5351_WRITE_BYTE(SI5351_CLK0_CTRL + (uint8_t)clk, clock_control[clk]);
 165:si5351.c      **** }
 166:si5351.c      **** 
 167:si5351.c      **** /*
 168:si5351.c      ****  * 
 169:si5351.c      ****  */
 170:si5351.c      **** int32_t si5351_set_frequency(int32_t freq, int32_t pll_freq,
 171:si5351.c      ****   enum si5351_clock clock, int reset)
 172:si5351.c      **** {
 173:si5351.c      ****     uint8_t clk_ctrl, pllregs[8], msregs[8];
 174:si5351.c      ****     int addr = SI5351_PLLA_PARAMETERS;
 175:si5351.c      ****     int pll_prog = SI5351_PLLA;
 176:si5351.c      ****     int program_pll = 0;
 177:si5351.c      ****     
 178:si5351.c      ****     /*
 179:si5351.c      ****      * if pll_freq == 0, let multisynth_calc() pick the PLL frequency
 180:si5351.c      ****      */
 181:si5351.c      ****     pll_freq = multisynth_calc(freq, pll_freq, &clk_ctrl, msregs);
 182:si5351.c      ****     
 183:si5351.c      ****      /*
 184:si5351.c      ****       * select PLL
 185:si5351.c      ****       */
 186:si5351.c      ****     switch (clock) {
 187:si5351.c      ****     case SI5351_CLK0:
 188:si5351.c      ****         pll_prog = SI5351_PLLA;
 189:si5351.c      ****         program_pll = (plla_freq != pll_freq);
 190:si5351.c      ****         break;
 191:si5351.c      ****     /* CLK1 and CLK2 share PLLB; first programmed sets PLL freq */
 192:si5351.c      ****     case SI5351_CLK1:
 193:si5351.c      ****     case SI5351_CLK2:
 194:si5351.c      ****         pll_prog = SI5351_PLLB;
 195:si5351.c      ****         if (pllb_freq != 0) {
 196:si5351.c      ****             pll_freq = multisynth_calc(freq, pllb_freq, &clk_ctrl, msregs);
 197:si5351.c      ****         } else {
 198:si5351.c      ****             program_pll = 1;
 199:si5351.c      ****         }
 200:si5351.c      ****         break;
 201:si5351.c      ****     default:
ARM GAS  C:\Users\koseki\AppData\Local\Temp\ccMyT5GO.s 			page 5


 202:si5351.c      ****         /* XXX: */
 203:si5351.c      ****         break;
 204:si5351.c      ****     }
 205:si5351.c      **** 
 206:si5351.c      ****     if (pll_freq < 0) {
 207:si5351.c      ****         return (pll_freq);
 208:si5351.c      ****     }
 209:si5351.c      ****     
 210:si5351.c      ****     if (program_pll) {
 211:si5351.c      ****         pll_freq = pll_calc(pll_freq, pllregs);
 212:si5351.c      ****         /* keep track of PLL programming */
 213:si5351.c      ****         switch (pll_prog) {
 214:si5351.c      ****         case SI5351_PLLA:
 215:si5351.c      ****             plla_freq = pll_freq;
 216:si5351.c      ****             addr = SI5351_PLLA_PARAMETERS;
 217:si5351.c      ****             break;
 218:si5351.c      ****         case SI5351_PLLB:
 219:si5351.c      ****             pllb_freq = pll_freq;
 220:si5351.c      ****             addr = SI5351_PLLB_PARAMETERS;
 221:si5351.c      ****             break;
 222:si5351.c      ****         } 
 223:si5351.c      **** 
 224:si5351.c      ****         if (pll_freq < 0) {
 225:si5351.c      ****             return (pll_freq);
 226:si5351.c      ****         }
 227:si5351.c      ****     }
 228:si5351.c      ****     
 229:si5351.c      ****     clock_control[clock] = (clock_control[clock] &
 230:si5351.c      ****       ~SI5351_CLK_INTEGER_MODE) | clk_ctrl;
 231:si5351.c      ****     SI5351_WRITE_BYTE(SI5351_CLK0_CTRL + clock, clock_control[clock]);
 232:si5351.c      ****     if (program_pll) {
 233:si5351.c      ****         SI5351_WRITE_XFER(addr, (uint8_t *) pllregs, 8);
 234:si5351.c      ****     }
 235:si5351.c      ****     SI5351_WRITE_XFER(SI5351_CLK0_PARAMETERS + clock * 8, (uint8_t *) msregs, 8);
 236:si5351.c      ****     if (reset) {
 237:si5351.c      ****         SI5351_WRITE_BYTE(177, 0xac);
 238:si5351.c      ****     }
 239:si5351.c      ****     
 240:si5351.c      ****     return (pll_freq);
 241:si5351.c      **** }
 242:si5351.c      **** 
 243:si5351.c      **** static int32_t pll_calc(int32_t freq, uint8_t *regs)
 244:si5351.c      **** {
  28              		.loc 1 244 0
  29              		.cfi_startproc
  30              		@ args = 0, pretend = 0, frame = 0
  31              		@ frame_needed = 0, uses_anonymous_args = 0
  32              	.LVL0:
  33 0000 2DE9F843 		push	{r3, r4, r5, r6, r7, r8, r9, lr}
  34              		.cfi_def_cfa_offset 32
  35              		.cfi_offset 3, -32
  36              		.cfi_offset 4, -28
  37              		.cfi_offset 5, -24
  38              		.cfi_offset 6, -20
  39              		.cfi_offset 7, -16
  40              		.cfi_offset 8, -12
  41              		.cfi_offset 9, -8
ARM GAS  C:\Users\koseki\AppData\Local\Temp\ccMyT5GO.s 			page 6


  42              		.cfi_offset 14, -4
 245:si5351.c      ****     uint32_t a, b, c;
 246:si5351.c      ****     uint32_t p1, p2, p3;
 247:si5351.c      **** 
 248:si5351.c      ****     /* Determine integer part of feedback equation */
 249:si5351.c      ****     a = freq / freq_ref;
  43              		.loc 1 249 0
  44 0004 294B     		ldr	r3, .L7
  45 0006 1A68     		ldr	r2, [r3]
  46 0008 90FBF2F5 		sdiv	r5, r0, r2
  47              	.LVL1:
 250:si5351.c      ****     if ((a < SI5351_PLL_A_MIN) || (a > SI5351_PLL_A_MAX)) {
  48              		.loc 1 250 0
  49 000c A5F10F03 		sub	r3, r5, #15
  50 0010 4B2B     		cmp	r3, #75
  51 0012 47D8     		bhi	.L4
  52 0014 0C46     		mov	r4, r1
 251:si5351.c      ****         return (-1);
 252:si5351.c      ****     }
 253:si5351.c      **** 
 254:si5351.c      ****     b = (((uint64_t)(freq % freq_ref)) * RFRAC_DENOM) / freq_ref;
  53              		.loc 1 254 0
  54 0016 02FB1500 		mls	r0, r2, r5, r0
  55              	.LVL2:
  56 001a 8046     		mov	r8, r0
  57 001c 4FEAE079 		asr	r9, r0, #31
  58 0020 4FEA0953 		lsl	r3, r9, #20
  59 0024 0605     		lsls	r6, r0, #20
  60 0026 43EA1037 		orr	r7, r3, r0, lsr #12
  61 002a D317     		asrs	r3, r2, #31
  62 002c B6EB0800 		subs	r0, r6, r8
  63 0030 67EB0901 		sbc	r1, r7, r9
  64              	.LVL3:
  65 0034 FFF7FEFF 		bl	__aeabi_uldivmod
  66              	.LVL4:
 255:si5351.c      ****     c = b ? RFRAC_DENOM : 1;
  67              		.loc 1 255 0
  68 0038 08B1     		cbz	r0, .L5
  69 003a 1D4A     		ldr	r2, .L7+4
  70 003c 00E0     		b	.L3
  71              	.L5:
  72 003e 0122     		movs	r2, #1
  73              	.L3:
  74              	.LVL5:
 256:si5351.c      **** #if 0
 257:si5351.c      ****     if ((b > 0) && (a == SI5351_PLL_A_MAX)) {
 258:si5351.c      ****         return (-1);
 259:si5351.c      ****     }
 260:si5351.c      **** #endif
 261:si5351.c      **** 
 262:si5351.c      ****     p1 = 128 * a + ((128 * b) / c) - 512;
  75              		.loc 1 262 0 discriminator 4
  76 0040 C701     		lsls	r7, r0, #7
  77 0042 B7FBF2F3 		udiv	r3, r7, r2
  78 0046 03EBC516 		add	r6, r3, r5, lsl #7
  79 004a A6F50076 		sub	r6, r6, #512
  80              	.LVL6:
ARM GAS  C:\Users\koseki\AppData\Local\Temp\ccMyT5GO.s 			page 7


 263:si5351.c      ****     p2 = 128 * b - c * ((128 * b) / c);
  81              		.loc 1 263 0 discriminator 4
  82 004e 02FB1373 		mls	r3, r2, r3, r7
  83              	.LVL7:
 264:si5351.c      ****     p3 = c;
 265:si5351.c      ****     
 266:si5351.c      ****     /* Registers 26-27 */
 267:si5351.c      ****     regs[0] = (uint8_t) (p3 >> 8);
  84              		.loc 1 267 0 discriminator 4
  85 0052 C2F30727 		ubfx	r7, r2, #8, #8
  86 0056 2770     		strb	r7, [r4]
 268:si5351.c      ****     regs[1] = (uint8_t) p3;
  87              		.loc 1 268 0 discriminator 4
  88 0058 6270     		strb	r2, [r4, #1]
 269:si5351.c      **** 
 270:si5351.c      ****     /* Register 28 */
 271:si5351.c      ****     regs[2] = (uint8_t) ((p1 >> 16) & 0x03);
  89              		.loc 1 271 0 discriminator 4
  90 005a C6F30147 		ubfx	r7, r6, #16, #2
  91 005e A770     		strb	r7, [r4, #2]
 272:si5351.c      **** 
 273:si5351.c      ****     /* Registers 29-30 */
 274:si5351.c      ****     regs[3] = (uint8_t) (p1 >> 8);
  92              		.loc 1 274 0 discriminator 4
  93 0060 C6F30727 		ubfx	r7, r6, #8, #8
  94 0064 E770     		strb	r7, [r4, #3]
 275:si5351.c      ****     regs[4] = (uint8_t) p1;
  95              		.loc 1 275 0 discriminator 4
  96 0066 2671     		strb	r6, [r4, #4]
 276:si5351.c      **** 
 277:si5351.c      ****     /* Register 31 */
 278:si5351.c      ****     regs[5] = ((uint8_t) ((p3 >> 12) & 0xF0)) |
  97              		.loc 1 278 0 discriminator 4
  98 0068 160B     		lsrs	r6, r2, #12
  99              	.LVL8:
 100 006a 26F00F07 		bic	r7, r6, #15
 101 006e C3F30346 		ubfx	r6, r3, #16, #4
 102 0072 3E43     		orrs	r6, r6, r7
 103 0074 6671     		strb	r6, [r4, #5]
 279:si5351.c      ****       ((uint8_t) ((p2 >> 16) & 0x0F));
 280:si5351.c      **** 
 281:si5351.c      ****     /* Registers 32-33 */
 282:si5351.c      ****     regs[6] = (uint8_t) (p2 >> 8);
 104              		.loc 1 282 0 discriminator 4
 105 0076 C3F30726 		ubfx	r6, r3, #8, #8
 106 007a A671     		strb	r6, [r4, #6]
 283:si5351.c      ****     regs[7] = (uint8_t) p2;
 107              		.loc 1 283 0 discriminator 4
 108 007c E371     		strb	r3, [r4, #7]
 284:si5351.c      **** 
 285:si5351.c      ****     
 286:si5351.c      ****     /* avoid loss of precision here */
 287:si5351.c      ****     freq = a * freq_ref + (((uint64_t)b) * freq_ref) / c;
 109              		.loc 1 287 0 discriminator 4
 110 007e 0B4B     		ldr	r3, .L7
 111              	.LVL9:
 112 0080 1B68     		ldr	r3, [r3]
ARM GAS  C:\Users\koseki\AppData\Local\Temp\ccMyT5GO.s 			page 8


 113 0082 03FB05F5 		mul	r5, r3, r5
 114              	.LVL10:
 115 0086 0021     		movs	r1, #0
 116 0088 DF17     		asrs	r7, r3, #31
 117 008a 00FB07F4 		mul	r4, r0, r7
 118              	.LVL11:
 119 008e 03FB0144 		mla	r4, r3, r1, r4
 120 0092 A0FB0301 		umull	r0, r1, r0, r3
 121              	.LVL12:
 122 0096 2144     		add	r1, r1, r4
 123 0098 0023     		movs	r3, #0
 124 009a FFF7FEFF 		bl	__aeabi_uldivmod
 125              	.LVL13:
 126 009e 2844     		add	r0, r0, r5
 127              	.LVL14:
 288:si5351.c      **** #if 0
 289:si5351.c      ****     if ((freq < SI5351_PLL_VCO_MIN) || (freq > SI5351_PLL_VCO_MAX)) {
 290:si5351.c      ****         freq = -1;
 291:si5351.c      ****     }
 292:si5351.c      **** #endif
 293:si5351.c      ****     
 294:si5351.c      ****     return (freq);
 128              		.loc 1 294 0 discriminator 4
 129 00a0 BDE8F883 		pop	{r3, r4, r5, r6, r7, r8, r9, pc}
 130              	.LVL15:
 131              	.L4:
 251:si5351.c      ****     }
 132              		.loc 1 251 0
 133 00a4 4FF0FF30 		mov	r0, #-1
 134              	.LVL16:
 295:si5351.c      **** }
 135              		.loc 1 295 0
 136 00a8 BDE8F883 		pop	{r3, r4, r5, r6, r7, r8, r9, pc}
 137              	.LVL17:
 138              	.L8:
 139              		.align	2
 140              	.L7:
 141 00ac 00000000 		.word	freq_ref
 142 00b0 FFFF0F00 		.word	1048575
 143              		.cfi_endproc
 144              	.LFE5:
 145              		.size	pll_calc, .-pll_calc
 146              		.section	.text.multisynth_calc,"ax",%progbits
 147              		.align	2
 148              		.thumb
 149              		.thumb_func
 150              		.type	multisynth_calc, %function
 151              	multisynth_calc:
 152              	.LFB6:
 296:si5351.c      **** 
 297:si5351.c      **** static int32_t multisynth_calc(int32_t freq, int32_t pll_freq, uint8_t *clk_ctrl, uint8_t *regs)
 298:si5351.c      **** {
 153              		.loc 1 298 0
 154              		.cfi_startproc
 155              		@ args = 0, pretend = 0, frame = 0
 156              		@ frame_needed = 0, uses_anonymous_args = 0
 157              	.LVL18:
ARM GAS  C:\Users\koseki\AppData\Local\Temp\ccMyT5GO.s 			page 9


 158 0000 2DE9F047 		push	{r4, r5, r6, r7, r8, r9, r10, lr}
 159              		.cfi_def_cfa_offset 32
 160              		.cfi_offset 4, -32
 161              		.cfi_offset 5, -28
 162              		.cfi_offset 6, -24
 163              		.cfi_offset 7, -20
 164              		.cfi_offset 8, -16
 165              		.cfi_offset 9, -12
 166              		.cfi_offset 10, -8
 167              		.cfi_offset 14, -4
 168 0004 1746     		mov	r7, r2
 169 0006 1E46     		mov	r6, r3
 299:si5351.c      ****     int32_t a, b, c;
 300:si5351.c      ****     uint32_t p1, p2, p3;
 301:si5351.c      ****     int r0, divby4, ms_int;
 302:si5351.c      ****     int32_t target_pll_freq;
 303:si5351.c      **** 
 304:si5351.c      ****     /* Calculate parameters */
 305:si5351.c      ****     if (freq >= SI5351_MULTISYNTH_DIVBY4_FREQ) {
 170              		.loc 1 305 0
 171 0008 474B     		ldr	r3, .L33
 172              	.LVL19:
 173 000a 9842     		cmp	r0, r3
 174 000c 08DD     		ble	.L10
 306:si5351.c      ****         pll_freq = 4 * freq;
 175              		.loc 1 306 0
 176 000e 8500     		lsls	r5, r0, #2
 177              	.LVL20:
 307:si5351.c      ****         p1 = 0;
 308:si5351.c      ****         p2 = 0;
 309:si5351.c      ****         p3 = 1;
 310:si5351.c      ****         ms_int = 1;
 178              		.loc 1 310 0
 179 0010 0122     		movs	r2, #1
 180              	.LVL21:
 311:si5351.c      ****         divby4 = 3;
 181              		.loc 1 311 0
 182 0012 4FF0030E 		mov	lr, #3
 312:si5351.c      ****         r0 = 0;
 183              		.loc 1 312 0
 184 0016 0024     		movs	r4, #0
 309:si5351.c      ****         ms_int = 1;
 185              		.loc 1 309 0
 186 0018 1346     		mov	r3, r2
 308:si5351.c      ****         p3 = 1;
 187              		.loc 1 308 0
 188 001a 2046     		mov	r0, r4
 189              	.LVL22:
 307:si5351.c      ****         p2 = 0;
 190              		.loc 1 307 0
 191 001c 2146     		mov	r1, r4
 192 001e 55E0     		b	.L11
 193              	.LVL23:
 194              	.L10:
 195 0020 8E46     		mov	lr, r1
 313:si5351.c      ****     } else{
 314:si5351.c      ****         target_pll_freq = pll_freq ? pll_freq : SI5351_PLL_VCO_MAX;        
ARM GAS  C:\Users\koseki\AppData\Local\Temp\ccMyT5GO.s 			page 10


 196              		.loc 1 314 0
 197 0022 09B9     		cbnz	r1, .L24
 198 0024 414D     		ldr	r5, .L33+4
 199 0026 00E0     		b	.L12
 200              	.L24:
 201 0028 0D46     		mov	r5, r1
 202              	.L12:
 203              	.LVL24:
 315:si5351.c      ****         r0 = 0;
 204              		.loc 1 315 0 discriminator 4
 205 002a 0024     		movs	r4, #0
 206              	.LVL25:
 207              	.L19:
 316:si5351.c      ****         for (;;) {
 317:si5351.c      ****             a = target_pll_freq / (freq << r0);
 208              		.loc 1 317 0
 209 002c 00FA04F2 		lsl	r2, r0, r4
 210 0030 95FBF2F3 		sdiv	r3, r5, r2
 211              	.LVL26:
 318:si5351.c      ****             b = target_pll_freq % (freq << r0);
 212              		.loc 1 318 0
 213 0034 02FB1351 		mls	r1, r2, r3, r5
 214              	.LVL27:
 319:si5351.c      ****                 
 320:si5351.c      ****             if ((a >= SI5351_MULTISYNTH_A_MIN) &&
 215              		.loc 1 320 0
 216 0038 052B     		cmp	r3, #5
 217 003a 0EDD     		ble	.L13
 218              		.loc 1 320 0 is_stmt 0 discriminator 1
 219 003c B3F5E16F 		cmp	r3, #1800
 220 0040 01DB     		blt	.L14
 321:si5351.c      ****               ((a < SI5351_MULTISYNTH_A_MAX) ||
 221              		.loc 1 321 0 is_stmt 1
 222 0042 0AD1     		bne	.L13
 322:si5351.c      ****               ((a == SI5351_MULTISYNTH_A_MAX) && (b == 0)))) {
 223              		.loc 1 322 0
 224 0044 49B9     		cbnz	r1, .L13
 225              	.L14:
 323:si5351.c      ****                 if (pll_freq == 0) {
 226              		.loc 1 323 0
 227 0046 BEF1000F 		cmp	lr, #0
 228 004a 10D1     		bne	.L15
 324:si5351.c      ****                     /* make even and remain in range */
 325:si5351.c      ****                     if (a & 1) {
 229              		.loc 1 325 0
 230 004c 13F0010F 		tst	r3, #1
 231 0050 00D0     		beq	.L16
 326:si5351.c      ****                         a--;
 232              		.loc 1 326 0
 233 0052 013B     		subs	r3, r3, #1
 234              	.LVL28:
 235              	.L16:
 327:si5351.c      ****                     }
 328:si5351.c      ****                     target_pll_freq = a * (freq << r0);
 236              		.loc 1 328 0
 237 0054 02FB03F5 		mul	r5, r2, r3
 238              	.LVL29:
ARM GAS  C:\Users\koseki\AppData\Local\Temp\ccMyT5GO.s 			page 11


 239 0058 09E0     		b	.L15
 240              	.L13:
 329:si5351.c      ****                 }
 330:si5351.c      ****                 break;
 331:si5351.c      ****             }
 332:si5351.c      ****                 
 333:si5351.c      ****             if ((a > SI5351_MULTISYNTH_A_MAX) ||
 241              		.loc 1 333 0
 242 005a B3F5E16F 		cmp	r3, #1800
 243 005e 02DC     		bgt	.L17
 244              		.loc 1 333 0 is_stmt 0 discriminator 1
 245 0060 56D1     		bne	.L25
 334:si5351.c      ****               ((a == SI5351_MULTISYNTH_A_MAX) && (b != 0))) {
 246              		.loc 1 334 0 is_stmt 1
 247 0062 0029     		cmp	r1, #0
 248 0064 58D0     		beq	.L26
 249              	.L17:
 335:si5351.c      ****                 /* too high a value of A */
 336:si5351.c      ****                 if (++r0 > 7) {
 250              		.loc 1 336 0
 251 0066 0134     		adds	r4, r4, #1
 252              	.LVL30:
 253 0068 072C     		cmp	r4, #7
 254 006a DFDD     		ble	.L19
 255 006c 58E0     		b	.L27
 256              	.L15:
 337:si5351.c      ****                     /* R0 out of range; error  */
 338:si5351.c      ****                     return (-1);
 339:si5351.c      ****                 }
 340:si5351.c      ****                 continue;
 341:si5351.c      ****             }
 342:si5351.c      ****             
 343:si5351.c      ****             /* too low a value of A */
 344:si5351.c      ****             /* XXX: think this is always an error */
 345:si5351.c      ****             return (-1);
 346:si5351.c      ****         }
 347:si5351.c      ****         
 348:si5351.c      ****         if (pll_freq == 0)
 257              		.loc 1 348 0
 258 006e BEF1000F 		cmp	lr, #0
 259 0072 00D0     		beq	.L20
 260 0074 7546     		mov	r5, lr
 261              	.LVL31:
 262              	.L20:
 349:si5351.c      ****             pll_freq = target_pll_freq;
 350:si5351.c      ****         /* PLL chosen */
 351:si5351.c      **** 
 352:si5351.c      ****         a = pll_freq / (freq << r0);
 263              		.loc 1 352 0
 264 0076 95FBF2FA 		sdiv	r10, r5, r2
 265              	.LVL32:
 353:si5351.c      ****         b = ((uint64_t)(pll_freq % (freq << r0)) * RFRAC_DENOM) /
 266              		.loc 1 353 0
 267 007a 02FB1A53 		mls	r3, r2, r10, r5
 268 007e 9846     		mov	r8, r3
 269 0080 4FEAE379 		asr	r9, r3, #31
 270 0084 4FEA095E 		lsl	lr, r9, #20
ARM GAS  C:\Users\koseki\AppData\Local\Temp\ccMyT5GO.s 			page 12


 271 0088 1805     		lsls	r0, r3, #20
 272              	.LVL33:
 273 008a 4EEA1331 		orr	r1, lr, r3, lsr #12
 274              	.LVL34:
 275 008e D317     		asrs	r3, r2, #31
 276 0090 B0EB0800 		subs	r0, r0, r8
 277 0094 61EB0901 		sbc	r1, r1, r9
 278 0098 FFF7FEFF 		bl	__aeabi_uldivmod
 279              	.LVL35:
 354:si5351.c      ****           (freq << r0);
 355:si5351.c      ****         ms_int = ((a % 2) == 0) && (b == 0);
 280              		.loc 1 355 0
 281 009c 1AF0010F 		tst	r10, #1
 282 00a0 02D1     		bne	.L28
 283              		.loc 1 355 0 is_stmt 0 discriminator 1
 284 00a2 18B1     		cbz	r0, .L29
 285              		.loc 1 355 0
 286 00a4 0022     		movs	r2, #0
 287 00a6 02E0     		b	.L21
 288              	.L28:
 289 00a8 0022     		movs	r2, #0
 290 00aa 00E0     		b	.L21
 291              	.L29:
 292 00ac 0122     		movs	r2, #1
 293              	.L21:
 294              	.LVL36:
 356:si5351.c      ****         c = b ? RFRAC_DENOM : 1;
 295              		.loc 1 356 0 is_stmt 1 discriminator 6
 296 00ae 08B1     		cbz	r0, .L30
 297              		.loc 1 356 0 is_stmt 0
 298 00b0 1F4B     		ldr	r3, .L33+8
 299 00b2 00E0     		b	.L22
 300              	.L30:
 301 00b4 0123     		movs	r3, #1
 302              	.L22:
 303              	.LVL37:
 357:si5351.c      ****         
 358:si5351.c      ****         p1 = 128 * a + ((128 * b) / c) - 512;
 304              		.loc 1 358 0 is_stmt 1 discriminator 4
 305 00b6 C001     		lsls	r0, r0, #7
 306              	.LVL38:
 307 00b8 90FBF3FE 		sdiv	lr, r0, r3
 308 00bc 0EEBCA11 		add	r1, lr, r10, lsl #7
 309 00c0 A1F50071 		sub	r1, r1, #512
 310              	.LVL39:
 359:si5351.c      ****         p2 = 128 * b - c * ((128 * b) / c);
 311              		.loc 1 359 0 discriminator 4
 312 00c4 03FB1E00 		mls	r0, r3, lr, r0
 313              	.LVL40:
 360:si5351.c      ****         p3 = c;
 361:si5351.c      ****         divby4 = 0;
 314              		.loc 1 361 0 discriminator 4
 315 00c8 4FF0000E 		mov	lr, #0
 316              	.LVL41:
 317              	.L11:
 362:si5351.c      **** 
 363:si5351.c      ****     }
ARM GAS  C:\Users\koseki\AppData\Local\Temp\ccMyT5GO.s 			page 13


 364:si5351.c      ****     
 365:si5351.c      ****     *clk_ctrl = ms_int ? SI5351_CLK_INTEGER_MODE : 0;
 318              		.loc 1 365 0
 319 00cc 0AB1     		cbz	r2, .L31
 320 00ce 4022     		movs	r2, #64
 321              	.LVL42:
 322 00d0 00E0     		b	.L23
 323              	.LVL43:
 324              	.L31:
 325 00d2 0022     		movs	r2, #0
 326              	.LVL44:
 327              	.L23:
 328              		.loc 1 365 0 is_stmt 0 discriminator 4
 329 00d4 3A70     		strb	r2, [r7]
 366:si5351.c      ****     
 367:si5351.c      ****     /* Registers 42-43 */
 368:si5351.c      ****     regs[0] = (uint8_t) (p3 >> 8);
 330              		.loc 1 368 0 is_stmt 1 discriminator 4
 331 00d6 C3F30722 		ubfx	r2, r3, #8, #8
 332 00da 3270     		strb	r2, [r6]
 369:si5351.c      ****     regs[1] = (uint8_t) p3;
 333              		.loc 1 369 0 discriminator 4
 334 00dc 7370     		strb	r3, [r6, #1]
 370:si5351.c      **** 
 371:si5351.c      ****     /* Register 44 */
 372:si5351.c      ****     regs[2] = (uint8_t) ((p1 >> 16) & 0x03) |
 335              		.loc 1 372 0 discriminator 4
 336 00de C1F30142 		ubfx	r2, r1, #16, #2
 337 00e2 42EA0414 		orr	r4, r2, r4, lsl #4
 338              	.LVL45:
 339 00e6 44EA8E04 		orr	r4, r4, lr, lsl #2
 340 00ea B470     		strb	r4, [r6, #2]
 373:si5351.c      ****       (r0 << 4) | (divby4 << 2);
 374:si5351.c      **** 
 375:si5351.c      ****     /* Registers 45-46 */
 376:si5351.c      ****     regs[3] = (uint8_t) (p1 >> 8);
 341              		.loc 1 376 0 discriminator 4
 342 00ec C1F30722 		ubfx	r2, r1, #8, #8
 343 00f0 F270     		strb	r2, [r6, #3]
 377:si5351.c      ****     regs[4] = (uint8_t) p1;
 344              		.loc 1 377 0 discriminator 4
 345 00f2 3171     		strb	r1, [r6, #4]
 378:si5351.c      **** 
 379:si5351.c      ****     /* Register 47 */
 380:si5351.c      ****     regs[5] = (uint8_t) ((p3 >> 12) & 0xF0) |
 346              		.loc 1 380 0 discriminator 4
 347 00f4 1B0B     		lsrs	r3, r3, #12
 348              	.LVL46:
 349 00f6 23F00F03 		bic	r3, r3, #15
 350 00fa C0F30342 		ubfx	r2, r0, #16, #4
 351 00fe 1343     		orrs	r3, r3, r2
 352 0100 7371     		strb	r3, [r6, #5]
 381:si5351.c      ****       ((p2 >> 16) & 0x0F);
 382:si5351.c      **** 
 383:si5351.c      ****     /* Registers 48-49 */
 384:si5351.c      ****     regs[6] = (uint8_t) (p2 >> 8);
 353              		.loc 1 384 0 discriminator 4
ARM GAS  C:\Users\koseki\AppData\Local\Temp\ccMyT5GO.s 			page 14


 354 0102 C0F30723 		ubfx	r3, r0, #8, #8
 355 0106 B371     		strb	r3, [r6, #6]
 385:si5351.c      ****     regs[7] = (uint8_t) p2;
 356              		.loc 1 385 0 discriminator 4
 357 0108 F071     		strb	r0, [r6, #7]
 386:si5351.c      **** 
 387:si5351.c      ****     return (pll_freq);
 358              		.loc 1 387 0 discriminator 4
 359 010a 2846     		mov	r0, r5
 360              	.LVL47:
 361 010c BDE8F087 		pop	{r4, r5, r6, r7, r8, r9, r10, pc}
 362              	.LVL48:
 363              	.L25:
 345:si5351.c      ****         }
 364              		.loc 1 345 0
 365 0110 4FF0FF30 		mov	r0, #-1
 366              	.LVL49:
 367 0114 BDE8F087 		pop	{r4, r5, r6, r7, r8, r9, r10, pc}
 368              	.LVL50:
 369              	.L26:
 370 0118 4FF0FF30 		mov	r0, #-1
 371              	.LVL51:
 372 011c BDE8F087 		pop	{r4, r5, r6, r7, r8, r9, r10, pc}
 373              	.LVL52:
 374              	.L27:
 338:si5351.c      ****                 }
 375              		.loc 1 338 0
 376 0120 4FF0FF30 		mov	r0, #-1
 377              	.LVL53:
 388:si5351.c      **** }
 378              		.loc 1 388 0
 379 0124 BDE8F087 		pop	{r4, r5, r6, r7, r8, r9, r10, pc}
 380              	.LVL54:
 381              	.L34:
 382              		.align	2
 383              	.L33:
 384 0128 7FD1F008 		.word	149999999
 385 012c 00E9A435 		.word	900000000
 386 0130 FFFF0F00 		.word	1048575
 387              		.cfi_endproc
 388              	.LFE6:
 389              		.size	multisynth_calc, .-multisynth_calc
 390              		.section	.text.si5351_calibration_mode,"ax",%progbits
 391              		.align	2
 392              		.global	si5351_calibration_mode
 393              		.thumb
 394              		.thumb_func
 395              		.type	si5351_calibration_mode, %function
 396              	si5351_calibration_mode:
 397              	.LFB1:
  88:si5351.c      ****     
 398              		.loc 1 88 0
 399              		.cfi_startproc
 400              		@ args = 0, pretend = 0, frame = 0
 401              		@ frame_needed = 0, uses_anonymous_args = 0
 402              	.LVL55:
 403 0000 08B5     		push	{r3, lr}
ARM GAS  C:\Users\koseki\AppData\Local\Temp\ccMyT5GO.s 			page 15


 404              		.cfi_def_cfa_offset 8
 405              		.cfi_offset 3, -8
 406              		.cfi_offset 14, -4
  90:si5351.c      ****         SI5351_WRITE_BYTE(SI5351_FANOUT_ENABLE,
 407              		.loc 1 90 0
 408 0002 88B1     		cbz	r0, .L36
  92:si5351.c      ****         SI5351_WRITE_BYTE(SI5351_CLK0_CTRL,
 409              		.loc 1 92 0
 410 0004 BB20     		movs	r0, #187
 411              	.LVL56:
 412 0006 FFF7FEFF 		bl	si5351_read_byte
 413              	.LVL57:
  91:si5351.c      ****           SI5351_READ_BYTE(SI5351_FANOUT_ENABLE) | SI5351_XTAL_ENABLE);
 414              		.loc 1 91 0
 415 000a 40F04001 		orr	r1, r0, #64
 416 000e C9B2     		uxtb	r1, r1
 417 0010 BB20     		movs	r0, #187
 418 0012 FFF7FEFF 		bl	si5351_write_byte
 419              	.LVL58:
  94:si5351.c      ****           SI5351_CLK_INPUT_XTAL);
 420              		.loc 1 94 0
 421 0016 1020     		movs	r0, #16
 422 0018 FFF7FEFF 		bl	si5351_read_byte
 423              	.LVL59:
  93:si5351.c      ****           (SI5351_READ_BYTE(SI5351_CLK0_CTRL) & ~SI5351_CLK_INPUT_MASK) |
 424              		.loc 1 93 0
 425 001c 00F0F301 		and	r1, r0, #243
 426 0020 1020     		movs	r0, #16
 427 0022 FFF7FEFF 		bl	si5351_write_byte
 428              	.LVL60:
 429 0026 08BD     		pop	{r3, pc}
 430              	.LVL61:
 431              	.L36:
  98:si5351.c      ****           SI5351_CLK_INPUT_MULTISYNTH_N);
 432              		.loc 1 98 0
 433 0028 1020     		movs	r0, #16
 434              	.LVL62:
 435 002a FFF7FEFF 		bl	si5351_read_byte
 436              	.LVL63:
  97:si5351.c      ****           (SI5351_READ_BYTE(SI5351_CLK0_CTRL) & ~SI5351_CLK_INPUT_MASK) |
 437              		.loc 1 97 0
 438 002e 40F00C01 		orr	r1, r0, #12
 439 0032 C9B2     		uxtb	r1, r1
 440 0034 1020     		movs	r0, #16
 441 0036 FFF7FEFF 		bl	si5351_write_byte
 442              	.LVL64:
 101:si5351.c      ****     }
 443              		.loc 1 101 0
 444 003a BB20     		movs	r0, #187
 445 003c FFF7FEFF 		bl	si5351_read_byte
 446              	.LVL65:
 100:si5351.c      ****           SI5351_READ_BYTE(SI5351_FANOUT_ENABLE) & ~SI5351_XTAL_ENABLE);
 447              		.loc 1 100 0
 448 0040 00F0BF01 		and	r1, r0, #191
 449 0044 BB20     		movs	r0, #187
 450 0046 FFF7FEFF 		bl	si5351_write_byte
 451              	.LVL66:
ARM GAS  C:\Users\koseki\AppData\Local\Temp\ccMyT5GO.s 			page 16


 452 004a 08BD     		pop	{r3, pc}
 453              		.cfi_endproc
 454              	.LFE1:
 455              		.size	si5351_calibration_mode, .-si5351_calibration_mode
 456              		.section	.text.si5351_clock_enable,"ax",%progbits
 457              		.align	2
 458              		.global	si5351_clock_enable
 459              		.thumb
 460              		.thumb_func
 461              		.type	si5351_clock_enable, %function
 462              	si5351_clock_enable:
 463              	.LFB2:
 114:si5351.c      ****     uint8_t reg_val;
 464              		.loc 1 114 0
 465              		.cfi_startproc
 466              		@ args = 0, pretend = 0, frame = 0
 467              		@ frame_needed = 0, uses_anonymous_args = 0
 468              	.LVL67:
 469 0000 38B5     		push	{r3, r4, r5, lr}
 470              		.cfi_def_cfa_offset 16
 471              		.cfi_offset 3, -16
 472              		.cfi_offset 4, -12
 473              		.cfi_offset 5, -8
 474              		.cfi_offset 14, -4
 475 0002 0446     		mov	r4, r0
 476 0004 0D46     		mov	r5, r1
 117:si5351.c      ****       (1 << (uint8_t)clk);
 477              		.loc 1 117 0
 478 0006 0320     		movs	r0, #3
 479              	.LVL68:
 480 0008 FFF7FEFF 		bl	si5351_read_byte
 481              	.LVL69:
 118:si5351.c      **** 
 482              		.loc 1 118 0
 483 000c 0123     		movs	r3, #1
 484 000e A340     		lsls	r3, r3, r4
 117:si5351.c      ****       (1 << (uint8_t)clk);
 485              		.loc 1 117 0
 486 0010 5BB2     		sxtb	r3, r3
 487 0012 1843     		orrs	r0, r0, r3
 488 0014 40B2     		sxtb	r0, r0
 489 0016 C1B2     		uxtb	r1, r0
 490              	.LVL70:
 120:si5351.c      ****         reg_val &= ~(1<<(uint8_t)clk);
 491              		.loc 1 120 0
 492 0018 15B1     		cbz	r5, .L40
 121:si5351.c      ****     }
 493              		.loc 1 121 0
 494 001a 20EA0300 		bic	r0, r0, r3
 495 001e C1B2     		uxtb	r1, r0
 496              	.LVL71:
 497              	.L40:
 123:si5351.c      ****     
 498              		.loc 1 123 0
 499 0020 0320     		movs	r0, #3
 500 0022 FFF7FEFF 		bl	si5351_write_byte
 501              	.LVL72:
ARM GAS  C:\Users\koseki\AppData\Local\Temp\ccMyT5GO.s 			page 17


 125:si5351.c      ****         clock_control[clk] &= ~SI5351_CLK_POWERDOWN;
 502              		.loc 1 125 0
 503 0026 2DB1     		cbz	r5, .L41
 126:si5351.c      ****     } else {
 504              		.loc 1 126 0
 505 0028 094A     		ldr	r2, .L44
 506 002a 135D     		ldrb	r3, [r2, r4]	@ zero_extendqisi2
 507 002c 03F07F03 		and	r3, r3, #127
 508 0030 1355     		strb	r3, [r2, r4]
 509 0032 04E0     		b	.L42
 510              	.L41:
 128:si5351.c      ****     }
 511              		.loc 1 128 0
 512 0034 064A     		ldr	r2, .L44
 513 0036 135D     		ldrb	r3, [r2, r4]	@ zero_extendqisi2
 514 0038 63F07F03 		orn	r3, r3, #127
 515 003c 1355     		strb	r3, [r2, r4]
 516              	.L42:
 131:si5351.c      **** }
 517              		.loc 1 131 0
 518 003e 04F11000 		add	r0, r4, #16
 519 0042 034B     		ldr	r3, .L44
 520 0044 195D     		ldrb	r1, [r3, r4]	@ zero_extendqisi2
 521 0046 C0B2     		uxtb	r0, r0
 522 0048 FFF7FEFF 		bl	si5351_write_byte
 523              	.LVL73:
 524 004c 38BD     		pop	{r3, r4, r5, pc}
 525              	.LVL74:
 526              	.L45:
 527 004e 00BF     		.align	2
 528              	.L44:
 529 0050 00000000 		.word	clock_control
 530              		.cfi_endproc
 531              	.LFE2:
 532              		.size	si5351_clock_enable, .-si5351_clock_enable
 533              		.global	__aeabi_ldivmod
 534              		.section	.text.si5351_init,"ax",%progbits
 535              		.align	2
 536              		.global	si5351_init
 537              		.thumb
 538              		.thumb_func
 539              		.type	si5351_init, %function
 540              	si5351_init:
 541              	.LFB0:
  53:si5351.c      ****     int clock;
 542              		.loc 1 53 0
 543              		.cfi_startproc
 544              		@ args = 0, pretend = 0, frame = 0
 545              		@ frame_needed = 0, uses_anonymous_args = 0
 546              	.LVL75:
 547 0000 F8B5     		push	{r3, r4, r5, r6, r7, lr}
 548              		.cfi_def_cfa_offset 24
 549              		.cfi_offset 3, -24
 550              		.cfi_offset 4, -20
 551              		.cfi_offset 5, -16
 552              		.cfi_offset 6, -12
 553              		.cfi_offset 7, -8
ARM GAS  C:\Users\koseki\AppData\Local\Temp\ccMyT5GO.s 			page 18


 554              		.cfi_offset 14, -4
 555 0002 0546     		mov	r5, r0
 556 0004 0E46     		mov	r6, r1
 557 0006 1446     		mov	r4, r2
 558              	.LVL76:
 559              	.L47:
  59:si5351.c      ****         ;
 560              		.loc 1 59 0 discriminator 1
 561 0008 0020     		movs	r0, #0
 562 000a FFF7FEFF 		bl	si5351_read_byte
 563              	.LVL77:
 564 000e 10F0800F 		tst	r0, #128
 565 0012 F9D1     		bne	.L47
  62:si5351.c      ****     SI5351_WRITE_BYTE(SI5351_CRYSTAL_LOAD, load_cap | 0x12);
 566              		.loc 1 62 0
 567 0014 FF21     		movs	r1, #255
 568 0016 0320     		movs	r0, #3
 569 0018 FFF7FEFF 		bl	si5351_write_byte
 570              	.LVL78:
  63:si5351.c      ****     
 571              		.loc 1 63 0
 572 001c 44F01201 		orr	r1, r4, #18
 573 0020 C9B2     		uxtb	r1, r1
 574 0022 B720     		movs	r0, #183
 575 0024 FFF7FEFF 		bl	si5351_write_byte
 576              	.LVL79:
  66:si5351.c      ****     clock_control[1] = SI5351_CLK_INPUT_MULTISYNTH_N | SI5351_CLK_PLL_SELECT;
 577              		.loc 1 66 0
 578 0028 134B     		ldr	r3, .L51
 579 002a 0C22     		movs	r2, #12
 580 002c 1A70     		strb	r2, [r3]
  67:si5351.c      ****     clock_control[2] = SI5351_CLK_INPUT_MULTISYNTH_N | SI5351_CLK_PLL_SELECT;
 581              		.loc 1 67 0
 582 002e 2C22     		movs	r2, #44
 583 0030 5A70     		strb	r2, [r3, #1]
  68:si5351.c      ****     
 584              		.loc 1 68 0
 585 0032 9A70     		strb	r2, [r3, #2]
 586              	.LVL80:
  70:si5351.c      ****         si5351_clock_enable(clock, 0);
 587              		.loc 1 70 0
 588 0034 0024     		movs	r4, #0
 589              	.LVL81:
 590 0036 04E0     		b	.L48
 591              	.LVL82:
 592              	.L49:
  71:si5351.c      **** 
 593              		.loc 1 71 0 discriminator 3
 594 0038 0021     		movs	r1, #0
 595 003a E0B2     		uxtb	r0, r4
 596 003c FFF7FEFF 		bl	si5351_clock_enable
 597              	.LVL83:
  70:si5351.c      ****         si5351_clock_enable(clock, 0);
 598              		.loc 1 70 0 discriminator 3
 599 0040 0134     		adds	r4, r4, #1
 600              	.LVL84:
 601              	.L48:
ARM GAS  C:\Users\koseki\AppData\Local\Temp\ccMyT5GO.s 			page 19


  70:si5351.c      ****         si5351_clock_enable(clock, 0);
 602              		.loc 1 70 0 is_stmt 0 discriminator 1
 603 0042 072C     		cmp	r4, #7
 604 0044 F8DD     		ble	.L49
  75:si5351.c      ****       10000000LL) * freq_xtal) >> 31);
 605              		.loc 1 75 0 is_stmt 1
 606 0046 F317     		asrs	r3, r6, #31
 607 0048 D907     		lsls	r1, r3, #31
 608 004a 0C4A     		ldr	r2, .L51+4
 609 004c 0023     		movs	r3, #0
 610 004e F007     		lsls	r0, r6, #31
 611 0050 41EA5601 		orr	r1, r1, r6, lsr #1
 612 0054 FFF7FEFF 		bl	__aeabi_ldivmod
 613              	.LVL85:
  76:si5351.c      **** }
 614              		.loc 1 76 0
 615 0058 EF17     		asrs	r7, r5, #31
 616 005a 05FB01F3 		mul	r3, r5, r1
 617 005e 00FB0733 		mla	r3, r0, r7, r3
 618 0062 A5FB0001 		umull	r0, r1, r5, r0
 619 0066 1944     		add	r1, r1, r3
 620 0068 C30F     		lsrs	r3, r0, #31
 621 006a 43EA4103 		orr	r3, r3, r1, lsl #1
  75:si5351.c      ****       10000000LL) * freq_xtal) >> 31);
 622              		.loc 1 75 0
 623 006e 2B44     		add	r3, r3, r5
 624 0070 034A     		ldr	r2, .L51+8
 625 0072 1360     		str	r3, [r2]
 626 0074 F8BD     		pop	{r3, r4, r5, r6, r7, pc}
 627              	.LVL86:
 628              	.L52:
 629 0076 00BF     		.align	2
 630              	.L51:
 631 0078 00000000 		.word	clock_control
 632 007c 80969800 		.word	10000000
 633 0080 00000000 		.word	freq_ref
 634              		.cfi_endproc
 635              	.LFE0:
 636              		.size	si5351_init, .-si5351_init
 637              		.section	.text.si5351_drive_strength,"ax",%progbits
 638              		.align	2
 639              		.global	si5351_drive_strength
 640              		.thumb
 641              		.thumb_func
 642              		.type	si5351_drive_strength, %function
 643              	si5351_drive_strength:
 644              	.LFB3:
 145:si5351.c      **** 
 645              		.loc 1 145 0
 646              		.cfi_startproc
 647              		@ args = 0, pretend = 0, frame = 0
 648              		@ frame_needed = 0, uses_anonymous_args = 0
 649              	.LVL87:
 650 0000 08B5     		push	{r3, lr}
 651              		.cfi_def_cfa_offset 8
 652              		.cfi_offset 3, -8
 653              		.cfi_offset 14, -4
ARM GAS  C:\Users\koseki\AppData\Local\Temp\ccMyT5GO.s 			page 20


 147:si5351.c      **** 
 654              		.loc 1 147 0
 655 0002 104A     		ldr	r2, .L59
 656 0004 135C     		ldrb	r3, [r2, r0]	@ zero_extendqisi2
 657 0006 03F0FC03 		and	r3, r3, #252
 658 000a 1354     		strb	r3, [r2, r0]
 149:si5351.c      ****     case SI5351_DRIVE_2MA:
 659              		.loc 1 149 0
 660 000c 0229     		cmp	r1, #2
 661 000e 07D0     		beq	.L55
 662 0010 0329     		cmp	r1, #3
 663 0012 0AD0     		beq	.L56
 664 0014 0129     		cmp	r1, #1
 665 0016 0CD1     		bne	.L54
 154:si5351.c      ****         break;
 666              		.loc 1 154 0
 667 0018 43F00103 		orr	r3, r3, #1
 668 001c 1354     		strb	r3, [r2, r0]
 155:si5351.c      ****     case SI5351_DRIVE_6MA:
 669              		.loc 1 155 0
 670 001e 08E0     		b	.L54
 671              	.L55:
 157:si5351.c      ****         break;
 672              		.loc 1 157 0
 673 0020 43F00203 		orr	r3, r3, #2
 674 0024 074A     		ldr	r2, .L59
 675 0026 1354     		strb	r3, [r2, r0]
 158:si5351.c      ****     case SI5351_DRIVE_8MA:
 676              		.loc 1 158 0
 677 0028 03E0     		b	.L54
 678              	.L56:
 160:si5351.c      ****         break;
 679              		.loc 1 160 0
 680 002a 43F00303 		orr	r3, r3, #3
 681 002e 054A     		ldr	r2, .L59
 682 0030 1354     		strb	r3, [r2, r0]
 683              	.L54:
 164:si5351.c      **** }
 684              		.loc 1 164 0
 685 0032 00F11003 		add	r3, r0, #16
 686 0036 034A     		ldr	r2, .L59
 687 0038 115C     		ldrb	r1, [r2, r0]	@ zero_extendqisi2
 688              	.LVL88:
 689 003a D8B2     		uxtb	r0, r3
 690              	.LVL89:
 691 003c FFF7FEFF 		bl	si5351_write_byte
 692              	.LVL90:
 693 0040 08BD     		pop	{r3, pc}
 694              	.L60:
 695 0042 00BF     		.align	2
 696              	.L59:
 697 0044 00000000 		.word	clock_control
 698              		.cfi_endproc
 699              	.LFE3:
 700              		.size	si5351_drive_strength, .-si5351_drive_strength
 701              		.section	.text.si5351_set_frequency,"ax",%progbits
 702              		.align	2
ARM GAS  C:\Users\koseki\AppData\Local\Temp\ccMyT5GO.s 			page 21


 703              		.global	si5351_set_frequency
 704              		.thumb
 705              		.thumb_func
 706              		.type	si5351_set_frequency, %function
 707              	si5351_set_frequency:
 708              	.LFB4:
 172:si5351.c      ****     uint8_t clk_ctrl, pllregs[8], msregs[8];
 709              		.loc 1 172 0
 710              		.cfi_startproc
 711              		@ args = 0, pretend = 0, frame = 24
 712              		@ frame_needed = 0, uses_anonymous_args = 0
 713              	.LVL91:
 714 0000 2DE9F041 		push	{r4, r5, r6, r7, r8, lr}
 715              		.cfi_def_cfa_offset 24
 716              		.cfi_offset 4, -24
 717              		.cfi_offset 5, -20
 718              		.cfi_offset 6, -16
 719              		.cfi_offset 7, -12
 720              		.cfi_offset 8, -8
 721              		.cfi_offset 14, -4
 722 0004 86B0     		sub	sp, sp, #24
 723              		.cfi_def_cfa_offset 48
 724 0006 0646     		mov	r6, r0
 725 0008 1446     		mov	r4, r2
 726 000a 1F46     		mov	r7, r3
 727              	.LVL92:
 181:si5351.c      ****     
 728              		.loc 1 181 0
 729 000c 01AB     		add	r3, sp, #4
 730              	.LVL93:
 731 000e 0DF11702 		add	r2, sp, #23
 732              	.LVL94:
 733 0012 FFF7FEFF 		bl	multisynth_calc
 734              	.LVL95:
 735 0016 0546     		mov	r5, r0
 736              	.LVL96:
 186:si5351.c      ****     case SI5351_CLK0:
 737              		.loc 1 186 0
 738 0018 14B1     		cbz	r4, .L63
 739 001a 022C     		cmp	r4, #2
 740 001c 16D8     		bhi	.L71
 741 001e 07E0     		b	.L75
 742              	.L63:
 189:si5351.c      ****         break;
 743              		.loc 1 189 0
 744 0020 2F4B     		ldr	r3, .L78
 745 0022 1E68     		ldr	r6, [r3]
 746              	.LVL97:
 747 0024 361A     		subs	r6, r6, r0
 748 0026 18BF     		it	ne
 749 0028 0126     		movne	r6, #1
 750              	.LVL98:
 188:si5351.c      ****         program_pll = (plla_freq != pll_freq);
 751              		.loc 1 188 0
 752 002a 4FF00008 		mov	r8, #0
 190:si5351.c      ****     /* CLK1 and CLK2 share PLLB; first programmed sets PLL freq */
 753              		.loc 1 190 0
ARM GAS  C:\Users\koseki\AppData\Local\Temp\ccMyT5GO.s 			page 22


 754 002e 12E0     		b	.L62
 755              	.LVL99:
 756              	.L75:
 195:si5351.c      ****             pll_freq = multisynth_calc(freq, pllb_freq, &clk_ctrl, msregs);
 757              		.loc 1 195 0
 758 0030 2C4B     		ldr	r3, .L78+4
 759 0032 1968     		ldr	r1, [r3]
 760 0034 69B1     		cbz	r1, .L72
 196:si5351.c      ****         } else {
 761              		.loc 1 196 0
 762 0036 01AB     		add	r3, sp, #4
 763 0038 0DF11702 		add	r2, sp, #23
 764 003c 3046     		mov	r0, r6
 765              	.LVL100:
 766 003e FFF7FEFF 		bl	multisynth_calc
 767              	.LVL101:
 768 0042 0546     		mov	r5, r0
 769              	.LVL102:
 176:si5351.c      ****     
 770              		.loc 1 176 0
 771 0044 0026     		movs	r6, #0
 772              	.LVL103:
 194:si5351.c      ****         if (pllb_freq != 0) {
 773              		.loc 1 194 0
 774 0046 4FF00108 		mov	r8, #1
 775 004a 04E0     		b	.L62
 776              	.LVL104:
 777              	.L71:
 176:si5351.c      ****     
 778              		.loc 1 176 0
 779 004c 0026     		movs	r6, #0
 780              	.LVL105:
 175:si5351.c      ****     int program_pll = 0;
 781              		.loc 1 175 0
 782 004e B046     		mov	r8, r6
 783 0050 01E0     		b	.L62
 784              	.LVL106:
 785              	.L72:
 198:si5351.c      ****         }
 786              		.loc 1 198 0
 787 0052 0126     		movs	r6, #1
 788              	.LVL107:
 194:si5351.c      ****         if (pllb_freq != 0) {
 789              		.loc 1 194 0
 790 0054 B046     		mov	r8, r6
 791              	.LVL108:
 792              	.L62:
 206:si5351.c      ****         return (pll_freq);
 793              		.loc 1 206 0
 794 0056 002D     		cmp	r5, #0
 795 0058 3DDB     		blt	.L65
 210:si5351.c      ****         pll_freq = pll_calc(pll_freq, pllregs);
 796              		.loc 1 210 0
 797 005a D6B1     		cbz	r6, .L73
 211:si5351.c      ****         /* keep track of PLL programming */
 798              		.loc 1 211 0
 799 005c 03A9     		add	r1, sp, #12
ARM GAS  C:\Users\koseki\AppData\Local\Temp\ccMyT5GO.s 			page 23


 800 005e 2846     		mov	r0, r5
 801 0060 FFF7FEFF 		bl	pll_calc
 802              	.LVL109:
 803 0064 0546     		mov	r5, r0
 804              	.LVL110:
 213:si5351.c      ****         case SI5351_PLLA:
 805              		.loc 1 213 0
 806 0066 B8F1000F 		cmp	r8, #0
 807 006a 03D0     		beq	.L68
 808 006c B8F1000F 		cmp	r8, #0
 809 0070 05D1     		bne	.L69
 810 0072 09E0     		b	.L76
 811              	.L68:
 215:si5351.c      ****             addr = SI5351_PLLA_PARAMETERS;
 812              		.loc 1 215 0
 813 0074 1A4B     		ldr	r3, .L78
 814 0076 1860     		str	r0, [r3]
 216:si5351.c      ****             break;
 815              		.loc 1 216 0
 816 0078 4FF01A08 		mov	r8, #26
 817              	.LVL111:
 217:si5351.c      ****         case SI5351_PLLB:
 818              		.loc 1 217 0
 819 007c 06E0     		b	.L67
 820              	.LVL112:
 821              	.L69:
 219:si5351.c      ****             addr = SI5351_PLLB_PARAMETERS;
 822              		.loc 1 219 0
 823 007e 194B     		ldr	r3, .L78+4
 824 0080 1860     		str	r0, [r3]
 825              	.LVL113:
 220:si5351.c      ****             break;
 826              		.loc 1 220 0
 827 0082 4FF02208 		mov	r8, #34
 828              	.LVL114:
 221:si5351.c      ****         } 
 829              		.loc 1 221 0
 830 0086 01E0     		b	.L67
 831              	.LVL115:
 832              	.L76:
 174:si5351.c      ****     int pll_prog = SI5351_PLLA;
 833              		.loc 1 174 0
 834 0088 4FF01A08 		mov	r8, #26
 835              	.LVL116:
 836              	.L67:
 224:si5351.c      ****             return (pll_freq);
 837              		.loc 1 224 0
 838 008c 002D     		cmp	r5, #0
 839 008e 02DA     		bge	.L66
 840 0090 21E0     		b	.L65
 841              	.LVL117:
 842              	.L73:
 174:si5351.c      ****     int pll_prog = SI5351_PLLA;
 843              		.loc 1 174 0
 844 0092 4FF01A08 		mov	r8, #26
 845              	.LVL118:
 846              	.L66:
ARM GAS  C:\Users\koseki\AppData\Local\Temp\ccMyT5GO.s 			page 24


 229:si5351.c      ****       ~SI5351_CLK_INTEGER_MODE) | clk_ctrl;
 847              		.loc 1 229 0
 848 0096 144A     		ldr	r2, .L78+8
 849 0098 115D     		ldrb	r1, [r2, r4]	@ zero_extendqisi2
 850 009a 21F04001 		bic	r1, r1, #64
 851 009e 9DF81730 		ldrb	r3, [sp, #23]	@ zero_extendqisi2
 852 00a2 1943     		orrs	r1, r1, r3
 853 00a4 1155     		strb	r1, [r2, r4]
 231:si5351.c      ****     if (program_pll) {
 854              		.loc 1 231 0
 855 00a6 04F11000 		add	r0, r4, #16
 856              	.LVL119:
 857 00aa C0B2     		uxtb	r0, r0
 858 00ac FFF7FEFF 		bl	si5351_write_byte
 859              	.LVL120:
 232:si5351.c      ****         SI5351_WRITE_XFER(addr, (uint8_t *) pllregs, 8);
 860              		.loc 1 232 0
 861 00b0 26B1     		cbz	r6, .L70
 233:si5351.c      ****     }
 862              		.loc 1 233 0
 863 00b2 0822     		movs	r2, #8
 864 00b4 03A9     		add	r1, sp, #12
 865 00b6 4046     		mov	r0, r8
 866 00b8 FFF7FEFF 		bl	si5351_write_xfer
 867              	.LVL121:
 868              	.L70:
 235:si5351.c      ****     if (reset) {
 869              		.loc 1 235 0
 870 00bc E000     		lsls	r0, r4, #3
 871 00be 2A30     		adds	r0, r0, #42
 872 00c0 0822     		movs	r2, #8
 873 00c2 01A9     		add	r1, sp, #4
 874 00c4 00F0FE00 		and	r0, r0, #254
 875 00c8 FFF7FEFF 		bl	si5351_write_xfer
 876              	.LVL122:
 236:si5351.c      ****         SI5351_WRITE_BYTE(177, 0xac);
 877              		.loc 1 236 0
 878 00cc 1FB1     		cbz	r7, .L65
 237:si5351.c      ****     }
 879              		.loc 1 237 0
 880 00ce AC21     		movs	r1, #172
 881 00d0 B120     		movs	r0, #177
 882 00d2 FFF7FEFF 		bl	si5351_write_byte
 883              	.LVL123:
 884              	.L65:
 241:si5351.c      **** 
 885              		.loc 1 241 0
 886 00d6 2846     		mov	r0, r5
 887 00d8 06B0     		add	sp, sp, #24
 888              		.cfi_def_cfa_offset 24
 889              		@ sp needed
 890 00da BDE8F081 		pop	{r4, r5, r6, r7, r8, pc}
 891              	.LVL124:
 892              	.L79:
 893 00de 00BF     		.align	2
 894              	.L78:
 895 00e0 00000000 		.word	plla_freq
ARM GAS  C:\Users\koseki\AppData\Local\Temp\ccMyT5GO.s 			page 25


 896 00e4 00000000 		.word	pllb_freq
 897 00e8 00000000 		.word	clock_control
 898              		.cfi_endproc
 899              	.LFE4:
 900              		.size	si5351_set_frequency, .-si5351_set_frequency
 901              		.comm	clock_control,8,4
 902              		.comm	freq_ref,4,4
 903              		.comm	pllb_freq,4,4
 904              		.comm	plla_freq,4,4
 905              		.text
 906              	.Letext0:
 907              		.file 2 "c:\\program files (x86)\\cypress\\psoc creator\\4.1\\psoc creator\\import\\gnu\\arm\\5.4.
 908              		.file 3 "c:\\program files (x86)\\cypress\\psoc creator\\4.1\\psoc creator\\import\\gnu\\arm\\5.4.
 909              		.file 4 "si5351.h"