ARM GAS  C:\Users\koseki\AppData\Local\Temp\ccv5HVG1.s 			page 1


   1              		.syntax unified
   2              		.cpu cortex-m3
   3              		.fpu softvfp
   4              		.eabi_attribute 20, 1
   5              		.eabi_attribute 21, 1
   6              		.eabi_attribute 23, 3
   7              		.eabi_attribute 24, 1
   8              		.eabi_attribute 25, 1
   9              		.eabi_attribute 26, 1
  10              		.eabi_attribute 30, 1
  11              		.eabi_attribute 34, 1
  12              		.eabi_attribute 18, 4
  13              		.thumb
  14              		.syntax unified
  15              		.file	"USBUART_API.c"
  16              		.text
  17              	.Ltext0:
  18              		.cfi_sections	.debug_frame
  19              		.section	.text.USBUART_Write,"ax",%progbits
  20              		.align	2
  21              		.global	USBUART_Write
  22              		.thumb
  23              		.thumb_func
  24              		.type	USBUART_Write, %function
  25              	USBUART_Write:
  26              	.LFB64:
  27              		.file 1 "USBUART_API.c"
   1:USBUART_API.c **** /*********************************************************************
   2:USBUART_API.c **** *
   3:USBUART_API.c **** *                  Board Support Packet of Cypress Chips
   4:USBUART_API.c **** *
   5:USBUART_API.c **** *
   6:USBUART_API.c **** *********************************************************************
   7:USBUART_API.c **** * FileName:        USBUART_API.C
   8:USBUART_API.c **** * Dependencies:
   9:USBUART_API.c **** * Processor:
  10:USBUART_API.c **** * Complier:
  11:USBUART_API.c **** * Company:
  12:USBUART_API.c **** *
  13:USBUART_API.c **** * Software License Agreement
  14:USBUART_API.c **** *
  15:USBUART_API.c **** ********************************************************************************
  16:USBUART_API.c **** * Copyright (2008), Cypress Semiconductor Corporation.
  17:USBUART_API.c **** ********************************************************************************
  18:USBUART_API.c **** * This software is owned by Cypress Semiconductor Corporation (Cypress) and is
  19:USBUART_API.c **** * protected by and subject to worldwide patent protection (United States and
  20:USBUART_API.c **** * foreign), United States copyright laws and international treaty provisions.
  21:USBUART_API.c **** * Cypress hereby grants to licensee a personal, non-exclusive, non-transferable
  22:USBUART_API.c **** * license to copy, use, modify, create derivative works of, and compile the
  23:USBUART_API.c **** * Cypress Source Code and derivative works for the sole purpose of creating
  24:USBUART_API.c **** * custom software in support of licensee product to be used only in conjunction
  25:USBUART_API.c **** * with a Cypress integrated circuit as specified in the applicable agreement.
  26:USBUART_API.c **** * Any reproduction, modification, translation, compilation, or representation of
  27:USBUART_API.c **** * this software except as specified above is prohibited without the express
  28:USBUART_API.c **** * written permission of Cypress.
  29:USBUART_API.c **** *
  30:USBUART_API.c **** * Disclaimer: CYPRESS MAKES NO WARRANTY OF ANY KIND, EXPRESS OR IMPLIED, WITH
ARM GAS  C:\Users\koseki\AppData\Local\Temp\ccv5HVG1.s 			page 2


  31:USBUART_API.c **** * REGARD TO THIS MATERIAL, INCLUDING, BUT NOT LIMITED TO, THE IMPLIED
  32:USBUART_API.c **** * WARRANTIES OF MERCHANTABILITY AND FITNESS FOR A PARTICULAR PURPOSE.
  33:USBUART_API.c **** * Cypress reserves the right to make changes without further notice to the
  34:USBUART_API.c **** * materials described herein. Cypress does not assume any liability arising out
  35:USBUART_API.c **** * of the application or use of any product or circuit described herein. Cypress
  36:USBUART_API.c **** * does not authorize its products for use as critical components in life-support
  37:USBUART_API.c **** * systems where a malfunction or failure may reasonably be expected to result in
  38:USBUART_API.c **** * significant injury to the user. The inclusion of Cypress' product in a life-
  39:USBUART_API.c **** * support systems application implies that the manufacturer assumes all risk of
  40:USBUART_API.c **** * such use and in doing so indemnifies Cypress against all charges. Use may be
  41:USBUART_API.c **** * limited by and subject to the applicable Cypress software license agreement.
  42:USBUART_API.c **** *******************************************************************************/
  43:USBUART_API.c **** #include <device.h>
  44:USBUART_API.c **** #include <string.h>
  45:USBUART_API.c **** #include <stdio.h>
  46:USBUART_API.c **** //#include "FIFO.h"
  47:USBUART_API.c **** #include "USBUART_API.h"
  48:USBUART_API.c **** 
  49:USBUART_API.c **** #define USBUART_RX_BUFFER_SIZE 255                          /* USB receive buffer size;  max 255*/
  50:USBUART_API.c **** uint8 baUSBRxBuf[USBUART_RX_BUFFER_SIZE];                   /* buffer */
  51:USBUART_API.c **** #if PSoC3 // original code
  52:USBUART_API.c **** FIFO USBRxFIFO;                                             /* FIFO for USB receive buffer */
  53:USBUART_API.c **** #endif
  54:USBUART_API.c **** uint8 bLineCoding[7];
  55:USBUART_API.c **** 
  56:USBUART_API.c **** #define USBUART_TX_BUFFER_SIZE 64                           /* USB transmit buffer size, max 64 */
  57:USBUART_API.c **** 
  58:USBUART_API.c **** // PSoC3 => PSoC5LP
  59:USBUART_API.c **** extern volatile uint32 gUSBUART_Ready;
  60:USBUART_API.c **** 
  61:USBUART_API.c **** /*******************************************************************************
  62:USBUART_API.c **** * FUNCTION NAME: void USBUART_Write( uint8 *pData, uint8 bLength )
  63:USBUART_API.c **** *
  64:USBUART_API.c **** * Summary:
  65:USBUART_API.c **** *  Get the count of received bytes.
  66:USBUART_API.c **** *
  67:USBUART_API.c **** * Parameters:
  68:USBUART_API.c **** *  pData: pointer to the buffer.
  69:USBUART_API.c **** *  bLength:  number of bytes to be transmited.
  70:USBUART_API.c **** *
  71:USBUART_API.c **** * Return:
  72:USBUART_API.c **** *  Void.
  73:USBUART_API.c **** *
  74:USBUART_API.c **** * Theory:
  75:USBUART_API.c **** * -None-
  76:USBUART_API.c **** *
  77:USBUART_API.c **** * Side Effects:
  78:USBUART_API.c **** * -None-
  79:USBUART_API.c **** *******************************************************************************/
  80:USBUART_API.c **** #if PSoC3 // original code
  81:USBUART_API.c **** void USBUART_Write(uint8 *pData, uint8 bLength)
  82:USBUART_API.c **** {
  83:USBUART_API.c ****     if( USBUART_bGetEPState(2) == USBUART_IN_BUFFER_EMPTY )
  84:USBUART_API.c ****     {
  85:USBUART_API.c ****         if( bLength > USBUART_TX_BUFFER_SIZE ) bLength = USBUART_TX_BUFFER_SIZE;
  86:USBUART_API.c ****         USBUART_LoadInEP( 2, pData, bLength );
  87:USBUART_API.c ****     }
ARM GAS  C:\Users\koseki\AppData\Local\Temp\ccv5HVG1.s 			page 3


  88:USBUART_API.c ****     return;
  89:USBUART_API.c **** }
  90:USBUART_API.c **** #else // PSoC5LP
  91:USBUART_API.c **** void USBUART_Write(uint8 *pData)
  92:USBUART_API.c **** {
  28              		.loc 1 92 0
  29              		.cfi_startproc
  30              		@ args = 0, pretend = 0, frame = 0
  31              		@ frame_needed = 0, uses_anonymous_args = 0
  32              	.LVL0:
  33 0000 10B5     		push	{r4, lr}
  34              		.cfi_def_cfa_offset 8
  35              		.cfi_offset 4, -8
  36              		.cfi_offset 14, -4
  37 0002 0446     		mov	r4, r0
  93:USBUART_API.c ****     uint8 count;
  94:USBUART_API.c **** 
  95:USBUART_API.c ****     if (gUSBUART_Ready == 0)
  38              		.loc 1 95 0
  39 0004 084B     		ldr	r3, .L7
  40 0006 1B68     		ldr	r3, [r3]
  41 0008 6BB1     		cbz	r3, .L1
  42              	.LVL1:
  43              	.L3:
  96:USBUART_API.c ****         return;
  97:USBUART_API.c **** 
  98:USBUART_API.c ****    	while(USBUART_CDCIsReady() == 0u);
  44              		.loc 1 98 0 discriminator 1
  45 000a FFF7FEFF 		bl	USBUART_CDCIsReady
  46              	.LVL2:
  47 000e 0028     		cmp	r0, #0
  48 0010 FBD0     		beq	.L3
  99:USBUART_API.c ****    	count = strlen((char*)pData);
  49              		.loc 1 99 0
  50 0012 2046     		mov	r0, r4
  51 0014 FFF7FEFF 		bl	strlen
  52              	.LVL3:
  53 0018 C1B2     		uxtb	r1, r0
  54              	.LVL4:
 100:USBUART_API.c ****     // count should smaller than 64
 101:USBUART_API.c ****     if( count > USBUART_TX_BUFFER_SIZE )
  55              		.loc 1 101 0
  56 001a 4029     		cmp	r1, #64
  57 001c 00D9     		bls	.L4
 102:USBUART_API.c ****         count = USBUART_TX_BUFFER_SIZE;
  58              		.loc 1 102 0
  59 001e 4021     		movs	r1, #64
  60              	.LVL5:
  61              	.L4:
 103:USBUART_API.c ****    	USBUART_PutData(pData, count);
  62              		.loc 1 103 0
  63 0020 2046     		mov	r0, r4
  64 0022 FFF7FEFF 		bl	USBUART_PutData
  65              	.LVL6:
  66              	.L1:
  67 0026 10BD     		pop	{r4, pc}
  68              	.LVL7:
ARM GAS  C:\Users\koseki\AppData\Local\Temp\ccv5HVG1.s 			page 4


  69              	.L8:
  70              		.align	2
  71              	.L7:
  72 0028 00000000 		.word	gUSBUART_Ready
  73              		.cfi_endproc
  74              	.LFE64:
  75              		.size	USBUART_Write, .-USBUART_Write
  76              		.section	.text.USBUART_ReadAll,"ax",%progbits
  77              		.align	2
  78              		.global	USBUART_ReadAll
  79              		.thumb
  80              		.thumb_func
  81              		.type	USBUART_ReadAll, %function
  82              	USBUART_ReadAll:
  83              	.LFB65:
 104:USBUART_API.c **** }
 105:USBUART_API.c **** #endif
 106:USBUART_API.c **** /*******************************************************************************
 107:USBUART_API.c **** * FUNCTION NAME: void USBUART_ReadAll(uint8 *pData)
 108:USBUART_API.c **** *
 109:USBUART_API.c **** * Summary:
 110:USBUART_API.c **** * Read all input data
 111:USBUART_API.c **** *
 112:USBUART_API.c **** * Parameters:
 113:USBUART_API.c **** *  pData: pointer to buffer where data will be placed
 114:USBUART_API.c **** *
 115:USBUART_API.c **** * Return:
 116:USBUART_API.c **** * Void.
 117:USBUART_API.c **** *
 118:USBUART_API.c **** * Theory:
 119:USBUART_API.c **** *
 120:USBUART_API.c **** *
 121:USBUART_API.c **** * Side Effects:
 122:USBUART_API.c **** * -None-
 123:USBUART_API.c **** *******************************************************************************/
 124:USBUART_API.c **** void USBUART_ReadAll(uint8 *pData)
 125:USBUART_API.c **** {
  84              		.loc 1 125 0
  85              		.cfi_startproc
  86              		@ args = 0, pretend = 0, frame = 8
  87              		@ frame_needed = 0, uses_anonymous_args = 0
  88              	.LVL8:
  89 0000 30B5     		push	{r4, r5, lr}
  90              		.cfi_def_cfa_offset 12
  91              		.cfi_offset 4, -12
  92              		.cfi_offset 5, -8
  93              		.cfi_offset 14, -4
  94 0002 83B0     		sub	sp, sp, #12
  95              		.cfi_def_cfa_offset 24
  96 0004 0546     		mov	r5, r0
  97              	.LVL9:
 126:USBUART_API.c **** #if PSoC3 // original code
 127:USBUART_API.c ****     uint8 bCount;
 128:USBUART_API.c **** 
 129:USBUART_API.c ****     bCount = USBUART_bGetRxCount();
 130:USBUART_API.c ****     FIFO_Read(&USBRxFIFO,pData,bCount);
 131:USBUART_API.c **** 	USBUART_EnableOutEP(3);					/* We've read data, allow more to come in */
ARM GAS  C:\Users\koseki\AppData\Local\Temp\ccv5HVG1.s 			page 5


 132:USBUART_API.c **** #else // PSoC5LP
 133:USBUART_API.c ****     uint8 ch, i;
 134:USBUART_API.c **** 
 135:USBUART_API.c ****     for (i = 0; i < (USBUART_RX_BUFFER_SIZE - 1); i++)
  98              		.loc 1 135 0
  99 0006 0024     		movs	r4, #0
 100 0008 1DE0     		b	.L10
 101              	.LVL10:
 102              	.L12:
 136:USBUART_API.c ****     {
 137:USBUART_API.c ****         while(1)
 138:USBUART_API.c ****         {
 139:USBUART_API.c ****             if (USBUART_DataIsReady() > 0)
 103              		.loc 1 139 0
 104 000a FFF7FEFF 		bl	USBUART_DataIsReady
 105              	.LVL11:
 106 000e 18B9     		cbnz	r0, .L11
 140:USBUART_API.c ****                 break;
 141:USBUART_API.c ****             CyDelay(10);    // 10ms
 107              		.loc 1 141 0
 108 0010 0A20     		movs	r0, #10
 109 0012 FFF7FEFF 		bl	CyDelay
 110              	.LVL12:
 142:USBUART_API.c ****         }
 111              		.loc 1 142 0
 112 0016 F8E7     		b	.L12
 113              	.L11:
 143:USBUART_API.c ****         USBUART_GetData(&ch, 1);
 114              		.loc 1 143 0
 115 0018 0121     		movs	r1, #1
 116 001a 0DF10700 		add	r0, sp, #7
 117 001e FFF7FEFF 		bl	USBUART_GetData
 118              	.LVL13:
 144:USBUART_API.c ****         USBUART_PutData(&ch, 1);
 119              		.loc 1 144 0
 120 0022 0121     		movs	r1, #1
 121 0024 0DF10700 		add	r0, sp, #7
 122 0028 FFF7FEFF 		bl	USBUART_PutData
 123              	.LVL14:
 145:USBUART_API.c ****         if (ch == '\r')
 124              		.loc 1 145 0
 125 002c 9DF80730 		ldrb	r3, [sp, #7]	@ zero_extendqisi2
 126 0030 0D2B     		cmp	r3, #13
 127 0032 05D1     		bne	.L13
 146:USBUART_API.c ****         {
 147:USBUART_API.c ****             pData[i] = '\0';
 128              		.loc 1 147 0
 129 0034 0023     		movs	r3, #0
 130 0036 2B55     		strb	r3, [r5, r4]
 148:USBUART_API.c ****             USBUART_Write((uint8*)"\r\n");
 131              		.loc 1 148 0
 132 0038 0548     		ldr	r0, .L16
 133 003a FFF7FEFF 		bl	USBUART_Write
 134              	.LVL15:
 149:USBUART_API.c ****             break;
 135              		.loc 1 149 0
 136 003e 04E0     		b	.L9
ARM GAS  C:\Users\koseki\AppData\Local\Temp\ccv5HVG1.s 			page 6


 137              	.L13:
 150:USBUART_API.c ****         }
 151:USBUART_API.c ****         pData[i] = ch;
 138              		.loc 1 151 0 discriminator 2
 139 0040 2B55     		strb	r3, [r5, r4]
 135:USBUART_API.c ****     {
 140              		.loc 1 135 0 discriminator 2
 141 0042 0134     		adds	r4, r4, #1
 142              	.LVL16:
 143 0044 E4B2     		uxtb	r4, r4
 144              	.LVL17:
 145              	.L10:
 135:USBUART_API.c ****     {
 146              		.loc 1 135 0 is_stmt 0 discriminator 1
 147 0046 FD2C     		cmp	r4, #253
 148 0048 DFD9     		bls	.L12
 149              	.L9:
 152:USBUART_API.c ****     }
 153:USBUART_API.c **** #endif
 154:USBUART_API.c ****     return;
 155:USBUART_API.c **** }
 150              		.loc 1 155 0 is_stmt 1
 151 004a 03B0     		add	sp, sp, #12
 152              		.cfi_def_cfa_offset 12
 153              		@ sp needed
 154 004c 30BD     		pop	{r4, r5, pc}
 155              	.LVL18:
 156              	.L17:
 157 004e 00BF     		.align	2
 158              	.L16:
 159 0050 00000000 		.word	.LC0
 160              		.cfi_endproc
 161              	.LFE65:
 162              		.size	USBUART_ReadAll, .-USBUART_ReadAll
 163              		.section	.text.USBUART_bTxIsReady,"ax",%progbits
 164              		.align	2
 165              		.global	USBUART_bTxIsReady
 166              		.thumb
 167              		.thumb_func
 168              		.type	USBUART_bTxIsReady, %function
 169              	USBUART_bTxIsReady:
 170              	.LFB66:
 156:USBUART_API.c **** 
 157:USBUART_API.c **** #if PSoC3 // original code
 158:USBUART_API.c **** /*******************************************************************************
 159:USBUART_API.c **** * FUNCTION NAME: uint8 USBUART_bGetRxCount(void)
 160:USBUART_API.c **** *
 161:USBUART_API.c **** * Summary:
 162:USBUART_API.c **** *  Get the size of valid data in the receive buffer.
 163:USBUART_API.c **** *
 164:USBUART_API.c **** * Parameters:
 165:USBUART_API.c **** * -None-
 166:USBUART_API.c **** *
 167:USBUART_API.c **** * Return:
 168:USBUART_API.c **** *  The size of valid data in the receive buffer.
 169:USBUART_API.c **** *
 170:USBUART_API.c **** * Theory:
ARM GAS  C:\Users\koseki\AppData\Local\Temp\ccv5HVG1.s 			page 7


 171:USBUART_API.c **** * -None-
 172:USBUART_API.c **** *
 173:USBUART_API.c **** * Side Effects:
 174:USBUART_API.c **** * -None-
 175:USBUART_API.c **** *******************************************************************************/
 176:USBUART_API.c **** uint8 USBUART_bGetRxCount(void)
 177:USBUART_API.c **** {
 178:USBUART_API.c ****     return( FIFO_HoldNum(&USBRxFIFO) );
 179:USBUART_API.c **** 
 180:USBUART_API.c ****     return cnt;
 181:USBUART_API.c **** }    
 182:USBUART_API.c **** #endif
 183:USBUART_API.c **** 
 184:USBUART_API.c **** /*******************************************************************************
 185:USBUART_API.c **** * FUNCTION NAME: uint8 USBUART_bTxIsReady(void)
 186:USBUART_API.c **** *
 187:USBUART_API.c **** * Summary:
 188:USBUART_API.c **** *  Determines if the transmit buffer is ready
 189:USBUART_API.c **** *
 190:USBUART_API.c **** * Parameters:
 191:USBUART_API.c **** * -None-
 192:USBUART_API.c **** *
 193:USBUART_API.c **** * Return:
 194:USBUART_API.c **** *  0 if not ready, otherwise TX buffer size.
 195:USBUART_API.c **** *
 196:USBUART_API.c **** * Theory:
 197:USBUART_API.c **** * -None-
 198:USBUART_API.c **** *
 199:USBUART_API.c **** * Side Effects:
 200:USBUART_API.c **** * -None-
 201:USBUART_API.c **** *******************************************************************************/
 202:USBUART_API.c **** uint8 USBUART_bTxIsReady(void)
 203:USBUART_API.c **** {
 171              		.loc 1 203 0
 172              		.cfi_startproc
 173              		@ args = 0, pretend = 0, frame = 0
 174              		@ frame_needed = 0, uses_anonymous_args = 0
 175 0000 08B5     		push	{r3, lr}
 176              		.cfi_def_cfa_offset 8
 177              		.cfi_offset 3, -8
 178              		.cfi_offset 14, -4
 204:USBUART_API.c **** #if PSoC3 // original code
 205:USBUART_API.c **** 	if(CY_GET_REG8(USBUART_USB__SIE_EP2_CR0)&0x10)
 206:USBUART_API.c ****     {
 207:USBUART_API.c ****         return USBUART_TX_BUFFER_SIZE;
 208:USBUART_API.c ****     }
 209:USBUART_API.c ****     else
 210:USBUART_API.c ****     {
 211:USBUART_API.c ****         return 0;
 212:USBUART_API.c ****     }
 213:USBUART_API.c **** #else // PSoC5LP
 214:USBUART_API.c ****     return USBUART_CDCIsReady();
 179              		.loc 1 214 0
 180 0002 FFF7FEFF 		bl	USBUART_CDCIsReady
 181              	.LVL19:
 215:USBUART_API.c **** 
 216:USBUART_API.c **** #endif
ARM GAS  C:\Users\koseki\AppData\Local\Temp\ccv5HVG1.s 			page 8


 217:USBUART_API.c **** }
 182              		.loc 1 217 0
 183 0006 08BD     		pop	{r3, pc}
 184              		.cfi_endproc
 185              	.LFE66:
 186              		.size	USBUART_bTxIsReady, .-USBUART_bTxIsReady
 187              		.comm	bLineCoding,7,4
 188              		.comm	baUSBRxBuf,255,4
 189              		.section	.rodata.str1.4,"aMS",%progbits,1
 190              		.align	2
 191              	.LC0:
 192 0000 0D0A00   		.ascii	"\015\012\000"
 193              		.text
 194              	.Letext0:
 195              		.file 2 "c:\\program files (x86)\\cypress\\psoc creator\\4.1\\psoc creator\\import\\gnu\\arm\\5.4.
 196              		.file 3 "c:\\program files (x86)\\cypress\\psoc creator\\4.1\\psoc creator\\import\\gnu\\arm\\5.4.
 197              		.file 4 "Generated_Source\\PSoC5/cytypes.h"
 198              		.file 5 "Generated_Source\\PSoC5/core_cm3.h"
 199              		.file 6 "Generated_Source\\PSoC5/USBUART_cdc.h"
 200              		.file 7 "c:\\program files (x86)\\cypress\\psoc creator\\4.1\\psoc creator\\import\\gnu\\arm\\5.4.
 201              		.file 8 "Generated_Source\\PSoC5/CyLib.h"