ARM GAS  C:\Users\koseki\AppData\Local\Temp\ccwKSW3c.s 			page 1


   1              		.syntax unified
   2              		.cpu cortex-m3
   3              		.fpu softvfp
   4              		.eabi_attribute 20, 1
   5              		.eabi_attribute 21, 1
   6              		.eabi_attribute 23, 3
   7              		.eabi_attribute 24, 1
   8              		.eabi_attribute 25, 1
   9              		.eabi_attribute 26, 1
  10              		.eabi_attribute 30, 1
  11              		.eabi_attribute 34, 1
  12              		.eabi_attribute 18, 4
  13              		.thumb
  14              		.syntax unified
  15              		.file	"USBUART_FIFO.c"
  16              		.text
  17              	.Ltext0:
  18              		.cfi_sections	.debug_frame
  19              		.section	.text.putch_sub,"ax",%progbits
  20              		.align	2
  21              		.thumb
  22              		.thumb_func
  23              		.type	putch_sub, %function
  24              	putch_sub:
  25              	.LFB63:
  26              		.file 1 "USBUART_FIFO.c"
   1:USBUART_FIFO.c **** /* ========================================
   2:USBUART_FIFO.c ****  *
   3:USBUART_FIFO.c ****  * Copyright YOUR COMPANY, THE YEAR
   4:USBUART_FIFO.c ****  * All Rights Reserved
   5:USBUART_FIFO.c ****  * UNPUBLISHED, LICENSED SOFTWARE.
   6:USBUART_FIFO.c ****  *
   7:USBUART_FIFO.c ****  * CONFIDENTIAL AND PROPRIETARY INFORMATION
   8:USBUART_FIFO.c ****  * WHICH IS THE PROPERTY OF your company.
   9:USBUART_FIFO.c ****  *
  10:USBUART_FIFO.c ****  * ========================================
  11:USBUART_FIFO.c **** */
  12:USBUART_FIFO.c **** 
  13:USBUART_FIFO.c **** #include "USBUART_FIFO.h"
  14:USBUART_FIFO.c **** 
  15:USBUART_FIFO.c **** // USBUART packet size
  16:USBUART_FIFO.c **** #define     UART_TX_QUEUE_SIZE      (64)
  17:USBUART_FIFO.c **** #define     UART_RX_QUEUE_SIZE      (64)
  18:USBUART_FIFO.c **** 
  19:USBUART_FIFO.c **** // USBUART Tx queue buffer
  20:USBUART_FIFO.c **** uint8       uartTxQueue[UART_TX_QUEUE_SIZE];    // Tx queue
  21:USBUART_FIFO.c **** uint8       uartTxCount = 0;                    // Data count in the Tx queue
  22:USBUART_FIFO.c **** CYBIT       uartZlpRequired = 0;                // Zero Length Packet(ZLP) request flag
  23:USBUART_FIFO.c **** uint8       uartTxReject = 0;                   // Number of Tx is rejected
  24:USBUART_FIFO.c **** 
  25:USBUART_FIFO.c **** // USBUART Rx queue buffer
  26:USBUART_FIFO.c **** uint8       uartRxQueue[UART_RX_QUEUE_SIZE];    // Rx queue
  27:USBUART_FIFO.c **** uint8       uartRxCount = 0;                    // Data count in the Rx queue
  28:USBUART_FIFO.c **** uint8       uartRxIndex = 0;                    // Index number of the Rx queue
  29:USBUART_FIFO.c **** CYBIT       uartRxCRDetect = 0;                 // CR detection flag
  30:USBUART_FIFO.c **** 
  31:USBUART_FIFO.c **** //
ARM GAS  C:\Users\koseki\AppData\Local\Temp\ccwKSW3c.s 			page 2


  32:USBUART_FIFO.c **** // Send 1 byte
  33:USBUART_FIFO.c **** //
  34:USBUART_FIFO.c **** static void putch_sub(const int16 ch) 
  35:USBUART_FIFO.c **** {
  27              		.loc 1 35 0
  28              		.cfi_startproc
  29              		@ args = 0, pretend = 0, frame = 0
  30              		@ frame_needed = 0, uses_anonymous_args = 0
  31              	.LVL0:
  32 0000 10B5     		push	{r4, lr}
  33              		.cfi_def_cfa_offset 8
  34              		.cfi_offset 4, -8
  35              		.cfi_offset 14, -4
  36 0002 0446     		mov	r4, r0
  37              	.LVL1:
  38              	.L3:
  36:USBUART_FIFO.c ****     uint8 state;
  37:USBUART_FIFO.c ****     
  38:USBUART_FIFO.c ****     for (;;) 
  39:USBUART_FIFO.c ****     {
  40:USBUART_FIFO.c ****         // Wait for Tx queue is empty.
  41:USBUART_FIFO.c ****         state = CyEnterCriticalSection();
  39              		.loc 1 41 0
  40 0004 FFF7FEFF 		bl	CyEnterCriticalSection
  41              	.LVL2:
  42:USBUART_FIFO.c ****         if (uartTxCount < UART_TX_QUEUE_SIZE) break;
  42              		.loc 1 42 0
  43 0008 074B     		ldr	r3, .L5
  44 000a 1B78     		ldrb	r3, [r3]	@ zero_extendqisi2
  45 000c 3F2B     		cmp	r3, #63
  46 000e 02D9     		bls	.L2
  43:USBUART_FIFO.c ****         CyExitCriticalSection(state);
  47              		.loc 1 43 0
  48 0010 FFF7FEFF 		bl	CyExitCriticalSection
  49              	.LVL3:
  44:USBUART_FIFO.c ****     }
  50              		.loc 1 44 0
  51 0014 F6E7     		b	.L3
  52              	.LVL4:
  53              	.L2:
  45:USBUART_FIFO.c ****     // Put 1 character to the Tx queue.
  46:USBUART_FIFO.c ****     uartTxQueue[uartTxCount++] = ch;
  54              		.loc 1 46 0
  55 0016 591C     		adds	r1, r3, #1
  56 0018 034A     		ldr	r2, .L5
  57 001a 1170     		strb	r1, [r2]
  58 001c 034A     		ldr	r2, .L5+4
  59 001e D454     		strb	r4, [r2, r3]
  47:USBUART_FIFO.c ****     CyExitCriticalSection(state);
  60              		.loc 1 47 0
  61 0020 FFF7FEFF 		bl	CyExitCriticalSection
  62              	.LVL5:
  63 0024 10BD     		pop	{r4, pc}
  64              	.L6:
  65 0026 00BF     		.align	2
  66              	.L5:
  67 0028 00000000 		.word	.LANCHOR0
ARM GAS  C:\Users\koseki\AppData\Local\Temp\ccwKSW3c.s 			page 3


  68 002c 00000000 		.word	uartTxQueue
  69              		.cfi_endproc
  70              	.LFE63:
  71              		.size	putch_sub, .-putch_sub
  72              		.section	.text.uartTxIsr,"ax",%progbits
  73              		.align	2
  74              		.global	uartTxIsr
  75              		.thumb
  76              		.thumb_func
  77              		.type	uartTxIsr, %function
  78              	uartTxIsr:
  79              	.LFB64:
  48:USBUART_FIFO.c **** }
  49:USBUART_FIFO.c **** 
  50:USBUART_FIFO.c **** //
  51:USBUART_FIFO.c **** // Tx ISR
  52:USBUART_FIFO.c **** //
  53:USBUART_FIFO.c **** void uartTxIsr(void)
  54:USBUART_FIFO.c **** {
  80              		.loc 1 54 0
  81              		.cfi_startproc
  82              		@ args = 0, pretend = 0, frame = 0
  83              		@ frame_needed = 0, uses_anonymous_args = 0
  84 0000 38B5     		push	{r3, r4, r5, lr}
  85              		.cfi_def_cfa_offset 16
  86              		.cfi_offset 3, -16
  87              		.cfi_offset 4, -12
  88              		.cfi_offset 5, -8
  89              		.cfi_offset 14, -4
  55:USBUART_FIFO.c ****     uint8 state = CyEnterCriticalSection();
  90              		.loc 1 55 0
  91 0002 FFF7FEFF 		bl	CyEnterCriticalSection
  92              	.LVL6:
  93 0006 0446     		mov	r4, r0
  94              	.LVL7:
  56:USBUART_FIFO.c ****     
  57:USBUART_FIFO.c ****     if ((uartTxCount > 0) || uartZlpRequired)
  95              		.loc 1 57 0
  96 0008 134B     		ldr	r3, .L12
  97 000a 1B78     		ldrb	r3, [r3]	@ zero_extendqisi2
  98 000c 13B9     		cbnz	r3, .L8
  99              		.loc 1 57 0 is_stmt 0 discriminator 1
 100 000e 124B     		ldr	r3, .L12
 101 0010 5B78     		ldrb	r3, [r3, #1]	@ zero_extendqisi2
 102 0012 E3B1     		cbz	r3, .L9
 103              	.L8:
  58:USBUART_FIFO.c ****     {
  59:USBUART_FIFO.c ****         // If there is data in the Tx buffer or ZLP is required, then send the packet.
  60:USBUART_FIFO.c ****         if (USBUART_CDCIsReady())
 104              		.loc 1 60 0 is_stmt 1
 105 0014 FFF7FEFF 		bl	USBUART_CDCIsReady
 106              	.LVL8:
 107 0018 70B1     		cbz	r0, .L10
  61:USBUART_FIFO.c ****         {
  62:USBUART_FIFO.c ****             // Send the packet
  63:USBUART_FIFO.c ****             USBUART_PutData(uartTxQueue, uartTxCount);
 108              		.loc 1 63 0
ARM GAS  C:\Users\koseki\AppData\Local\Temp\ccwKSW3c.s 			page 4


 109 001a 0F4D     		ldr	r5, .L12
 110 001c 2978     		ldrb	r1, [r5]	@ zero_extendqisi2
 111 001e 0F48     		ldr	r0, .L12+4
 112 0020 FFF7FEFF 		bl	USBUART_PutData
 113              	.LVL9:
  64:USBUART_FIFO.c ****             // Tx buffer clear
  65:USBUART_FIFO.c ****             uartZlpRequired = (uartTxCount == UART_TX_QUEUE_SIZE);
 114              		.loc 1 65 0
 115 0024 2B78     		ldrb	r3, [r5]	@ zero_extendqisi2
 116 0026 402B     		cmp	r3, #64
 117 0028 14BF     		ite	ne
 118 002a 0023     		movne	r3, #0
 119 002c 0123     		moveq	r3, #1
 120 002e 6B70     		strb	r3, [r5, #1]
  66:USBUART_FIFO.c ****             uartTxCount = 0;
 121              		.loc 1 66 0
 122 0030 0023     		movs	r3, #0
 123 0032 2B70     		strb	r3, [r5]
  67:USBUART_FIFO.c ****             uartTxReject = 0;
 124              		.loc 1 67 0
 125 0034 AB70     		strb	r3, [r5, #2]
 126 0036 0AE0     		b	.L9
 127              	.L10:
  68:USBUART_FIFO.c ****         }
  69:USBUART_FIFO.c ****         else if (++uartTxReject > 4)
 128              		.loc 1 69 0
 129 0038 074A     		ldr	r2, .L12
 130 003a 9378     		ldrb	r3, [r2, #2]	@ zero_extendqisi2
 131 003c 0133     		adds	r3, r3, #1
 132 003e DBB2     		uxtb	r3, r3
 133 0040 9370     		strb	r3, [r2, #2]
 134 0042 042B     		cmp	r3, #4
 135 0044 03D9     		bls	.L9
  70:USBUART_FIFO.c ****         {
  71:USBUART_FIFO.c ****             // Dispose the data.
  72:USBUART_FIFO.c ****             uartTxCount = 0;
 136              		.loc 1 72 0
 137 0046 1346     		mov	r3, r2
 138 0048 0022     		movs	r2, #0
 139 004a 1A70     		strb	r2, [r3]
  73:USBUART_FIFO.c ****             uartTxReject = 0;
 140              		.loc 1 73 0
 141 004c 9A70     		strb	r2, [r3, #2]
 142              	.L9:
  74:USBUART_FIFO.c ****         }
  75:USBUART_FIFO.c ****         else
  76:USBUART_FIFO.c ****         {
  77:USBUART_FIFO.c ****             // Nothing to do in this interruption.
  78:USBUART_FIFO.c ****         }
  79:USBUART_FIFO.c ****     }
  80:USBUART_FIFO.c ****     CyExitCriticalSection(state);
 143              		.loc 1 80 0
 144 004e 2046     		mov	r0, r4
 145 0050 FFF7FEFF 		bl	CyExitCriticalSection
 146              	.LVL10:
 147 0054 38BD     		pop	{r3, r4, r5, pc}
 148              	.LVL11:
ARM GAS  C:\Users\koseki\AppData\Local\Temp\ccwKSW3c.s 			page 5


 149              	.L13:
 150 0056 00BF     		.align	2
 151              	.L12:
 152 0058 00000000 		.word	.LANCHOR0
 153 005c 00000000 		.word	uartTxQueue
 154              		.cfi_endproc
 155              	.LFE64:
 156              		.size	uartTxIsr, .-uartTxIsr
 157              		.section	.text.putch,"ax",%progbits
 158              		.align	2
 159              		.global	putch
 160              		.thumb
 161              		.thumb_func
 162              		.type	putch, %function
 163              	putch:
 164              	.LFB65:
  81:USBUART_FIFO.c **** }
  82:USBUART_FIFO.c **** 
  83:USBUART_FIFO.c **** //
  84:USBUART_FIFO.c **** // Send one caracter to USBUART
  85:USBUART_FIFO.c **** //
  86:USBUART_FIFO.c **** void putch(const uint8 ch)
  87:USBUART_FIFO.c **** {
 165              		.loc 1 87 0
 166              		.cfi_startproc
 167              		@ args = 0, pretend = 0, frame = 0
 168              		@ frame_needed = 0, uses_anonymous_args = 0
 169              	.LVL12:
 170 0000 10B5     		push	{r4, lr}
 171              		.cfi_def_cfa_offset 8
 172              		.cfi_offset 4, -8
 173              		.cfi_offset 14, -4
 174 0002 0446     		mov	r4, r0
  88:USBUART_FIFO.c ****     if (ch == '\n')
 175              		.loc 1 88 0
 176 0004 0A28     		cmp	r0, #10
 177 0006 02D1     		bne	.L15
  89:USBUART_FIFO.c ****     {
  90:USBUART_FIFO.c ****         // Convert 'LF' to 'CR+LF'
  91:USBUART_FIFO.c ****         putch_sub('\r');
 178              		.loc 1 91 0
 179 0008 0D20     		movs	r0, #13
 180              	.LVL13:
 181 000a FFF7FEFF 		bl	putch_sub
 182              	.LVL14:
 183              	.L15:
  92:USBUART_FIFO.c ****     }
  93:USBUART_FIFO.c ****     putch_sub(ch);
 184              		.loc 1 93 0
 185 000e 2046     		mov	r0, r4
 186 0010 FFF7FEFF 		bl	putch_sub
 187              	.LVL15:
 188 0014 10BD     		pop	{r4, pc}
 189              		.cfi_endproc
 190              	.LFE65:
 191              		.size	putch, .-putch
 192 0016 00BF     		.section	.text.putstr,"ax",%progbits
ARM GAS  C:\Users\koseki\AppData\Local\Temp\ccwKSW3c.s 			page 6


 193              		.align	2
 194              		.global	putstr
 195              		.thumb
 196              		.thumb_func
 197              		.type	putstr, %function
 198              	putstr:
 199              	.LFB66:
  94:USBUART_FIFO.c **** }
  95:USBUART_FIFO.c **** 
  96:USBUART_FIFO.c **** //
  97:USBUART_FIFO.c **** // Send the string to USBUART
  98:USBUART_FIFO.c **** //
  99:USBUART_FIFO.c **** void putstr(const char *s)
 100:USBUART_FIFO.c **** {
 200              		.loc 1 100 0
 201              		.cfi_startproc
 202              		@ args = 0, pretend = 0, frame = 0
 203              		@ frame_needed = 0, uses_anonymous_args = 0
 204              	.LVL16:
 205 0000 10B5     		push	{r4, lr}
 206              		.cfi_def_cfa_offset 8
 207              		.cfi_offset 4, -8
 208              		.cfi_offset 14, -4
 209 0002 0446     		mov	r4, r0
 101:USBUART_FIFO.c ****     // Display one line.
 102:USBUART_FIFO.c ****     while (*s)
 210              		.loc 1 102 0
 211 0004 02E0     		b	.L18
 212              	.LVL17:
 213              	.L19:
 103:USBUART_FIFO.c ****         putch(*s++);
 214              		.loc 1 103 0
 215 0006 0134     		adds	r4, r4, #1
 216              	.LVL18:
 217 0008 FFF7FEFF 		bl	putch
 218              	.LVL19:
 219              	.L18:
 102:USBUART_FIFO.c ****         putch(*s++);
 220              		.loc 1 102 0
 221 000c 2078     		ldrb	r0, [r4]	@ zero_extendqisi2
 222 000e 0028     		cmp	r0, #0
 223 0010 F9D1     		bne	.L19
 104:USBUART_FIFO.c **** }
 224              		.loc 1 104 0
 225 0012 10BD     		pop	{r4, pc}
 226              		.cfi_endproc
 227              	.LFE66:
 228              		.size	putstr, .-putstr
 229              		.section	.text.uartRxIsr,"ax",%progbits
 230              		.align	2
 231              		.global	uartRxIsr
 232              		.thumb
 233              		.thumb_func
 234              		.type	uartRxIsr, %function
 235              	uartRxIsr:
 236              	.LFB67:
 105:USBUART_FIFO.c **** 
ARM GAS  C:\Users\koseki\AppData\Local\Temp\ccwKSW3c.s 			page 7


 106:USBUART_FIFO.c **** //
 107:USBUART_FIFO.c **** // Rx ISR
 108:USBUART_FIFO.c **** //
 109:USBUART_FIFO.c **** void uartRxIsr(void)
 110:USBUART_FIFO.c **** {
 237              		.loc 1 110 0
 238              		.cfi_startproc
 239              		@ args = 0, pretend = 0, frame = 0
 240              		@ frame_needed = 0, uses_anonymous_args = 0
 241 0000 10B5     		push	{r4, lr}
 242              		.cfi_def_cfa_offset 8
 243              		.cfi_offset 4, -8
 244              		.cfi_offset 14, -4
 111:USBUART_FIFO.c ****     uint8 state = CyEnterCriticalSection();
 245              		.loc 1 111 0
 246 0002 FFF7FEFF 		bl	CyEnterCriticalSection
 247              	.LVL20:
 248 0006 0446     		mov	r4, r0
 249              	.LVL21:
 112:USBUART_FIFO.c **** 
 113:USBUART_FIFO.c ****     // Rx buffer is empty
 114:USBUART_FIFO.c ****     if (uartRxIndex >= uartRxCount)
 250              		.loc 1 114 0
 251 0008 094B     		ldr	r3, .L24
 252 000a DA78     		ldrb	r2, [r3, #3]	@ zero_extendqisi2
 253 000c 1B79     		ldrb	r3, [r3, #4]	@ zero_extendqisi2
 254 000e 9A42     		cmp	r2, r3
 255 0010 09D3     		bcc	.L22
 115:USBUART_FIFO.c ****     {
 116:USBUART_FIFO.c ****         // Is there any data received?
 117:USBUART_FIFO.c ****         if (USBUART_DataIsReady())
 256              		.loc 1 117 0
 257 0012 FFF7FEFF 		bl	USBUART_DataIsReady
 258              	.LVL22:
 259 0016 30B1     		cbz	r0, .L22
 118:USBUART_FIFO.c ****         {
 119:USBUART_FIFO.c ****             // Get the Rx data to Rx buffer
 120:USBUART_FIFO.c ****             uartRxCount = USBUART_GetAll(uartRxQueue);
 260              		.loc 1 120 0
 261 0018 0648     		ldr	r0, .L24+4
 262 001a FFF7FEFF 		bl	USBUART_GetAll
 263              	.LVL23:
 264 001e 044B     		ldr	r3, .L24
 265 0020 1871     		strb	r0, [r3, #4]
 121:USBUART_FIFO.c ****             uartRxIndex = 0;
 266              		.loc 1 121 0
 267 0022 0022     		movs	r2, #0
 268 0024 DA70     		strb	r2, [r3, #3]
 269              	.L22:
 122:USBUART_FIFO.c ****         }
 123:USBUART_FIFO.c ****     }
 124:USBUART_FIFO.c ****     CyExitCriticalSection(state);
 270              		.loc 1 124 0
 271 0026 2046     		mov	r0, r4
 272 0028 FFF7FEFF 		bl	CyExitCriticalSection
 273              	.LVL24:
 274 002c 10BD     		pop	{r4, pc}
ARM GAS  C:\Users\koseki\AppData\Local\Temp\ccwKSW3c.s 			page 8


 275              	.LVL25:
 276              	.L25:
 277 002e 00BF     		.align	2
 278              	.L24:
 279 0030 00000000 		.word	.LANCHOR0
 280 0034 00000000 		.word	uartRxQueue
 281              		.cfi_endproc
 282              	.LFE67:
 283              		.size	uartRxIsr, .-uartRxIsr
 284              		.section	.text.getch_sub,"ax",%progbits
 285              		.align	2
 286              		.global	getch_sub
 287              		.thumb
 288              		.thumb_func
 289              		.type	getch_sub, %function
 290              	getch_sub:
 291              	.LFB68:
 125:USBUART_FIFO.c **** }
 126:USBUART_FIFO.c **** 
 127:USBUART_FIFO.c **** //
 128:USBUART_FIFO.c **** // Get one byte
 129:USBUART_FIFO.c **** //
 130:USBUART_FIFO.c **** uint8 getch_sub(void)
 131:USBUART_FIFO.c **** {
 292              		.loc 1 131 0
 293              		.cfi_startproc
 294              		@ args = 0, pretend = 0, frame = 0
 295              		@ frame_needed = 0, uses_anonymous_args = 0
 296 0000 10B5     		push	{r4, lr}
 297              		.cfi_def_cfa_offset 8
 298              		.cfi_offset 4, -8
 299              		.cfi_offset 14, -4
 300              	.LVL26:
 132:USBUART_FIFO.c ****     uint8 ch = -1;
 133:USBUART_FIFO.c ****     
 134:USBUART_FIFO.c ****     uint8 state = CyEnterCriticalSection();
 301              		.loc 1 134 0
 302 0002 FFF7FEFF 		bl	CyEnterCriticalSection
 303              	.LVL27:
 135:USBUART_FIFO.c ****     
 136:USBUART_FIFO.c ****     // Is there any data in the Rx buffer?
 137:USBUART_FIFO.c ****     if (uartRxIndex < uartRxCount)
 304              		.loc 1 137 0
 305 0006 084B     		ldr	r3, .L30
 306 0008 DA78     		ldrb	r2, [r3, #3]	@ zero_extendqisi2
 307 000a 1B79     		ldrb	r3, [r3, #4]	@ zero_extendqisi2
 308 000c 9A42     		cmp	r2, r3
 309 000e 05D2     		bcs	.L28
 138:USBUART_FIFO.c ****     {
 139:USBUART_FIFO.c ****         // If so, then get one character.
 140:USBUART_FIFO.c ****         ch = uartRxQueue[uartRxIndex++];
 310              		.loc 1 140 0
 311 0010 511C     		adds	r1, r2, #1
 312 0012 054B     		ldr	r3, .L30
 313 0014 D970     		strb	r1, [r3, #3]
 314 0016 054B     		ldr	r3, .L30+4
 315 0018 9C5C     		ldrb	r4, [r3, r2]	@ zero_extendqisi2
ARM GAS  C:\Users\koseki\AppData\Local\Temp\ccwKSW3c.s 			page 9


 316              	.LVL28:
 317 001a 00E0     		b	.L27
 318              	.LVL29:
 319              	.L28:
 132:USBUART_FIFO.c ****     
 320              		.loc 1 132 0
 321 001c FF24     		movs	r4, #255
 322              	.LVL30:
 323              	.L27:
 141:USBUART_FIFO.c ****     }
 142:USBUART_FIFO.c ****     CyExitCriticalSection(state);
 324              		.loc 1 142 0
 325 001e FFF7FEFF 		bl	CyExitCriticalSection
 326              	.LVL31:
 143:USBUART_FIFO.c ****     return ch;
 144:USBUART_FIFO.c **** }
 327              		.loc 1 144 0
 328 0022 2046     		mov	r0, r4
 329 0024 10BD     		pop	{r4, pc}
 330              	.LVL32:
 331              	.L31:
 332 0026 00BF     		.align	2
 333              	.L30:
 334 0028 00000000 		.word	.LANCHOR0
 335 002c 00000000 		.word	uartRxQueue
 336              		.cfi_endproc
 337              	.LFE68:
 338              		.size	getch_sub, .-getch_sub
 339              		.section	.text.getch,"ax",%progbits
 340              		.align	2
 341              		.global	getch
 342              		.thumb
 343              		.thumb_func
 344              		.type	getch, %function
 345              	getch:
 346              	.LFB69:
 145:USBUART_FIFO.c **** 
 146:USBUART_FIFO.c **** //
 147:USBUART_FIFO.c **** // Receive one character from USBUART
 148:USBUART_FIFO.c **** //
 149:USBUART_FIFO.c **** uint8 getch(void)
 150:USBUART_FIFO.c **** {
 347              		.loc 1 150 0
 348              		.cfi_startproc
 349              		@ args = 0, pretend = 0, frame = 0
 350              		@ frame_needed = 0, uses_anonymous_args = 0
 351 0000 08B5     		push	{r3, lr}
 352              		.cfi_def_cfa_offset 8
 353              		.cfi_offset 3, -8
 354              		.cfi_offset 14, -4
 151:USBUART_FIFO.c ****     uint8 ch = getch_sub();
 355              		.loc 1 151 0
 356 0002 FFF7FEFF 		bl	getch_sub
 357              	.LVL33:
 152:USBUART_FIFO.c ****     
 153:USBUART_FIFO.c ****     if (uartRxCRDetect && ch == '\n')
 358              		.loc 1 153 0
ARM GAS  C:\Users\koseki\AppData\Local\Temp\ccwKSW3c.s 			page 10


 359 0006 094B     		ldr	r3, .L36
 360 0008 5B79     		ldrb	r3, [r3, #5]	@ zero_extendqisi2
 361 000a 3BB1     		cbz	r3, .L33
 362              		.loc 1 153 0 is_stmt 0 discriminator 1
 363 000c 0A28     		cmp	r0, #10
 364 000e 05D1     		bne	.L33
 154:USBUART_FIFO.c ****     {
 155:USBUART_FIFO.c ****         uartRxCRDetect = 0;
 365              		.loc 1 155 0 is_stmt 1
 366 0010 0022     		movs	r2, #0
 367 0012 064B     		ldr	r3, .L36
 368 0014 5A71     		strb	r2, [r3, #5]
 156:USBUART_FIFO.c ****         ch = getch_sub();
 369              		.loc 1 156 0
 370 0016 FFF7FEFF 		bl	getch_sub
 371              	.LVL34:
 372 001a 08BD     		pop	{r3, pc}
 373              	.L33:
 157:USBUART_FIFO.c ****     }
 158:USBUART_FIFO.c ****     else if (ch == '\r')
 374              		.loc 1 158 0
 375 001c 0D28     		cmp	r0, #13
 376 001e 03D1     		bne	.L34
 377              	.LVL35:
 159:USBUART_FIFO.c ****     {
 160:USBUART_FIFO.c ****         ch = '\n';
 161:USBUART_FIFO.c ****         uartRxCRDetect = 1;
 378              		.loc 1 161 0
 379 0020 0122     		movs	r2, #1
 380 0022 024B     		ldr	r3, .L36
 381 0024 5A71     		strb	r2, [r3, #5]
 160:USBUART_FIFO.c ****         uartRxCRDetect = 1;
 382              		.loc 1 160 0
 383 0026 0A20     		movs	r0, #10
 384              	.LVL36:
 385              	.L34:
 162:USBUART_FIFO.c ****     }
 163:USBUART_FIFO.c ****     return ch;
 164:USBUART_FIFO.c **** }
 386              		.loc 1 164 0
 387 0028 08BD     		pop	{r3, pc}
 388              	.L37:
 389 002a 00BF     		.align	2
 390              	.L36:
 391 002c 00000000 		.word	.LANCHOR0
 392              		.cfi_endproc
 393              	.LFE69:
 394              		.size	getch, .-getch
 395              		.global	uartRxCRDetect
 396              		.global	uartRxIndex
 397              		.global	uartRxCount
 398              		.comm	uartRxQueue,64,4
 399              		.global	uartTxReject
 400              		.global	uartZlpRequired
 401              		.global	uartTxCount
 402              		.comm	uartTxQueue,64,4
 403              		.bss
ARM GAS  C:\Users\koseki\AppData\Local\Temp\ccwKSW3c.s 			page 11


 404              		.set	.LANCHOR0,. + 0
 405              		.type	uartTxCount, %object
 406              		.size	uartTxCount, 1
 407              	uartTxCount:
 408 0000 00       		.space	1
 409              		.type	uartZlpRequired, %object
 410              		.size	uartZlpRequired, 1
 411              	uartZlpRequired:
 412 0001 00       		.space	1
 413              		.type	uartTxReject, %object
 414              		.size	uartTxReject, 1
 415              	uartTxReject:
 416 0002 00       		.space	1
 417              		.type	uartRxIndex, %object
 418              		.size	uartRxIndex, 1
 419              	uartRxIndex:
 420 0003 00       		.space	1
 421              		.type	uartRxCount, %object
 422              		.size	uartRxCount, 1
 423              	uartRxCount:
 424 0004 00       		.space	1
 425              		.type	uartRxCRDetect, %object
 426              		.size	uartRxCRDetect, 1
 427              	uartRxCRDetect:
 428 0005 00       		.space	1
 429              		.text
 430              	.Letext0:
 431              		.file 2 "c:\\program files (x86)\\cypress\\psoc creator\\4.2\\psoc creator\\import\\gnu\\arm\\5.4.
 432              		.file 3 "c:\\program files (x86)\\cypress\\psoc creator\\4.2\\psoc creator\\import\\gnu\\arm\\5.4.
 433              		.file 4 "Generated_Source\\PSoC5/cytypes.h"
 434              		.file 5 "Generated_Source\\PSoC5/core_cm3.h"
 435              		.file 6 "Generated_Source\\PSoC5/CyLib.h"
 436              		.file 7 "Generated_Source\\PSoC5/USBUART_cdc.h"