ARM GAS  C:\Users\koseki\AppData\Local\Temp\ccQxtvhM.s 			page 1


   1              		.syntax unified
   2              		.cpu cortex-m3
   3              		.fpu softvfp
   4              		.eabi_attribute 20, 1
   5              		.eabi_attribute 21, 1
   6              		.eabi_attribute 23, 3
   7              		.eabi_attribute 24, 1
   8              		.eabi_attribute 25, 1
   9              		.eabi_attribute 26, 1
  10              		.eabi_attribute 30, 1
  11              		.eabi_attribute 34, 1
  12              		.eabi_attribute 18, 4
  13              		.thumb
  14              		.file	"com.c"
  15              		.text
  16              	.Ltext0:
  17              		.cfi_sections	.debug_frame
  18              		.section	.text.Init_COM,"ax",%progbits
  19              		.align	2
  20              		.global	Init_COM
  21              		.thumb
  22              		.thumb_func
  23              		.type	Init_COM, %function
  24              	Init_COM:
  25              	.LFB63:
  26              		.file 1 "..\\API\\com.c"
   1:..\API/com.c  **** //=========================================================
   2:..\API/com.c  **** // PSoC5LP Project
   3:..\API/com.c  **** //=========================================================
   4:..\API/com.c  **** // File Name : com.c
   5:..\API/com.c  **** // Function  : COM Port Control Routime
   6:..\API/com.c  **** //---------------------------------------------------------
   7:..\API/com.c  **** // Rev.01 2013.02.04 Munetomo Maruyama
   8:..\API/com.c  **** //---------------------------------------------------------
   9:..\API/com.c  **** // Copyright (C) 2012-2013 Munetomo Maruyama
  10:..\API/com.c  **** //=========================================================
  11:..\API/com.c  **** // ---- License Information -------------------------------
  12:..\API/com.c  **** // Anyone can FREELY use this code fully or partially
  13:..\API/com.c  **** // under conditions shown below.
  14:..\API/com.c  **** // 1. You may use this code only for individual purpose,
  15:..\API/com.c  **** //    and educational purpose.
  16:..\API/com.c  **** //    Do not use this code for business even if partially.
  17:..\API/com.c  **** // 2. You can copy, modify and distribute this code.
  18:..\API/com.c  **** // 3. You should remain this header text in your codes
  19:..\API/com.c  **** //   including Copyright credit and License Information.
  20:..\API/com.c  **** // 4. Your codes should inherit this license information.
  21:..\API/com.c  **** //=========================================================
  22:..\API/com.c  **** // ---- Patent Notice -------------------------------------
  23:..\API/com.c  **** // I have not cared whether this system (hw + sw) causes
  24:..\API/com.c  **** // infringement on the patent, copyright, trademark,
  25:..\API/com.c  **** // or trade secret rights of others. You have all
  26:..\API/com.c  **** // responsibilities for determining if your designs
  27:..\API/com.c  **** // and products infringe on the intellectual property
  28:..\API/com.c  **** // rights of others, when you use technical information
  29:..\API/com.c  **** // included in this system for your business.
  30:..\API/com.c  **** //=========================================================
  31:..\API/com.c  **** // ---- Disclaimers ---------------------------------------
ARM GAS  C:\Users\koseki\AppData\Local\Temp\ccQxtvhM.s 			page 2


  32:..\API/com.c  **** // The function and reliability of this system are not
  33:..\API/com.c  **** // guaranteed. They may cause any damages to loss of
  34:..\API/com.c  **** // properties, data, money, profits, life, or business.
  35:..\API/com.c  **** // By adopting this system even partially, you assume
  36:..\API/com.c  **** // all responsibility for its use.
  37:..\API/com.c  **** //=========================================================
  38:..\API/com.c  **** 
  39:..\API/com.c  **** #include <project.h>
  40:..\API/com.c  **** #include <stdarg.h>
  41:..\API/com.c  **** #include "com.h"
  42:..\API/com.c  **** #include "utility.h"
  43:..\API/com.c  **** 
  44:..\API/com.c  **** //----------------
  45:..\API/com.c  **** // Defines
  46:..\API/com.c  **** //----------------
  47:..\API/com.c  **** #define USBUART_TIMEOUT 2000000 // Timeout for USB Connection (adjustment might be required)
  48:..\API/com.c  **** 
  49:..\API/com.c  **** //----------------
  50:..\API/com.c  **** // Globals
  51:..\API/com.c  **** //----------------
  52:..\API/com.c  **** volatile uint32 gUSBUART_Ready;
  53:..\API/com.c  **** 
  54:..\API/com.c  **** //=====================
  55:..\API/com.c  **** // Initialize COM
  56:..\API/com.c  **** //=====================
  57:..\API/com.c  **** void Init_COM(void)
  58:..\API/com.c  **** {
  27              		.loc 1 58 0
  28              		.cfi_startproc
  29              		@ args = 0, pretend = 0, frame = 0
  30              		@ frame_needed = 0, uses_anonymous_args = 0
  31 0000 10B5     		push	{r4, lr}
  32              		.cfi_def_cfa_offset 8
  33              		.cfi_offset 4, -8
  34              		.cfi_offset 14, -4
  59:..\API/com.c  ****     uint32 i;
  60:..\API/com.c  **** 
  61:..\API/com.c  ****     // 2016.5.11 koseki
  62:..\API/com.c  ****     //USBUART_1_Start(0, USBUART_1_3V_OPERATION);
  63:..\API/com.c  ****     USBUART_1_Start(0, USBUART_1_DWR_VDDD_OPERATION);
  35              		.loc 1 63 0
  36 0002 0020     		movs	r0, #0
  37 0004 0221     		movs	r1, #2
  38 0006 FFF7FEFF 		bl	USBUART_1_Start
  39              	.LVL0:
  64:..\API/com.c  **** 
  65:..\API/com.c  ****     //while(!USBUART_1_bGetConfiguration());
  66:..\API/com.c  ****     for (i = 0; i < USBUART_TIMEOUT; i++)
  40              		.loc 1 66 0
  41 000a 0024     		movs	r4, #0
  42 000c 06E0     		b	.L2
  43              	.LVL1:
  44              	.L4:
  67:..\API/com.c  ****     {
  68:..\API/com.c  ****         gUSBUART_Ready = USBUART_1_bGetConfiguration();
  45              		.loc 1 68 0
  46 000e FFF7FEFF 		bl	USBUART_1_GetConfiguration
ARM GAS  C:\Users\koseki\AppData\Local\Temp\ccQxtvhM.s 			page 3


  47              	.LVL2:
  48 0012 084B     		ldr	r3, .L8
  49 0014 1860     		str	r0, [r3]
  69:..\API/com.c  ****         if (gUSBUART_Ready) break;
  50              		.loc 1 69 0
  51 0016 1B68     		ldr	r3, [r3]
  52 0018 1BB9     		cbnz	r3, .L3
  66:..\API/com.c  ****     {
  53              		.loc 1 66 0 discriminator 2
  54 001a 0134     		adds	r4, r4, #1
  55              	.LVL3:
  56              	.L2:
  66:..\API/com.c  ****     {
  57              		.loc 1 66 0 is_stmt 0 discriminator 1
  58 001c 064B     		ldr	r3, .L8+4
  59 001e 9C42     		cmp	r4, r3
  60 0020 F5D9     		bls	.L4
  61              	.L3:
  70:..\API/com.c  ****     }
  71:..\API/com.c  ****     
  72:..\API/com.c  ****     // Initiaize UABUART
  73:..\API/com.c  ****     if (gUSBUART_Ready)
  62              		.loc 1 73 0 is_stmt 1
  63 0022 044B     		ldr	r3, .L8
  64 0024 1B68     		ldr	r3, [r3]
  65 0026 13B1     		cbz	r3, .L5
  74:..\API/com.c  ****         USBUART_1_CDC_Init();
  66              		.loc 1 74 0
  67 0028 FFF7FEFF 		bl	USBUART_1_CDC_Init
  68              	.LVL4:
  69 002c 10BD     		pop	{r4, pc}
  70              	.LVL5:
  71              	.L5:
  75:..\API/com.c  ****     else
  76:..\API/com.c  ****         USBUART_1_Stop();
  72              		.loc 1 76 0
  73 002e FFF7FEFF 		bl	USBUART_1_Stop
  74              	.LVL6:
  75 0032 10BD     		pop	{r4, pc}
  76              	.LVL7:
  77              	.L9:
  78              		.align	2
  79              	.L8:
  80 0034 00000000 		.word	gUSBUART_Ready
  81 0038 7F841E00 		.word	1999999
  82              		.cfi_endproc
  83              	.LFE63:
  84              		.size	Init_COM, .-Init_COM
  85              		.section	.text.COM_printf,"ax",%progbits
  86              		.align	2
  87              		.global	COM_printf
  88              		.thumb
  89              		.thumb_func
  90              		.type	COM_printf, %function
  91              	COM_printf:
  92              	.LFB64:
  77:..\API/com.c  ****     
ARM GAS  C:\Users\koseki\AppData\Local\Temp\ccQxtvhM.s 			page 4


  78:..\API/com.c  ****     // Dummy Tx to establish Terminal on PC
  79:..\API/com.c  ****     //COM_printf("This is a Dummy Tx.\r\n");
  80:..\API/com.c  **** }
  81:..\API/com.c  **** 
  82:..\API/com.c  **** //=====================
  83:..\API/com.c  **** // COM printf
  84:..\API/com.c  **** //=====================
  85:..\API/com.c  **** void COM_printf(const char *format, ...)
  86:..\API/com.c  **** {
  93              		.loc 1 86 0
  94              		.cfi_startproc
  95              		@ args = 4, pretend = 16, frame = 264
  96              		@ frame_needed = 0, uses_anonymous_args = 1
  97              	.LVL8:
  98 0000 0FB4     		push	{r0, r1, r2, r3}
  99              		.cfi_def_cfa_offset 16
 100              		.cfi_offset 0, -16
 101              		.cfi_offset 1, -12
 102              		.cfi_offset 2, -8
 103              		.cfi_offset 3, -4
 104 0002 30B5     		push	{r4, r5, lr}
 105              		.cfi_def_cfa_offset 28
 106              		.cfi_offset 4, -28
 107              		.cfi_offset 5, -24
 108              		.cfi_offset 14, -20
 109 0004 C3B0     		sub	sp, sp, #268
 110              		.cfi_def_cfa_offset 296
  87:..\API/com.c  ****     va_list ap;
  88:..\API/com.c  ****     uint8 buf[256];
  89:..\API/com.c  ****     uint8 *pStr;
  90:..\API/com.c  ****     
  91:..\API/com.c  ****     if (gUSBUART_Ready == 0) return;
 111              		.loc 1 91 0
 112 0006 0F4B     		ldr	r3, .L16
 113 0008 1B68     		ldr	r3, [r3]
 114 000a ABB1     		cbz	r3, .L10
  92:..\API/com.c  **** 
  93:..\API/com.c  ****     va_start(ap, format);
 115              		.loc 1 93 0
 116 000c 47AB     		add	r3, sp, #284
 117 000e 4193     		str	r3, [sp, #260]
  94:..\API/com.c  ****     xvsnprintf(buf, 256, format, ap);
 118              		.loc 1 94 0
 119 0010 01A8     		add	r0, sp, #4
 120 0012 4FF48071 		mov	r1, #256
 121 0016 469A     		ldr	r2, [sp, #280]
 122 0018 FFF7FEFF 		bl	xvsnprintf
 123              	.LVL9:
  95:..\API/com.c  ****     va_end(ap);
  96:..\API/com.c  **** 
  97:..\API/com.c  ****     pStr = buf;
 124              		.loc 1 97 0
 125 001c 01AC     		add	r4, sp, #4
 126              	.LVL10:
  98:..\API/com.c  ****     while(*pStr != '\0')
 127              		.loc 1 98 0
 128 001e 08E0     		b	.L12
ARM GAS  C:\Users\koseki\AppData\Local\Temp\ccQxtvhM.s 			page 5


 129              	.L13:
  99:..\API/com.c  ****     {
 100:..\API/com.c  ****         while (USBUART_1_CDCIsReady() == 0);
 130              		.loc 1 100 0 discriminator 1
 131 0020 FFF7FEFF 		bl	USBUART_1_CDCIsReady
 132              	.LVL11:
 133 0024 0028     		cmp	r0, #0
 134 0026 FBD0     		beq	.L13
 101:..\API/com.c  ****         USBUART_1_PutChar(*pStr++);
 135              		.loc 1 101 0
 136 0028 651C     		adds	r5, r4, #1
 137              	.LVL12:
 138 002a 2078     		ldrb	r0, [r4]	@ zero_extendqisi2
 139 002c FFF7FEFF 		bl	USBUART_1_PutChar
 140              	.LVL13:
 141 0030 2C46     		mov	r4, r5
 142              	.LVL14:
 143              	.L12:
  98:..\API/com.c  ****     while(*pStr != '\0')
 144              		.loc 1 98 0
 145 0032 2378     		ldrb	r3, [r4]	@ zero_extendqisi2
 146 0034 002B     		cmp	r3, #0
 147 0036 F3D1     		bne	.L13
 148              	.LVL15:
 149              	.L10:
 102:..\API/com.c  ****     }
 103:..\API/com.c  **** }
 150              		.loc 1 103 0
 151 0038 43B0     		add	sp, sp, #268
 152              		.cfi_def_cfa_offset 28
 153              		@ sp needed
 154 003a BDE83040 		pop	{r4, r5, lr}
 155              		.cfi_restore 14
 156              		.cfi_restore 5
 157              		.cfi_restore 4
 158              		.cfi_def_cfa_offset 16
 159 003e 04B0     		add	sp, sp, #16
 160              		.cfi_restore 3
 161              		.cfi_restore 2
 162              		.cfi_restore 1
 163              		.cfi_restore 0
 164              		.cfi_def_cfa_offset 0
 165 0040 7047     		bx	lr
 166              	.L17:
 167 0042 00BF     		.align	2
 168              	.L16:
 169 0044 00000000 		.word	gUSBUART_Ready
 170              		.cfi_endproc
 171              	.LFE64:
 172              		.size	COM_printf, .-COM_printf
 173              		.section	.text.COM_Wait_PC_Term,"ax",%progbits
 174              		.align	2
 175              		.global	COM_Wait_PC_Term
 176              		.thumb
 177              		.thumb_func
 178              		.type	COM_Wait_PC_Term, %function
 179              	COM_Wait_PC_Term:
ARM GAS  C:\Users\koseki\AppData\Local\Temp\ccQxtvhM.s 			page 6


 180              	.LFB65:
 104:..\API/com.c  **** 
 105:..\API/com.c  **** //===========================
 106:..\API/com.c  **** // Wait for setup PC Terminal
 107:..\API/com.c  **** //===========================
 108:..\API/com.c  **** void COM_Wait_PC_Term(void)
 109:..\API/com.c  **** {
 181              		.loc 1 109 0
 182              		.cfi_startproc
 183              		@ args = 0, pretend = 0, frame = 8
 184              		@ frame_needed = 0, uses_anonymous_args = 0
 110:..\API/com.c  ****     uint32 i;
 111:..\API/com.c  ****     uint8  len;
 112:..\API/com.c  ****     uint8  dummy;
 113:..\API/com.c  ****     //
 114:..\API/com.c  ****     if (gUSBUART_Ready == 0) return;
 185              		.loc 1 114 0
 186 0000 0E4B     		ldr	r3, .L27
 187 0002 1B68     		ldr	r3, [r3]
 188 0004 CBB1     		cbz	r3, .L26
 109:..\API/com.c  ****     uint32 i;
 189              		.loc 1 109 0
 190 0006 30B5     		push	{r4, r5, lr}
 191              		.cfi_def_cfa_offset 12
 192              		.cfi_offset 4, -12
 193              		.cfi_offset 5, -8
 194              		.cfi_offset 14, -4
 195 0008 83B0     		sub	sp, sp, #12
 196              		.cfi_def_cfa_offset 24
 197              	.L21:
 115:..\API/com.c  ****     //
 116:..\API/com.c  ****     while(1)
 117:..\API/com.c  ****     {
 118:..\API/com.c  ****         COM_printf("Push any Key to Start...\r");
 198              		.loc 1 118 0
 199 000a 0D48     		ldr	r0, .L27+4
 200 000c FFF7FEFF 		bl	COM_printf
 201              	.LVL16:
 119:..\API/com.c  ****         len = USBUART_1_DataIsReady();
 202              		.loc 1 119 0
 203 0010 FFF7FEFF 		bl	USBUART_1_DataIsReady
 204              	.LVL17:
 120:..\API/com.c  ****         if (len > 0) break;
 205              		.loc 1 120 0
 206 0014 0546     		mov	r5, r0
 207 0016 0028     		cmp	r0, #0
 208 0018 F7D0     		beq	.L21
 209 001a 06E0     		b	.L24
 210              	.LVL18:
 211              	.L22:
 121:..\API/com.c  ****     }
 122:..\API/com.c  ****     for (i = 0; i < len; i++) USBUART_1_GetData(&dummy, 1);
 212              		.loc 1 122 0 discriminator 3
 213 001c 0DF10700 		add	r0, sp, #7
 214 0020 0121     		movs	r1, #1
 215 0022 FFF7FEFF 		bl	USBUART_1_GetData
 216              	.LVL19:
ARM GAS  C:\Users\koseki\AppData\Local\Temp\ccQxtvhM.s 			page 7


 217 0026 0134     		adds	r4, r4, #1
 218              	.LVL20:
 219 0028 00E0     		b	.L20
 220              	.LVL21:
 221              	.L24:
 222 002a 0024     		movs	r4, #0
 223              	.LVL22:
 224              	.L20:
 225              		.loc 1 122 0 is_stmt 0 discriminator 1
 226 002c A542     		cmp	r5, r4
 227 002e F5D8     		bhi	.L22
 123:..\API/com.c  ****     COM_printf("\r\nOK!\r\n");
 228              		.loc 1 123 0 is_stmt 1
 229 0030 0448     		ldr	r0, .L27+8
 230 0032 FFF7FEFF 		bl	COM_printf
 231              	.LVL23:
 124:..\API/com.c  **** }
 232              		.loc 1 124 0
 233 0036 03B0     		add	sp, sp, #12
 234              		.cfi_def_cfa_offset 12
 235              		@ sp needed
 236 0038 30BD     		pop	{r4, r5, pc}
 237              	.LVL24:
 238              	.L26:
 239              		.cfi_def_cfa_offset 0
 240              		.cfi_restore 4
 241              		.cfi_restore 5
 242              		.cfi_restore 14
 243 003a 7047     		bx	lr
 244              	.L28:
 245              		.align	2
 246              	.L27:
 247 003c 00000000 		.word	gUSBUART_Ready
 248 0040 00000000 		.word	.LC0
 249 0044 1C000000 		.word	.LC1
 250              		.cfi_endproc
 251              	.LFE65:
 252              		.size	COM_Wait_PC_Term, .-COM_Wait_PC_Term
 253              		.comm	gUSBUART_Ready,4,4
 254              		.section	.rodata.str1.4,"aMS",%progbits,1
 255              		.align	2
 256              	.LC0:
 257 0000 50757368 		.ascii	"Push any Key to Start...\015\000"
 257      20616E79 
 257      204B6579 
 257      20746F20 
 257      53746172 
 258 001a 0000     		.space	2
 259              	.LC1:
 260 001c 0D0A4F4B 		.ascii	"\015\012OK!\015\012\000"
 260      210D0A00 
 261              		.text
 262              	.Letext0:
 263              		.file 2 "c:\\program files (x86)\\cypress\\psoc creator\\3.3\\psoc creator\\import\\gnu\\arm\\4.9.
 264              		.file 3 "c:\\program files (x86)\\cypress\\psoc creator\\3.3\\psoc creator\\import\\gnu\\arm\\4.9.
 265              		.file 4 "Generated_Source\\PSoC5/cytypes.h"
 266              		.file 5 "c:\\program files (x86)\\cypress\\psoc creator\\3.3\\psoc creator\\import\\gnu\\arm\\4.9.
ARM GAS  C:\Users\koseki\AppData\Local\Temp\ccQxtvhM.s 			page 8


 267              		.file 6 "Generated_Source\\PSoC5/core_cm3.h"
 268              		.file 7 "Generated_Source\\PSoC5/USBUART_1.h"
 269              		.file 8 "Generated_Source\\PSoC5/USBUART_1_cdc.h"
 270              		.file 9 "<built-in>"
 271              		.file 10 "..\\API\\utility.h"