ARM GAS  C:\Users\koseki\AppData\Local\Temp\cc9XqZkK.s 			page 1


   1              		.syntax unified
   2              		.cpu cortex-m3
   3              		.fpu softvfp
   4              		.eabi_attribute 20, 1
   5              		.eabi_attribute 21, 1
   6              		.eabi_attribute 23, 3
   7              		.eabi_attribute 24, 1
   8              		.eabi_attribute 25, 1
   9              		.eabi_attribute 26, 1
  10              		.eabi_attribute 30, 1
  11              		.eabi_attribute 34, 1
  12              		.eabi_attribute 18, 4
  13              		.thumb
  14              		.file	"cyfitter_cfg.c"
  15              		.text
  16              	.Ltext0:
  17              		.cfi_sections	.debug_frame
  18              		.section	.text.CyClockStartupError,"ax",%progbits
  19              		.align	2
  20              		.thumb
  21              		.thumb_func
  22              		.type	CyClockStartupError, %function
  23              	CyClockStartupError:
  24              	.LFB3:
  25              		.file 1 "Generated_Source\\PSoC5\\cyfitter_cfg.c"
   1:Generated_Source\PSoC5/cyfitter_cfg.c **** /*******************************************************************************
   2:Generated_Source\PSoC5/cyfitter_cfg.c **** * File Name: cyfitter_cfg.c
   3:Generated_Source\PSoC5/cyfitter_cfg.c **** * 
   4:Generated_Source\PSoC5/cyfitter_cfg.c **** * PSoC Creator  4.0 Update 1
   5:Generated_Source\PSoC5/cyfitter_cfg.c **** *
   6:Generated_Source\PSoC5/cyfitter_cfg.c **** * Description:
   7:Generated_Source\PSoC5/cyfitter_cfg.c **** * This file contains device initialization code.
   8:Generated_Source\PSoC5/cyfitter_cfg.c **** * Except for the user defined sections in CyClockStartupError(), this file should not be modified.
   9:Generated_Source\PSoC5/cyfitter_cfg.c **** * This file is automatically generated by PSoC Creator.
  10:Generated_Source\PSoC5/cyfitter_cfg.c **** *
  11:Generated_Source\PSoC5/cyfitter_cfg.c **** ********************************************************************************
  12:Generated_Source\PSoC5/cyfitter_cfg.c **** * Copyright (c) 2007-2016 Cypress Semiconductor.  All rights reserved.
  13:Generated_Source\PSoC5/cyfitter_cfg.c **** * You may use this file only in accordance with the license, terms, conditions, 
  14:Generated_Source\PSoC5/cyfitter_cfg.c **** * disclaimers, and limitations in the end user license agreement accompanying 
  15:Generated_Source\PSoC5/cyfitter_cfg.c **** * the software package with which this file was provided.
  16:Generated_Source\PSoC5/cyfitter_cfg.c **** ********************************************************************************/
  17:Generated_Source\PSoC5/cyfitter_cfg.c **** 
  18:Generated_Source\PSoC5/cyfitter_cfg.c **** #include <string.h>
  19:Generated_Source\PSoC5/cyfitter_cfg.c **** #include "cytypes.h"
  20:Generated_Source\PSoC5/cyfitter_cfg.c **** #include "cydevice_trm.h"
  21:Generated_Source\PSoC5/cyfitter_cfg.c **** #include "cyfitter.h"
  22:Generated_Source\PSoC5/cyfitter_cfg.c **** #include "CyLib.h"
  23:Generated_Source\PSoC5/cyfitter_cfg.c **** #include "cyfitter_cfg.h"
  24:Generated_Source\PSoC5/cyfitter_cfg.c **** 
  25:Generated_Source\PSoC5/cyfitter_cfg.c **** #define CY_NEED_CYCLOCKSTARTUPERROR 1
  26:Generated_Source\PSoC5/cyfitter_cfg.c **** 
  27:Generated_Source\PSoC5/cyfitter_cfg.c **** 
  28:Generated_Source\PSoC5/cyfitter_cfg.c **** #if defined(__GNUC__) || defined(__ARMCC_VERSION)
  29:Generated_Source\PSoC5/cyfitter_cfg.c ****     #define CYPACKED 
  30:Generated_Source\PSoC5/cyfitter_cfg.c ****     #define CYPACKED_ATTR __attribute__ ((packed))
  31:Generated_Source\PSoC5/cyfitter_cfg.c ****     #define CYALIGNED __attribute__ ((aligned))
  32:Generated_Source\PSoC5/cyfitter_cfg.c ****     #define CY_CFG_UNUSED __attribute__ ((unused))
ARM GAS  C:\Users\koseki\AppData\Local\Temp\cc9XqZkK.s 			page 2


  33:Generated_Source\PSoC5/cyfitter_cfg.c ****     #ifndef CY_CFG_SECTION
  34:Generated_Source\PSoC5/cyfitter_cfg.c ****         #define CY_CFG_SECTION __attribute__ ((section(".psocinit")))
  35:Generated_Source\PSoC5/cyfitter_cfg.c ****     #endif
  36:Generated_Source\PSoC5/cyfitter_cfg.c ****     
  37:Generated_Source\PSoC5/cyfitter_cfg.c ****     #if defined(__ARMCC_VERSION)
  38:Generated_Source\PSoC5/cyfitter_cfg.c ****         #define CY_CFG_MEMORY_BARRIER() __memory_changed()
  39:Generated_Source\PSoC5/cyfitter_cfg.c ****     #else
  40:Generated_Source\PSoC5/cyfitter_cfg.c ****         #define CY_CFG_MEMORY_BARRIER() __sync_synchronize()
  41:Generated_Source\PSoC5/cyfitter_cfg.c ****     #endif
  42:Generated_Source\PSoC5/cyfitter_cfg.c ****     
  43:Generated_Source\PSoC5/cyfitter_cfg.c **** #elif defined(__ICCARM__)
  44:Generated_Source\PSoC5/cyfitter_cfg.c ****     #include <intrinsics.h>
  45:Generated_Source\PSoC5/cyfitter_cfg.c **** 
  46:Generated_Source\PSoC5/cyfitter_cfg.c ****     #define CYPACKED __packed
  47:Generated_Source\PSoC5/cyfitter_cfg.c ****     #define CYPACKED_ATTR 
  48:Generated_Source\PSoC5/cyfitter_cfg.c ****     #define CYALIGNED _Pragma("data_alignment=4")
  49:Generated_Source\PSoC5/cyfitter_cfg.c ****     #define CY_CFG_UNUSED _Pragma("diag_suppress=Pe177")
  50:Generated_Source\PSoC5/cyfitter_cfg.c ****     #define CY_CFG_SECTION _Pragma("location=\".psocinit\"")
  51:Generated_Source\PSoC5/cyfitter_cfg.c ****     
  52:Generated_Source\PSoC5/cyfitter_cfg.c ****     #define CY_CFG_MEMORY_BARRIER() __DMB()
  53:Generated_Source\PSoC5/cyfitter_cfg.c ****     
  54:Generated_Source\PSoC5/cyfitter_cfg.c **** #else
  55:Generated_Source\PSoC5/cyfitter_cfg.c ****     #error Unsupported toolchain
  56:Generated_Source\PSoC5/cyfitter_cfg.c **** #endif
  57:Generated_Source\PSoC5/cyfitter_cfg.c **** 
  58:Generated_Source\PSoC5/cyfitter_cfg.c **** 
  59:Generated_Source\PSoC5/cyfitter_cfg.c **** CY_CFG_UNUSED
  60:Generated_Source\PSoC5/cyfitter_cfg.c **** static void CYMEMZERO(void *s, size_t n);
  61:Generated_Source\PSoC5/cyfitter_cfg.c **** CY_CFG_UNUSED
  62:Generated_Source\PSoC5/cyfitter_cfg.c **** static void CYMEMZERO(void *s, size_t n)
  63:Generated_Source\PSoC5/cyfitter_cfg.c **** {
  64:Generated_Source\PSoC5/cyfitter_cfg.c **** 	(void)memset(s, 0, n);
  65:Generated_Source\PSoC5/cyfitter_cfg.c **** }
  66:Generated_Source\PSoC5/cyfitter_cfg.c **** CY_CFG_UNUSED
  67:Generated_Source\PSoC5/cyfitter_cfg.c **** static void CYCONFIGCPY(void *dest, const void *src, size_t n);
  68:Generated_Source\PSoC5/cyfitter_cfg.c **** CY_CFG_UNUSED
  69:Generated_Source\PSoC5/cyfitter_cfg.c **** static void CYCONFIGCPY(void *dest, const void *src, size_t n)
  70:Generated_Source\PSoC5/cyfitter_cfg.c **** {
  71:Generated_Source\PSoC5/cyfitter_cfg.c **** 	(void)memcpy(dest, src, n);
  72:Generated_Source\PSoC5/cyfitter_cfg.c **** }
  73:Generated_Source\PSoC5/cyfitter_cfg.c **** CY_CFG_UNUSED
  74:Generated_Source\PSoC5/cyfitter_cfg.c **** static void CYCONFIGCPYCODE(void *dest, const void *src, size_t n);
  75:Generated_Source\PSoC5/cyfitter_cfg.c **** CY_CFG_UNUSED
  76:Generated_Source\PSoC5/cyfitter_cfg.c **** static void CYCONFIGCPYCODE(void *dest, const void *src, size_t n)
  77:Generated_Source\PSoC5/cyfitter_cfg.c **** {
  78:Generated_Source\PSoC5/cyfitter_cfg.c **** 	(void)memcpy(dest, src, n);
  79:Generated_Source\PSoC5/cyfitter_cfg.c **** }
  80:Generated_Source\PSoC5/cyfitter_cfg.c **** 
  81:Generated_Source\PSoC5/cyfitter_cfg.c **** 
  82:Generated_Source\PSoC5/cyfitter_cfg.c **** 
  83:Generated_Source\PSoC5/cyfitter_cfg.c **** 
  84:Generated_Source\PSoC5/cyfitter_cfg.c **** /* Clock startup error codes                                                   */
  85:Generated_Source\PSoC5/cyfitter_cfg.c **** #define CYCLOCKSTART_NO_ERROR    0u
  86:Generated_Source\PSoC5/cyfitter_cfg.c **** #define CYCLOCKSTART_XTAL_ERROR  1u
  87:Generated_Source\PSoC5/cyfitter_cfg.c **** #define CYCLOCKSTART_32KHZ_ERROR 2u
  88:Generated_Source\PSoC5/cyfitter_cfg.c **** #define CYCLOCKSTART_PLL_ERROR   3u
  89:Generated_Source\PSoC5/cyfitter_cfg.c **** 
ARM GAS  C:\Users\koseki\AppData\Local\Temp\cc9XqZkK.s 			page 3


  90:Generated_Source\PSoC5/cyfitter_cfg.c **** 
  91:Generated_Source\PSoC5/cyfitter_cfg.c **** #ifdef CY_NEED_CYCLOCKSTARTUPERROR
  92:Generated_Source\PSoC5/cyfitter_cfg.c **** /*******************************************************************************
  93:Generated_Source\PSoC5/cyfitter_cfg.c **** * Function Name: CyClockStartupError
  94:Generated_Source\PSoC5/cyfitter_cfg.c **** ********************************************************************************
  95:Generated_Source\PSoC5/cyfitter_cfg.c **** * Summary:
  96:Generated_Source\PSoC5/cyfitter_cfg.c **** *  If an error is encountered during clock configuration (crystal startup error,
  97:Generated_Source\PSoC5/cyfitter_cfg.c **** *  PLL lock error, etc.), the system will end up here.  Unless reimplemented by
  98:Generated_Source\PSoC5/cyfitter_cfg.c **** *  the customer, this function will stop in an infinite loop.
  99:Generated_Source\PSoC5/cyfitter_cfg.c **** *
 100:Generated_Source\PSoC5/cyfitter_cfg.c **** * Parameters:
 101:Generated_Source\PSoC5/cyfitter_cfg.c **** *   void
 102:Generated_Source\PSoC5/cyfitter_cfg.c **** *
 103:Generated_Source\PSoC5/cyfitter_cfg.c **** * Return:
 104:Generated_Source\PSoC5/cyfitter_cfg.c **** *   void
 105:Generated_Source\PSoC5/cyfitter_cfg.c **** *
 106:Generated_Source\PSoC5/cyfitter_cfg.c **** *******************************************************************************/
 107:Generated_Source\PSoC5/cyfitter_cfg.c **** CY_CFG_UNUSED
 108:Generated_Source\PSoC5/cyfitter_cfg.c **** static void CyClockStartupError(uint8 errorCode);
 109:Generated_Source\PSoC5/cyfitter_cfg.c **** CY_CFG_UNUSED
 110:Generated_Source\PSoC5/cyfitter_cfg.c **** static void CyClockStartupError(uint8 errorCode)
 111:Generated_Source\PSoC5/cyfitter_cfg.c **** {
  26              		.loc 1 111 0
  27              		.cfi_startproc
  28              		@ Volatile: function does not return.
  29              		@ args = 0, pretend = 0, frame = 0
  30              		@ frame_needed = 0, uses_anonymous_args = 0
  31              		@ link register save eliminated.
  32              	.LVL0:
  33              	.L2:
 112:Generated_Source\PSoC5/cyfitter_cfg.c ****     /* To remove the compiler warning if errorCode not used.                */
 113:Generated_Source\PSoC5/cyfitter_cfg.c ****     errorCode = errorCode;
 114:Generated_Source\PSoC5/cyfitter_cfg.c **** 
 115:Generated_Source\PSoC5/cyfitter_cfg.c ****     /* If we have a clock startup error (bad MHz crystal, PLL lock, etc.),  */
 116:Generated_Source\PSoC5/cyfitter_cfg.c ****     /* we will end up here to allow the customer to implement something to  */
 117:Generated_Source\PSoC5/cyfitter_cfg.c ****     /* deal with the clock condition.                                       */
 118:Generated_Source\PSoC5/cyfitter_cfg.c **** 
 119:Generated_Source\PSoC5/cyfitter_cfg.c **** #ifdef CY_CFG_CLOCK_STARTUP_ERROR_CALLBACK
 120:Generated_Source\PSoC5/cyfitter_cfg.c **** 	CY_CFG_Clock_Startup_ErrorCallback();
 121:Generated_Source\PSoC5/cyfitter_cfg.c **** #else
 122:Generated_Source\PSoC5/cyfitter_cfg.c **** 	/*  If not using CY_CFG_CLOCK_STARTUP_ERROR_CALLBACK, place your clock startup code here. */
 123:Generated_Source\PSoC5/cyfitter_cfg.c ****     /* `#START CyClockStartupError` */
 124:Generated_Source\PSoC5/cyfitter_cfg.c **** 
 125:Generated_Source\PSoC5/cyfitter_cfg.c ****     /* If we have a clock startup error (bad MHz crystal, PLL lock, etc.),  */
 126:Generated_Source\PSoC5/cyfitter_cfg.c ****     /* we will end up here to allow the customer to implement something to  */
 127:Generated_Source\PSoC5/cyfitter_cfg.c ****     /* deal with the clock condition.                                       */
 128:Generated_Source\PSoC5/cyfitter_cfg.c **** 
 129:Generated_Source\PSoC5/cyfitter_cfg.c ****     /* `#END` */
 130:Generated_Source\PSoC5/cyfitter_cfg.c **** 
 131:Generated_Source\PSoC5/cyfitter_cfg.c ****     /* If nothing else, stop here since the clocks have not started         */
 132:Generated_Source\PSoC5/cyfitter_cfg.c ****     /* correctly.                                                           */
 133:Generated_Source\PSoC5/cyfitter_cfg.c ****     while(1) {}
  34              		.loc 1 133 0 discriminator 1
  35 0000 FEE7     		b	.L2
  36              		.cfi_endproc
  37              	.LFE3:
  38              		.size	CyClockStartupError, .-CyClockStartupError
ARM GAS  C:\Users\koseki\AppData\Local\Temp\cc9XqZkK.s 			page 4


  39 0002 00BF     		.section	.text.cfg_write_bytes32,"ax",%progbits
  40              		.align	2
  41              		.thumb
  42              		.thumb_func
  43              		.type	cfg_write_bytes32, %function
  44              	cfg_write_bytes32:
  45              	.LFB4:
 134:Generated_Source\PSoC5/cyfitter_cfg.c **** #endif /* CY_CFG_CLOCK_STARTUP_ERROR_CALLBACK */ 
 135:Generated_Source\PSoC5/cyfitter_cfg.c **** }
 136:Generated_Source\PSoC5/cyfitter_cfg.c **** #endif
 137:Generated_Source\PSoC5/cyfitter_cfg.c **** 
 138:Generated_Source\PSoC5/cyfitter_cfg.c **** #define CY_CFG_BASE_ADDR_COUNT 30u
 139:Generated_Source\PSoC5/cyfitter_cfg.c **** CYPACKED typedef struct
 140:Generated_Source\PSoC5/cyfitter_cfg.c **** {
 141:Generated_Source\PSoC5/cyfitter_cfg.c **** 	uint8 offset;
 142:Generated_Source\PSoC5/cyfitter_cfg.c **** 	uint8 value;
 143:Generated_Source\PSoC5/cyfitter_cfg.c **** } CYPACKED_ATTR cy_cfg_addrvalue_t;
 144:Generated_Source\PSoC5/cyfitter_cfg.c **** 
 145:Generated_Source\PSoC5/cyfitter_cfg.c **** #define cy_cfg_addr_table ((const uint32 CYFAR *)0x48000000u)
 146:Generated_Source\PSoC5/cyfitter_cfg.c **** #define cy_cfg_data_table ((const cy_cfg_addrvalue_t CYFAR *)0x48000078u)
 147:Generated_Source\PSoC5/cyfitter_cfg.c **** 
 148:Generated_Source\PSoC5/cyfitter_cfg.c **** /* UDB_0_2_0_CONFIG Address: CYDEV_UCFG_B0_P4_U1_BASE Size (bytes): 128 */
 149:Generated_Source\PSoC5/cyfitter_cfg.c **** #define BS_UDB_0_2_0_CONFIG_VAL ((const uint8 CYFAR *)0x480003C0u)
 150:Generated_Source\PSoC5/cyfitter_cfg.c **** 
 151:Generated_Source\PSoC5/cyfitter_cfg.c **** /* IOPINS0_0 Address: CYREG_PRT0_DM0 Size (bytes): 8 */
 152:Generated_Source\PSoC5/cyfitter_cfg.c **** #define BS_IOPINS0_0_VAL ((const uint8 CYFAR *)0x48000440u)
 153:Generated_Source\PSoC5/cyfitter_cfg.c **** 
 154:Generated_Source\PSoC5/cyfitter_cfg.c **** /* IOPINS0_7 Address: CYREG_PRT12_DM0 Size (bytes): 8 */
 155:Generated_Source\PSoC5/cyfitter_cfg.c **** #define BS_IOPINS0_7_VAL ((const uint8 CYFAR *)0x48000448u)
 156:Generated_Source\PSoC5/cyfitter_cfg.c **** 
 157:Generated_Source\PSoC5/cyfitter_cfg.c **** /* IOPINS0_8 Address: CYREG_PRT15_DR Size (bytes): 10 */
 158:Generated_Source\PSoC5/cyfitter_cfg.c **** #define BS_IOPINS0_8_VAL ((const uint8 CYFAR *)0x48000450u)
 159:Generated_Source\PSoC5/cyfitter_cfg.c **** 
 160:Generated_Source\PSoC5/cyfitter_cfg.c **** /* IOPINS0_1 Address: CYREG_PRT1_DM0 Size (bytes): 8 */
 161:Generated_Source\PSoC5/cyfitter_cfg.c **** #define BS_IOPINS0_1_VAL ((const uint8 CYFAR *)0x4800045Cu)
 162:Generated_Source\PSoC5/cyfitter_cfg.c **** 
 163:Generated_Source\PSoC5/cyfitter_cfg.c **** /* IOPINS0_2 Address: CYREG_PRT2_DR Size (bytes): 10 */
 164:Generated_Source\PSoC5/cyfitter_cfg.c **** #define BS_IOPINS0_2_VAL ((const uint8 CYFAR *)0x48000464u)
 165:Generated_Source\PSoC5/cyfitter_cfg.c **** 
 166:Generated_Source\PSoC5/cyfitter_cfg.c **** /* IOPINS0_3 Address: CYREG_PRT3_DR Size (bytes): 10 */
 167:Generated_Source\PSoC5/cyfitter_cfg.c **** #define BS_IOPINS0_3_VAL ((const uint8 CYFAR *)0x48000470u)
 168:Generated_Source\PSoC5/cyfitter_cfg.c **** 
 169:Generated_Source\PSoC5/cyfitter_cfg.c **** /* CYDEV_CLKDIST_ACFG0_CFG0 Address: CYREG_CLKDIST_ACFG0_CFG0 Size (bytes): 4 */
 170:Generated_Source\PSoC5/cyfitter_cfg.c **** #define BS_CYDEV_CLKDIST_ACFG0_CFG0_VAL ((const uint8 CYFAR *)0x4800047Cu)
 171:Generated_Source\PSoC5/cyfitter_cfg.c **** 
 172:Generated_Source\PSoC5/cyfitter_cfg.c **** 
 173:Generated_Source\PSoC5/cyfitter_cfg.c **** /*******************************************************************************
 174:Generated_Source\PSoC5/cyfitter_cfg.c **** * Function Name: cfg_write_bytes32
 175:Generated_Source\PSoC5/cyfitter_cfg.c **** ********************************************************************************
 176:Generated_Source\PSoC5/cyfitter_cfg.c **** * Summary:
 177:Generated_Source\PSoC5/cyfitter_cfg.c **** *  This function is used for setting up the chip configuration areas that
 178:Generated_Source\PSoC5/cyfitter_cfg.c **** *  contain relatively sparse data.
 179:Generated_Source\PSoC5/cyfitter_cfg.c **** *
 180:Generated_Source\PSoC5/cyfitter_cfg.c **** * Parameters:
 181:Generated_Source\PSoC5/cyfitter_cfg.c **** *   void
 182:Generated_Source\PSoC5/cyfitter_cfg.c **** *
 183:Generated_Source\PSoC5/cyfitter_cfg.c **** * Return:
ARM GAS  C:\Users\koseki\AppData\Local\Temp\cc9XqZkK.s 			page 5


 184:Generated_Source\PSoC5/cyfitter_cfg.c **** *   void
 185:Generated_Source\PSoC5/cyfitter_cfg.c **** *
 186:Generated_Source\PSoC5/cyfitter_cfg.c **** *******************************************************************************/
 187:Generated_Source\PSoC5/cyfitter_cfg.c **** static void cfg_write_bytes32(const uint32 addr_table[], const cy_cfg_addrvalue_t data_table[]);
 188:Generated_Source\PSoC5/cyfitter_cfg.c **** static void cfg_write_bytes32(const uint32 addr_table[], const cy_cfg_addrvalue_t data_table[])
 189:Generated_Source\PSoC5/cyfitter_cfg.c **** {
  46              		.loc 1 189 0
  47              		.cfi_startproc
  48              		@ args = 0, pretend = 0, frame = 0
  49              		@ frame_needed = 0, uses_anonymous_args = 0
  50              		@ link register save eliminated.
  51              	.LVL1:
  52 0000 F0B4     		push	{r4, r5, r6, r7}
  53              		.cfi_def_cfa_offset 16
  54              		.cfi_offset 4, -16
  55              		.cfi_offset 5, -12
  56              		.cfi_offset 6, -8
  57              		.cfi_offset 7, -4
  58              	.LVL2:
 190:Generated_Source\PSoC5/cyfitter_cfg.c **** 	/* For 32-bit little-endian architectures */
 191:Generated_Source\PSoC5/cyfitter_cfg.c **** 	uint32 i, j = 0u;
  59              		.loc 1 191 0
  60 0002 0022     		movs	r2, #0
 192:Generated_Source\PSoC5/cyfitter_cfg.c **** 	for (i = 0u; i < CY_CFG_BASE_ADDR_COUNT; i++)
  61              		.loc 1 192 0
  62 0004 1746     		mov	r7, r2
  63 0006 11E0     		b	.L4
  64              	.LVL3:
  65              	.L7:
  66              	.LBB2:
 193:Generated_Source\PSoC5/cyfitter_cfg.c **** 	{
 194:Generated_Source\PSoC5/cyfitter_cfg.c **** 		uint32 baseAddr = addr_table[i];
  67              		.loc 1 194 0
  68 0008 50F82760 		ldr	r6, [r0, r7, lsl #2]
  69              	.LVL4:
 195:Generated_Source\PSoC5/cyfitter_cfg.c **** 		uint8 count = (uint8)baseAddr;
  70              		.loc 1 195 0
  71 000c F3B2     		uxtb	r3, r6
  72              	.LVL5:
 196:Generated_Source\PSoC5/cyfitter_cfg.c **** 		baseAddr &= 0xFFFFFF00u;
  73              		.loc 1 196 0
  74 000e 26F0FF06 		bic	r6, r6, #255
  75              	.LVL6:
 197:Generated_Source\PSoC5/cyfitter_cfg.c **** 		while (count != 0u)
  76              		.loc 1 197 0
  77 0012 08E0     		b	.L5
  78              	.L6:
 198:Generated_Source\PSoC5/cyfitter_cfg.c **** 		{
 199:Generated_Source\PSoC5/cyfitter_cfg.c **** 			CY_SET_XTND_REG8((void CYFAR *)(baseAddr + data_table[j].offset), data_table[j].value);
  79              		.loc 1 199 0
  80 0014 01EB4205 		add	r5, r1, r2, lsl #1
  81 0018 11F81240 		ldrb	r4, [r1, r2, lsl #1]	@ zero_extendqisi2
  82 001c 6D78     		ldrb	r5, [r5, #1]	@ zero_extendqisi2
  83 001e A555     		strb	r5, [r4, r6]
 200:Generated_Source\PSoC5/cyfitter_cfg.c **** 			j++;
  84              		.loc 1 200 0
  85 0020 0132     		adds	r2, r2, #1
ARM GAS  C:\Users\koseki\AppData\Local\Temp\cc9XqZkK.s 			page 6


  86              	.LVL7:
 201:Generated_Source\PSoC5/cyfitter_cfg.c **** 			count--;
  87              		.loc 1 201 0
  88 0022 013B     		subs	r3, r3, #1
  89              	.LVL8:
  90 0024 DBB2     		uxtb	r3, r3
  91              	.LVL9:
  92              	.L5:
 197:Generated_Source\PSoC5/cyfitter_cfg.c **** 		{
  93              		.loc 1 197 0
  94 0026 002B     		cmp	r3, #0
  95 0028 F4D1     		bne	.L6
  96              	.LBE2:
 192:Generated_Source\PSoC5/cyfitter_cfg.c **** 	{
  97              		.loc 1 192 0 discriminator 2
  98 002a 0137     		adds	r7, r7, #1
  99              	.LVL10:
 100              	.L4:
 192:Generated_Source\PSoC5/cyfitter_cfg.c **** 	{
 101              		.loc 1 192 0 is_stmt 0 discriminator 1
 102 002c 1D2F     		cmp	r7, #29
 103 002e EBD9     		bls	.L7
 202:Generated_Source\PSoC5/cyfitter_cfg.c **** 		}
 203:Generated_Source\PSoC5/cyfitter_cfg.c **** 	}
 204:Generated_Source\PSoC5/cyfitter_cfg.c **** }
 104              		.loc 1 204 0 is_stmt 1
 105 0030 F0BC     		pop	{r4, r5, r6, r7}
 106              		.cfi_restore 7
 107              		.cfi_restore 6
 108              		.cfi_restore 5
 109              		.cfi_restore 4
 110              		.cfi_def_cfa_offset 0
 111              	.LVL11:
 112 0032 7047     		bx	lr
 113              		.cfi_endproc
 114              	.LFE4:
 115              		.size	cfg_write_bytes32, .-cfg_write_bytes32
 116              		.section	.text.AnalogSetDefault,"ax",%progbits
 117              		.align	2
 118              		.thumb
 119              		.thumb_func
 120              		.type	AnalogSetDefault, %function
 121              	AnalogSetDefault:
 122              	.LFB6:
 205:Generated_Source\PSoC5/cyfitter_cfg.c **** 
 206:Generated_Source\PSoC5/cyfitter_cfg.c **** /*******************************************************************************
 207:Generated_Source\PSoC5/cyfitter_cfg.c **** * Function Name: ClockSetup
 208:Generated_Source\PSoC5/cyfitter_cfg.c **** ********************************************************************************
 209:Generated_Source\PSoC5/cyfitter_cfg.c **** *
 210:Generated_Source\PSoC5/cyfitter_cfg.c **** * Summary:
 211:Generated_Source\PSoC5/cyfitter_cfg.c **** *  Performs the initialization of all of the clocks in the device based on the
 212:Generated_Source\PSoC5/cyfitter_cfg.c **** *  settings in the Clock tab of the DWR.  This includes enabling the requested
 213:Generated_Source\PSoC5/cyfitter_cfg.c **** *  clocks and setting the necessary dividers to produce the desired frequency. 
 214:Generated_Source\PSoC5/cyfitter_cfg.c **** *
 215:Generated_Source\PSoC5/cyfitter_cfg.c **** * Parameters:
 216:Generated_Source\PSoC5/cyfitter_cfg.c **** *  void
 217:Generated_Source\PSoC5/cyfitter_cfg.c **** *
ARM GAS  C:\Users\koseki\AppData\Local\Temp\cc9XqZkK.s 			page 7


 218:Generated_Source\PSoC5/cyfitter_cfg.c **** * Return:
 219:Generated_Source\PSoC5/cyfitter_cfg.c **** *  void
 220:Generated_Source\PSoC5/cyfitter_cfg.c **** *
 221:Generated_Source\PSoC5/cyfitter_cfg.c **** *******************************************************************************/
 222:Generated_Source\PSoC5/cyfitter_cfg.c **** static void ClockSetup(void);
 223:Generated_Source\PSoC5/cyfitter_cfg.c **** static void ClockSetup(void)
 224:Generated_Source\PSoC5/cyfitter_cfg.c **** {
 225:Generated_Source\PSoC5/cyfitter_cfg.c **** 	uint32 timeout;
 226:Generated_Source\PSoC5/cyfitter_cfg.c **** 	uint8 pllLock;
 227:Generated_Source\PSoC5/cyfitter_cfg.c **** 
 228:Generated_Source\PSoC5/cyfitter_cfg.c **** 
 229:Generated_Source\PSoC5/cyfitter_cfg.c **** 	/* Configure Digital Clocks based on settings from Clock DWR */
 230:Generated_Source\PSoC5/cyfitter_cfg.c **** 	CY_SET_XTND_REG16((void CYFAR *)(CYREG_CLKDIST_DCFG0_CFG0), 0x0003u);
 231:Generated_Source\PSoC5/cyfitter_cfg.c **** 	CY_SET_XTND_REG8((void CYFAR *)(CYREG_CLKDIST_DCFG0_CFG0 + 0x2u), 0x1Fu);
 232:Generated_Source\PSoC5/cyfitter_cfg.c **** 	CY_SET_XTND_REG16((void CYFAR *)(CYREG_CLKDIST_DCFG1_CFG0), 0x0003u);
 233:Generated_Source\PSoC5/cyfitter_cfg.c **** 	CY_SET_XTND_REG8((void CYFAR *)(CYREG_CLKDIST_DCFG1_CFG0 + 0x2u), 0x1Fu);
 234:Generated_Source\PSoC5/cyfitter_cfg.c **** 	CY_SET_XTND_REG16((void CYFAR *)(CYREG_CLKDIST_DCFG2_CFG0), 0x0000u);
 235:Generated_Source\PSoC5/cyfitter_cfg.c **** 	CY_SET_XTND_REG8((void CYFAR *)(CYREG_CLKDIST_DCFG2_CFG0 + 0x2u), 0x50u);
 236:Generated_Source\PSoC5/cyfitter_cfg.c **** 	CY_SET_XTND_REG16((void CYFAR *)(CYREG_CLKDIST_DCFG3_CFG0), 0x0041u);
 237:Generated_Source\PSoC5/cyfitter_cfg.c **** 	CY_SET_XTND_REG8((void CYFAR *)(CYREG_CLKDIST_DCFG3_CFG0 + 0x2u), 0x18u);
 238:Generated_Source\PSoC5/cyfitter_cfg.c **** 
 239:Generated_Source\PSoC5/cyfitter_cfg.c **** 	/* Configure Analog Clocks based on settings from Clock DWR */
 240:Generated_Source\PSoC5/cyfitter_cfg.c **** 	CYCONFIGCPY((void CYFAR *)(CYREG_CLKDIST_ACFG0_CFG0), (const void CYFAR *)(BS_CYDEV_CLKDIST_ACFG0_
 241:Generated_Source\PSoC5/cyfitter_cfg.c **** 
 242:Generated_Source\PSoC5/cyfitter_cfg.c **** 	/* Configure ILO based on settings from Clock DWR */
 243:Generated_Source\PSoC5/cyfitter_cfg.c **** 	CY_SET_XTND_REG8((void CYFAR *)(CYREG_SLOWCLK_ILO_CR0), 0x06u);
 244:Generated_Source\PSoC5/cyfitter_cfg.c **** 
 245:Generated_Source\PSoC5/cyfitter_cfg.c **** 	/* Configure IMO based on settings from Clock DWR */
 246:Generated_Source\PSoC5/cyfitter_cfg.c **** 	CY_SET_XTND_REG8((void CYFAR *)(CYREG_FASTCLK_IMO_CR), 0x52u);
 247:Generated_Source\PSoC5/cyfitter_cfg.c **** 	CY_SET_XTND_REG8((void CYFAR *)(CYREG_IMO_TR1), (CY_GET_XTND_REG8((void CYFAR *)CYREG_FLSHID_CUST_
 248:Generated_Source\PSoC5/cyfitter_cfg.c **** 
 249:Generated_Source\PSoC5/cyfitter_cfg.c **** 	/* Configure PLL based on settings from Clock DWR */
 250:Generated_Source\PSoC5/cyfitter_cfg.c **** 	CY_SET_XTND_REG16((void CYFAR *)(CYREG_FASTCLK_PLL_P), 0x0B21u);
 251:Generated_Source\PSoC5/cyfitter_cfg.c **** 	CY_SET_XTND_REG16((void CYFAR *)(CYREG_FASTCLK_PLL_CFG0), 0x1251u);
 252:Generated_Source\PSoC5/cyfitter_cfg.c **** 	/* Wait up to 250us for the PLL to lock */
 253:Generated_Source\PSoC5/cyfitter_cfg.c **** 	pllLock = 0u;
 254:Generated_Source\PSoC5/cyfitter_cfg.c **** 	for (timeout = 250u / 10u; (timeout > 0u) && (pllLock != 0x03u); timeout--)
 255:Generated_Source\PSoC5/cyfitter_cfg.c **** 	{ 
 256:Generated_Source\PSoC5/cyfitter_cfg.c **** 		pllLock = 0x03u & ((uint8)((uint8)pllLock << 1) | ((CY_GET_XTND_REG8((void CYFAR *)CYREG_FASTCLK_
 257:Generated_Source\PSoC5/cyfitter_cfg.c **** 		CyDelayCycles(10u * 48u); /* Delay 10us based on 48MHz clock */
 258:Generated_Source\PSoC5/cyfitter_cfg.c **** 	}
 259:Generated_Source\PSoC5/cyfitter_cfg.c **** 	/* If we ran out of time the PLL didn't lock so go to the error function */
 260:Generated_Source\PSoC5/cyfitter_cfg.c **** 	if (timeout == 0u)
 261:Generated_Source\PSoC5/cyfitter_cfg.c **** 	{
 262:Generated_Source\PSoC5/cyfitter_cfg.c **** 		CyClockStartupError(CYCLOCKSTART_PLL_ERROR);
 263:Generated_Source\PSoC5/cyfitter_cfg.c **** 	}
 264:Generated_Source\PSoC5/cyfitter_cfg.c **** 
 265:Generated_Source\PSoC5/cyfitter_cfg.c **** 	/* Configure Bus/Master Clock based on settings from Clock DWR */
 266:Generated_Source\PSoC5/cyfitter_cfg.c **** 	CY_SET_XTND_REG16((void CYFAR *)(CYREG_CLKDIST_MSTR0), 0x0100u);
 267:Generated_Source\PSoC5/cyfitter_cfg.c **** 	CY_SET_XTND_REG8((void CYFAR *)(CYREG_CLKDIST_MSTR0), 0x07u);
 268:Generated_Source\PSoC5/cyfitter_cfg.c **** 	CY_SET_XTND_REG8((void CYFAR *)(CYREG_CLKDIST_BCFG0), 0x00u);
 269:Generated_Source\PSoC5/cyfitter_cfg.c **** 	CY_SET_XTND_REG8((void CYFAR *)(CYREG_CLKDIST_BCFG2), 0x48u);
 270:Generated_Source\PSoC5/cyfitter_cfg.c **** 	CY_SET_XTND_REG8((void CYFAR *)(CYREG_CLKDIST_MSTR0), 0x00u);
 271:Generated_Source\PSoC5/cyfitter_cfg.c **** 
 272:Generated_Source\PSoC5/cyfitter_cfg.c **** 	/* Configure USB Clock based on settings from Clock DWR */
 273:Generated_Source\PSoC5/cyfitter_cfg.c **** 	CY_SET_XTND_REG8((void CYFAR *)(CYREG_CLKDIST_UCFG), 0x00u);
 274:Generated_Source\PSoC5/cyfitter_cfg.c **** 	CY_SET_XTND_REG8((void CYFAR *)(CYREG_CLKDIST_LD), 0x02u);
ARM GAS  C:\Users\koseki\AppData\Local\Temp\cc9XqZkK.s 			page 8


 275:Generated_Source\PSoC5/cyfitter_cfg.c **** 	CY_SET_XTND_REG8((void CYFAR *)(CYREG_CLKDIST_DLY1), 0x04u);
 276:Generated_Source\PSoC5/cyfitter_cfg.c **** 
 277:Generated_Source\PSoC5/cyfitter_cfg.c **** 	CY_SET_XTND_REG8((void CYFAR *)(CYREG_PM_ACT_CFG2), ((CY_GET_XTND_REG8((void CYFAR *)CYREG_PM_ACT_
 278:Generated_Source\PSoC5/cyfitter_cfg.c **** 	CY_SET_XTND_REG8((void CYFAR *)(CYREG_PM_ACT_CFG1), ((CY_GET_XTND_REG8((void CYFAR *)CYREG_PM_ACT_
 279:Generated_Source\PSoC5/cyfitter_cfg.c **** 	CY_SET_XTND_REG8((void CYFAR *)(CYREG_PM_ACT_CFG0), ((CY_GET_XTND_REG8((void CYFAR *)CYREG_PM_ACT_
 280:Generated_Source\PSoC5/cyfitter_cfg.c **** }
 281:Generated_Source\PSoC5/cyfitter_cfg.c **** 
 282:Generated_Source\PSoC5/cyfitter_cfg.c **** 
 283:Generated_Source\PSoC5/cyfitter_cfg.c **** /* Analog API Functions */
 284:Generated_Source\PSoC5/cyfitter_cfg.c **** 
 285:Generated_Source\PSoC5/cyfitter_cfg.c **** 
 286:Generated_Source\PSoC5/cyfitter_cfg.c **** /*******************************************************************************
 287:Generated_Source\PSoC5/cyfitter_cfg.c **** * Function Name: AnalogSetDefault
 288:Generated_Source\PSoC5/cyfitter_cfg.c **** ********************************************************************************
 289:Generated_Source\PSoC5/cyfitter_cfg.c **** *
 290:Generated_Source\PSoC5/cyfitter_cfg.c **** * Summary:
 291:Generated_Source\PSoC5/cyfitter_cfg.c **** *  Sets up the analog portions of the chip to default values based on chip
 292:Generated_Source\PSoC5/cyfitter_cfg.c **** *  configuration options from the project.
 293:Generated_Source\PSoC5/cyfitter_cfg.c **** *
 294:Generated_Source\PSoC5/cyfitter_cfg.c **** * Parameters:
 295:Generated_Source\PSoC5/cyfitter_cfg.c **** *  void
 296:Generated_Source\PSoC5/cyfitter_cfg.c **** *
 297:Generated_Source\PSoC5/cyfitter_cfg.c **** * Return:
 298:Generated_Source\PSoC5/cyfitter_cfg.c **** *  void
 299:Generated_Source\PSoC5/cyfitter_cfg.c **** *
 300:Generated_Source\PSoC5/cyfitter_cfg.c **** *******************************************************************************/
 301:Generated_Source\PSoC5/cyfitter_cfg.c **** static void AnalogSetDefault(void);
 302:Generated_Source\PSoC5/cyfitter_cfg.c **** static void AnalogSetDefault(void)
 303:Generated_Source\PSoC5/cyfitter_cfg.c **** {
 123              		.loc 1 303 0
 124              		.cfi_startproc
 125              		@ args = 0, pretend = 0, frame = 0
 126              		@ frame_needed = 0, uses_anonymous_args = 0
 127              		@ link register save eliminated.
 304:Generated_Source\PSoC5/cyfitter_cfg.c **** 	uint8 bg_xover_inl_trim = CY_GET_XTND_REG8((void CYFAR *)(CYREG_FLSHID_MFG_CFG_BG_XOVER_INL_TRIM +
 128              		.loc 1 304 0
 129 0000 154B     		ldr	r3, .L10
 130 0002 1B78     		ldrb	r3, [r3]	@ zero_extendqisi2
 131 0004 DBB2     		uxtb	r3, r3
 132              	.LVL12:
 305:Generated_Source\PSoC5/cyfitter_cfg.c **** 	CY_SET_XTND_REG8((void CYFAR *)(CYREG_BG_DFT0), (bg_xover_inl_trim & 0x07u));
 133              		.loc 1 305 0
 134 0006 03F00701 		and	r1, r3, #7
 135 000a 144A     		ldr	r2, .L10+4
 136 000c 1170     		strb	r1, [r2]
 306:Generated_Source\PSoC5/cyfitter_cfg.c **** 	CY_SET_XTND_REG8((void CYFAR *)(CYREG_BG_DFT1), ((bg_xover_inl_trim >> 4) & 0x0Fu));
 137              		.loc 1 306 0
 138 000e 1B09     		lsrs	r3, r3, #4
 139              	.LVL13:
 140 0010 0132     		adds	r2, r2, #1
 141 0012 1370     		strb	r3, [r2]
 307:Generated_Source\PSoC5/cyfitter_cfg.c **** 	CY_SET_XTND_REG16((void CYFAR *)CYREG_PRT0_AMUX, 0x4220u);
 142              		.loc 1 307 0
 143 0014 44F22022 		movw	r2, #16928
 144 0018 114B     		ldr	r3, .L10+8
 145 001a 1A80     		strh	r2, [r3]	@ movhi
 308:Generated_Source\PSoC5/cyfitter_cfg.c **** 	CY_SET_XTND_REG8((void CYFAR *)CYREG_PRT3_AG, 0x20u);
ARM GAS  C:\Users\koseki\AppData\Local\Temp\cc9XqZkK.s 			page 9


 146              		.loc 1 308 0
 147 001c 2023     		movs	r3, #32
 148 001e 02F18042 		add	r2, r2, #1073741824
 149 0022 02F61D72 		addw	r2, r2, #3869
 150 0026 1370     		strb	r3, [r2]
 309:Generated_Source\PSoC5/cyfitter_cfg.c **** 	CY_SET_XTND_REG8((void CYFAR *)CYREG_PRT15_AG, 0x10u);
 151              		.loc 1 309 0
 152 0028 1022     		movs	r2, #16
 153 002a 0E49     		ldr	r1, .L10+12
 154 002c 0A70     		strb	r2, [r1]
 310:Generated_Source\PSoC5/cyfitter_cfg.c **** 	CY_SET_XTND_REG8((void CYFAR *)CYREG_DAC0_SW0, 0x01u);
 155              		.loc 1 310 0
 156 002e 0121     		movs	r1, #1
 157 0030 0D48     		ldr	r0, .L10+16
 158 0032 0170     		strb	r1, [r0]
 311:Generated_Source\PSoC5/cyfitter_cfg.c **** 	CY_SET_XTND_REG8((void CYFAR *)CYREG_DAC3_SW0, 0x10u);
 159              		.loc 1 311 0
 160 0034 1830     		adds	r0, r0, #24
 161 0036 0270     		strb	r2, [r0]
 312:Generated_Source\PSoC5/cyfitter_cfg.c **** 	CY_SET_XTND_REG8((void CYFAR *)CYREG_CMP1_SW0, 0x20u);
 162              		.loc 1 312 0
 163 0038 3030     		adds	r0, r0, #48
 164 003a 0370     		strb	r3, [r0]
 313:Generated_Source\PSoC5/cyfitter_cfg.c **** 	CY_SET_XTND_REG8((void CYFAR *)CYREG_CMP1_SW4, 0x10u);
 165              		.loc 1 313 0
 166 003c 0430     		adds	r0, r0, #4
 167 003e 0270     		strb	r2, [r0]
 314:Generated_Source\PSoC5/cyfitter_cfg.c **** 	CY_SET_XTND_REG8((void CYFAR *)CYREG_DSM0_SW0, 0x40u);
 168              		.loc 1 314 0
 169 0040 4020     		movs	r0, #64
 170 0042 0A4A     		ldr	r2, .L10+20
 171 0044 1070     		strb	r0, [r2]
 315:Generated_Source\PSoC5/cyfitter_cfg.c **** 	CY_SET_XTND_REG8((void CYFAR *)CYREG_DSM0_SW3, 0x01u);
 172              		.loc 1 315 0
 173 0046 0332     		adds	r2, r2, #3
 174 0048 1170     		strb	r1, [r2]
 316:Generated_Source\PSoC5/cyfitter_cfg.c **** 	CY_SET_XTND_REG8((void CYFAR *)CYREG_DSM0_SW4, 0x20u);
 175              		.loc 1 316 0
 176 004a 0132     		adds	r2, r2, #1
 177 004c 1370     		strb	r3, [r2]
 317:Generated_Source\PSoC5/cyfitter_cfg.c **** 	CY_SET_XTND_REG8((void CYFAR *)CYREG_PUMP_CR0, 0x44u);
 178              		.loc 1 317 0
 179 004e 4422     		movs	r2, #68
 180 0050 074B     		ldr	r3, .L10+24
 181 0052 1A70     		strb	r2, [r3]
 182 0054 7047     		bx	lr
 183              	.L11:
 184 0056 00BF     		.align	2
 185              	.L10:
 186 0058 CF010049 		.word	1224737231
 187 005c 6E580040 		.word	1073764462
 188 0060 0C510040 		.word	1073762572
 189 0064 FD510040 		.word	1073762813
 190 0068 805A0040 		.word	1073764992
 191 006c 005B0040 		.word	1073765120
 192 0070 76580040 		.word	1073764470
 193              		.cfi_endproc
ARM GAS  C:\Users\koseki\AppData\Local\Temp\cc9XqZkK.s 			page 10


 194              	.LFE6:
 195              		.size	AnalogSetDefault, .-AnalogSetDefault
 196              		.section	.text.CYMEMZERO,"ax",%progbits
 197              		.align	2
 198              		.thumb
 199              		.thumb_func
 200              		.type	CYMEMZERO, %function
 201              	CYMEMZERO:
 202              	.LFB0:
  63:Generated_Source\PSoC5/cyfitter_cfg.c **** 	(void)memset(s, 0, n);
 203              		.loc 1 63 0
 204              		.cfi_startproc
 205              		@ args = 0, pretend = 0, frame = 0
 206              		@ frame_needed = 0, uses_anonymous_args = 0
 207              	.LVL14:
 208 0000 08B5     		push	{r3, lr}
 209              		.cfi_def_cfa_offset 8
 210              		.cfi_offset 3, -8
 211              		.cfi_offset 14, -4
 212 0002 0A46     		mov	r2, r1
  64:Generated_Source\PSoC5/cyfitter_cfg.c **** }
 213              		.loc 1 64 0
 214 0004 0021     		movs	r1, #0
 215              	.LVL15:
 216 0006 FFF7FEFF 		bl	memset
 217              	.LVL16:
 218 000a 08BD     		pop	{r3, pc}
 219              		.cfi_endproc
 220              	.LFE0:
 221              		.size	CYMEMZERO, .-CYMEMZERO
 222              		.section	.text.CYCONFIGCPY,"ax",%progbits
 223              		.align	2
 224              		.thumb
 225              		.thumb_func
 226              		.type	CYCONFIGCPY, %function
 227              	CYCONFIGCPY:
 228              	.LFB1:
  70:Generated_Source\PSoC5/cyfitter_cfg.c **** 	(void)memcpy(dest, src, n);
 229              		.loc 1 70 0
 230              		.cfi_startproc
 231              		@ args = 0, pretend = 0, frame = 0
 232              		@ frame_needed = 0, uses_anonymous_args = 0
 233              	.LVL17:
 234 0000 08B5     		push	{r3, lr}
 235              		.cfi_def_cfa_offset 8
 236              		.cfi_offset 3, -8
 237              		.cfi_offset 14, -4
  71:Generated_Source\PSoC5/cyfitter_cfg.c **** }
 238              		.loc 1 71 0
 239 0002 FFF7FEFF 		bl	memcpy
 240              	.LVL18:
 241 0006 08BD     		pop	{r3, pc}
 242              		.cfi_endproc
 243              	.LFE1:
 244              		.size	CYCONFIGCPY, .-CYCONFIGCPY
 245              		.section	.text.ClockSetup,"ax",%progbits
 246              		.align	2
ARM GAS  C:\Users\koseki\AppData\Local\Temp\cc9XqZkK.s 			page 11


 247              		.thumb
 248              		.thumb_func
 249              		.type	ClockSetup, %function
 250              	ClockSetup:
 251              	.LFB5:
 224:Generated_Source\PSoC5/cyfitter_cfg.c **** 	uint32 timeout;
 252              		.loc 1 224 0
 253              		.cfi_startproc
 254              		@ args = 0, pretend = 0, frame = 0
 255              		@ frame_needed = 0, uses_anonymous_args = 0
 256 0000 38B5     		push	{r3, r4, r5, lr}
 257              		.cfi_def_cfa_offset 16
 258              		.cfi_offset 3, -16
 259              		.cfi_offset 4, -12
 260              		.cfi_offset 5, -8
 261              		.cfi_offset 14, -4
 230:Generated_Source\PSoC5/cyfitter_cfg.c **** 	CY_SET_XTND_REG8((void CYFAR *)(CYREG_CLKDIST_DCFG0_CFG0 + 0x2u), 0x1Fu);
 262              		.loc 1 230 0
 263 0002 0322     		movs	r2, #3
 264 0004 344B     		ldr	r3, .L22
 265 0006 1A80     		strh	r2, [r3]	@ movhi
 231:Generated_Source\PSoC5/cyfitter_cfg.c **** 	CY_SET_XTND_REG16((void CYFAR *)(CYREG_CLKDIST_DCFG1_CFG0), 0x0003u);
 266              		.loc 1 231 0
 267 0008 1F23     		movs	r3, #31
 268 000a 3449     		ldr	r1, .L22+4
 269 000c 0B70     		strb	r3, [r1]
 232:Generated_Source\PSoC5/cyfitter_cfg.c **** 	CY_SET_XTND_REG8((void CYFAR *)(CYREG_CLKDIST_DCFG1_CFG0 + 0x2u), 0x1Fu);
 270              		.loc 1 232 0
 271 000e 0231     		adds	r1, r1, #2
 272 0010 0A80     		strh	r2, [r1]	@ movhi
 233:Generated_Source\PSoC5/cyfitter_cfg.c **** 	CY_SET_XTND_REG16((void CYFAR *)(CYREG_CLKDIST_DCFG2_CFG0), 0x0000u);
 273              		.loc 1 233 0
 274 0012 334A     		ldr	r2, .L22+8
 275 0014 1370     		strb	r3, [r2]
 234:Generated_Source\PSoC5/cyfitter_cfg.c **** 	CY_SET_XTND_REG8((void CYFAR *)(CYREG_CLKDIST_DCFG2_CFG0 + 0x2u), 0x50u);
 276              		.loc 1 234 0
 277 0016 0024     		movs	r4, #0
 278 0018 324B     		ldr	r3, .L22+12
 279 001a 1C80     		strh	r4, [r3]	@ movhi
 235:Generated_Source\PSoC5/cyfitter_cfg.c **** 	CY_SET_XTND_REG16((void CYFAR *)(CYREG_CLKDIST_DCFG3_CFG0), 0x0041u);
 280              		.loc 1 235 0
 281 001c 5022     		movs	r2, #80
 282 001e 0233     		adds	r3, r3, #2
 283 0020 1A70     		strb	r2, [r3]
 236:Generated_Source\PSoC5/cyfitter_cfg.c **** 	CY_SET_XTND_REG8((void CYFAR *)(CYREG_CLKDIST_DCFG3_CFG0 + 0x2u), 0x18u);
 284              		.loc 1 236 0
 285 0022 4122     		movs	r2, #65
 286 0024 0233     		adds	r3, r3, #2
 287 0026 1A80     		strh	r2, [r3]	@ movhi
 237:Generated_Source\PSoC5/cyfitter_cfg.c **** 
 288              		.loc 1 237 0
 289 0028 1822     		movs	r2, #24
 290 002a 0233     		adds	r3, r3, #2
 291 002c 1A70     		strb	r2, [r3]
 240:Generated_Source\PSoC5/cyfitter_cfg.c **** 
 292              		.loc 1 240 0
 293 002e 2E48     		ldr	r0, .L22+16
ARM GAS  C:\Users\koseki\AppData\Local\Temp\cc9XqZkK.s 			page 12


 294 0030 2E49     		ldr	r1, .L22+20
 295 0032 0422     		movs	r2, #4
 296 0034 FFF7FEFF 		bl	CYCONFIGCPY
 297              	.LVL19:
 243:Generated_Source\PSoC5/cyfitter_cfg.c **** 
 298              		.loc 1 243 0
 299 0038 0622     		movs	r2, #6
 300 003a 2D4B     		ldr	r3, .L22+24
 301 003c 1A70     		strb	r2, [r3]
 246:Generated_Source\PSoC5/cyfitter_cfg.c **** 	CY_SET_XTND_REG8((void CYFAR *)(CYREG_IMO_TR1), (CY_GET_XTND_REG8((void CYFAR *)CYREG_FLSHID_CUST_
 302              		.loc 1 246 0
 303 003e 5222     		movs	r2, #82
 304 0040 A3F58073 		sub	r3, r3, #256
 305 0044 1A70     		strb	r2, [r3]
 247:Generated_Source\PSoC5/cyfitter_cfg.c **** 
 306              		.loc 1 247 0
 307 0046 2B4B     		ldr	r3, .L22+28
 308 0048 1B78     		ldrb	r3, [r3]	@ zero_extendqisi2
 309 004a DBB2     		uxtb	r3, r3
 310 004c 2A4A     		ldr	r2, .L22+32
 311 004e 1370     		strb	r3, [r2]
 250:Generated_Source\PSoC5/cyfitter_cfg.c **** 	CY_SET_XTND_REG16((void CYFAR *)(CYREG_FASTCLK_PLL_CFG0), 0x1251u);
 312              		.loc 1 250 0
 313 0050 40F62132 		movw	r2, #2849
 314 0054 294B     		ldr	r3, .L22+36
 315 0056 1A80     		strh	r2, [r3]	@ movhi
 251:Generated_Source\PSoC5/cyfitter_cfg.c **** 	/* Wait up to 250us for the PLL to lock */
 316              		.loc 1 251 0
 317 0058 41F25122 		movw	r2, #4689
 318 005c 023B     		subs	r3, r3, #2
 319 005e 1A80     		strh	r2, [r3]	@ movhi
 320              	.LVL20:
 254:Generated_Source\PSoC5/cyfitter_cfg.c **** 	{ 
 321              		.loc 1 254 0
 322 0060 1925     		movs	r5, #25
 323 0062 0CE0     		b	.L17
 324              	.LVL21:
 325              	.L19:
 256:Generated_Source\PSoC5/cyfitter_cfg.c **** 		CyDelayCycles(10u * 48u); /* Delay 10us based on 48MHz clock */
 326              		.loc 1 256 0 discriminator 4
 327 0064 264B     		ldr	r3, .L22+40
 328 0066 1B78     		ldrb	r3, [r3]	@ zero_extendqisi2
 329 0068 03F00103 		and	r3, r3, #1
 330 006c 43EA4404 		orr	r4, r3, r4, lsl #1
 331              	.LVL22:
 332 0070 04F00304 		and	r4, r4, #3
 333              	.LVL23:
 257:Generated_Source\PSoC5/cyfitter_cfg.c **** 	}
 334              		.loc 1 257 0 discriminator 4
 335 0074 4FF4F070 		mov	r0, #480
 336 0078 FFF7FEFF 		bl	CyDelayCycles
 337              	.LVL24:
 254:Generated_Source\PSoC5/cyfitter_cfg.c **** 	{ 
 338              		.loc 1 254 0 discriminator 4
 339 007c 013D     		subs	r5, r5, #1
 340              	.LVL25:
 341              	.L17:
ARM GAS  C:\Users\koseki\AppData\Local\Temp\cc9XqZkK.s 			page 13


 254:Generated_Source\PSoC5/cyfitter_cfg.c **** 	{ 
 342              		.loc 1 254 0 is_stmt 0 discriminator 1
 343 007e 0DB1     		cbz	r5, .L18
 254:Generated_Source\PSoC5/cyfitter_cfg.c **** 	{ 
 344              		.loc 1 254 0 discriminator 3
 345 0080 032C     		cmp	r4, #3
 346 0082 EFD1     		bne	.L19
 347              	.L18:
 260:Generated_Source\PSoC5/cyfitter_cfg.c **** 	{
 348              		.loc 1 260 0 is_stmt 1
 349 0084 15B9     		cbnz	r5, .L20
 262:Generated_Source\PSoC5/cyfitter_cfg.c **** 	}
 350              		.loc 1 262 0
 351 0086 0320     		movs	r0, #3
 352 0088 FFF7FEFF 		bl	CyClockStartupError
 353              	.LVL26:
 354              	.L20:
 266:Generated_Source\PSoC5/cyfitter_cfg.c **** 	CY_SET_XTND_REG8((void CYFAR *)(CYREG_CLKDIST_MSTR0), 0x07u);
 355              		.loc 1 266 0
 356 008c 1D4A     		ldr	r2, .L22+44
 357 008e 4FF48073 		mov	r3, #256
 358 0092 1380     		strh	r3, [r2]	@ movhi
 267:Generated_Source\PSoC5/cyfitter_cfg.c **** 	CY_SET_XTND_REG8((void CYFAR *)(CYREG_CLKDIST_BCFG0), 0x00u);
 359              		.loc 1 267 0
 360 0094 0723     		movs	r3, #7
 361 0096 1370     		strb	r3, [r2]
 268:Generated_Source\PSoC5/cyfitter_cfg.c **** 	CY_SET_XTND_REG8((void CYFAR *)(CYREG_CLKDIST_BCFG2), 0x48u);
 362              		.loc 1 268 0
 363 0098 0023     		movs	r3, #0
 364 009a 1B49     		ldr	r1, .L22+48
 365 009c 0B70     		strb	r3, [r1]
 269:Generated_Source\PSoC5/cyfitter_cfg.c **** 	CY_SET_XTND_REG8((void CYFAR *)(CYREG_CLKDIST_MSTR0), 0x00u);
 366              		.loc 1 269 0
 367 009e 4820     		movs	r0, #72
 368 00a0 0231     		adds	r1, r1, #2
 369 00a2 0870     		strb	r0, [r1]
 270:Generated_Source\PSoC5/cyfitter_cfg.c **** 
 370              		.loc 1 270 0
 371 00a4 1370     		strb	r3, [r2]
 273:Generated_Source\PSoC5/cyfitter_cfg.c **** 	CY_SET_XTND_REG8((void CYFAR *)(CYREG_CLKDIST_LD), 0x02u);
 372              		.loc 1 273 0
 373 00a6 0532     		adds	r2, r2, #5
 374 00a8 1370     		strb	r3, [r2]
 274:Generated_Source\PSoC5/cyfitter_cfg.c **** 	CY_SET_XTND_REG8((void CYFAR *)(CYREG_CLKDIST_DLY1), 0x04u);
 375              		.loc 1 274 0
 376 00aa 0222     		movs	r2, #2
 377 00ac 174B     		ldr	r3, .L22+52
 378 00ae 1A70     		strb	r2, [r3]
 275:Generated_Source\PSoC5/cyfitter_cfg.c **** 
 379              		.loc 1 275 0
 380 00b0 0422     		movs	r2, #4
 381 00b2 0A33     		adds	r3, r3, #10
 382 00b4 1A70     		strb	r2, [r3]
 277:Generated_Source\PSoC5/cyfitter_cfg.c **** 	CY_SET_XTND_REG8((void CYFAR *)(CYREG_PM_ACT_CFG1), ((CY_GET_XTND_REG8((void CYFAR *)CYREG_PM_ACT_
 383              		.loc 1 277 0
 384 00b6 164A     		ldr	r2, .L22+56
 385 00b8 1378     		ldrb	r3, [r2]	@ zero_extendqisi2
ARM GAS  C:\Users\koseki\AppData\Local\Temp\cc9XqZkK.s 			page 14


 386 00ba 43F00F03 		orr	r3, r3, #15
 387 00be 1370     		strb	r3, [r2]
 278:Generated_Source\PSoC5/cyfitter_cfg.c **** 	CY_SET_XTND_REG8((void CYFAR *)(CYREG_PM_ACT_CFG0), ((CY_GET_XTND_REG8((void CYFAR *)CYREG_PM_ACT_
 388              		.loc 1 278 0
 389 00c0 013A     		subs	r2, r2, #1
 390 00c2 1378     		ldrb	r3, [r2]	@ zero_extendqisi2
 391 00c4 43F00103 		orr	r3, r3, #1
 392 00c8 1370     		strb	r3, [r2]
 279:Generated_Source\PSoC5/cyfitter_cfg.c **** }
 393              		.loc 1 279 0
 394 00ca 013A     		subs	r2, r2, #1
 395 00cc 1378     		ldrb	r3, [r2]	@ zero_extendqisi2
 396 00ce 43F08003 		orr	r3, r3, #128
 397 00d2 1370     		strb	r3, [r2]
 398 00d4 38BD     		pop	{r3, r4, r5, pc}
 399              	.LVL27:
 400              	.L23:
 401 00d6 00BF     		.align	2
 402              	.L22:
 403 00d8 80400040 		.word	1073758336
 404 00dc 82400040 		.word	1073758338
 405 00e0 86400040 		.word	1073758342
 406 00e4 88400040 		.word	1073758344
 407 00e8 00410040 		.word	1073758464
 408 00ec 7C040048 		.word	1207960700
 409 00f0 00430040 		.word	1073758976
 410 00f4 0F010049 		.word	1224737039
 411 00f8 A1460040 		.word	1073759905
 412 00fc 22420040 		.word	1073758754
 413 0100 25420040 		.word	1073758757
 414 0104 04400040 		.word	1073758212
 415 0108 06400040 		.word	1073758214
 416 010c 01400040 		.word	1073758209
 417 0110 A2430040 		.word	1073759138
 418              		.cfi_endproc
 419              	.LFE5:
 420              		.size	ClockSetup, .-ClockSetup
 421              		.section	.text.SetAnalogRoutingPumps,"ax",%progbits
 422              		.align	2
 423              		.global	SetAnalogRoutingPumps
 424              		.thumb
 425              		.thumb_func
 426              		.type	SetAnalogRoutingPumps, %function
 427              	SetAnalogRoutingPumps:
 428              	.LFB7:
 318:Generated_Source\PSoC5/cyfitter_cfg.c **** }
 319:Generated_Source\PSoC5/cyfitter_cfg.c **** 
 320:Generated_Source\PSoC5/cyfitter_cfg.c **** 
 321:Generated_Source\PSoC5/cyfitter_cfg.c **** /*******************************************************************************
 322:Generated_Source\PSoC5/cyfitter_cfg.c **** * Function Name: SetAnalogRoutingPumps
 323:Generated_Source\PSoC5/cyfitter_cfg.c **** ********************************************************************************
 324:Generated_Source\PSoC5/cyfitter_cfg.c **** *
 325:Generated_Source\PSoC5/cyfitter_cfg.c **** * Summary:
 326:Generated_Source\PSoC5/cyfitter_cfg.c **** * Enables or disables the analog pumps feeding analog routing switches.
 327:Generated_Source\PSoC5/cyfitter_cfg.c **** * Intended to be called at startup, based on the Vdda system configuration;
 328:Generated_Source\PSoC5/cyfitter_cfg.c **** * may be called during operation when the user informs us that the Vdda voltage
 329:Generated_Source\PSoC5/cyfitter_cfg.c **** * crossed the pump threshold.
ARM GAS  C:\Users\koseki\AppData\Local\Temp\cc9XqZkK.s 			page 15


 330:Generated_Source\PSoC5/cyfitter_cfg.c **** *
 331:Generated_Source\PSoC5/cyfitter_cfg.c **** * Parameters:
 332:Generated_Source\PSoC5/cyfitter_cfg.c **** *  enabled - 1 to enable the pumps, 0 to disable the pumps
 333:Generated_Source\PSoC5/cyfitter_cfg.c **** *
 334:Generated_Source\PSoC5/cyfitter_cfg.c **** * Return:
 335:Generated_Source\PSoC5/cyfitter_cfg.c **** *  void
 336:Generated_Source\PSoC5/cyfitter_cfg.c **** *
 337:Generated_Source\PSoC5/cyfitter_cfg.c **** *******************************************************************************/
 338:Generated_Source\PSoC5/cyfitter_cfg.c **** void SetAnalogRoutingPumps(uint8 enabled)
 339:Generated_Source\PSoC5/cyfitter_cfg.c **** {
 429              		.loc 1 339 0
 430              		.cfi_startproc
 431              		@ args = 0, pretend = 0, frame = 0
 432              		@ frame_needed = 0, uses_anonymous_args = 0
 433              		@ link register save eliminated.
 434              	.LVL28:
 340:Generated_Source\PSoC5/cyfitter_cfg.c **** 	uint8 regValue = CY_GET_XTND_REG8((void CYFAR *)CYREG_PUMP_CR0);
 435              		.loc 1 340 0
 436 0000 054B     		ldr	r3, .L27
 437 0002 1B78     		ldrb	r3, [r3]	@ zero_extendqisi2
 438 0004 DBB2     		uxtb	r3, r3
 439              	.LVL29:
 341:Generated_Source\PSoC5/cyfitter_cfg.c **** 	if (enabled != 0u)
 440              		.loc 1 341 0
 441 0006 10B1     		cbz	r0, .L25
 342:Generated_Source\PSoC5/cyfitter_cfg.c **** 	{
 343:Generated_Source\PSoC5/cyfitter_cfg.c **** 		regValue |= 0x22u;
 442              		.loc 1 343 0
 443 0008 43F02203 		orr	r3, r3, #34
 444              	.LVL30:
 445 000c 01E0     		b	.L26
 446              	.L25:
 344:Generated_Source\PSoC5/cyfitter_cfg.c **** 	}
 345:Generated_Source\PSoC5/cyfitter_cfg.c **** 	else
 346:Generated_Source\PSoC5/cyfitter_cfg.c **** 	{
 347:Generated_Source\PSoC5/cyfitter_cfg.c **** 		regValue &= (uint8)~0x22u;
 447              		.loc 1 347 0
 448 000e 03F0DD03 		and	r3, r3, #221
 449              	.LVL31:
 450              	.L26:
 348:Generated_Source\PSoC5/cyfitter_cfg.c **** 	}
 349:Generated_Source\PSoC5/cyfitter_cfg.c **** 	CY_SET_XTND_REG8((void CYFAR *)CYREG_PUMP_CR0, regValue);
 451              		.loc 1 349 0
 452 0012 014A     		ldr	r2, .L27
 453 0014 1370     		strb	r3, [r2]
 454 0016 7047     		bx	lr
 455              	.L28:
 456              		.align	2
 457              	.L27:
 458 0018 76580040 		.word	1073764470
 459              		.cfi_endproc
 460              	.LFE7:
 461              		.size	SetAnalogRoutingPumps, .-SetAnalogRoutingPumps
 462              		.section	.text.cyfitter_cfg,"ax",%progbits
 463              		.align	2
 464              		.global	cyfitter_cfg
 465              		.thumb
ARM GAS  C:\Users\koseki\AppData\Local\Temp\cc9XqZkK.s 			page 16


 466              		.thumb_func
 467              		.type	cyfitter_cfg, %function
 468              	cyfitter_cfg:
 469              	.LFB8:
 350:Generated_Source\PSoC5/cyfitter_cfg.c **** }
 351:Generated_Source\PSoC5/cyfitter_cfg.c **** 
 352:Generated_Source\PSoC5/cyfitter_cfg.c **** #define CY_AMUX_UNUSED CYREG_BOOST_SR
 353:Generated_Source\PSoC5/cyfitter_cfg.c **** 
 354:Generated_Source\PSoC5/cyfitter_cfg.c **** 
 355:Generated_Source\PSoC5/cyfitter_cfg.c **** /*******************************************************************************
 356:Generated_Source\PSoC5/cyfitter_cfg.c **** * Function Name: cyfitter_cfg
 357:Generated_Source\PSoC5/cyfitter_cfg.c **** ********************************************************************************
 358:Generated_Source\PSoC5/cyfitter_cfg.c **** * Summary:
 359:Generated_Source\PSoC5/cyfitter_cfg.c **** *  This function is called by the start-up code for the selected device. It
 360:Generated_Source\PSoC5/cyfitter_cfg.c **** *  performs all of the necessary device configuration based on the design
 361:Generated_Source\PSoC5/cyfitter_cfg.c **** *  settings.  This includes settings from the Design Wide Resources (DWR) such
 362:Generated_Source\PSoC5/cyfitter_cfg.c **** *  as Clocks and Pins as well as any component configuration that is necessary.
 363:Generated_Source\PSoC5/cyfitter_cfg.c **** *
 364:Generated_Source\PSoC5/cyfitter_cfg.c **** * Parameters:  
 365:Generated_Source\PSoC5/cyfitter_cfg.c **** *   void
 366:Generated_Source\PSoC5/cyfitter_cfg.c **** *
 367:Generated_Source\PSoC5/cyfitter_cfg.c **** * Return:
 368:Generated_Source\PSoC5/cyfitter_cfg.c **** *   void
 369:Generated_Source\PSoC5/cyfitter_cfg.c **** *
 370:Generated_Source\PSoC5/cyfitter_cfg.c **** *******************************************************************************/
 371:Generated_Source\PSoC5/cyfitter_cfg.c **** 
 372:Generated_Source\PSoC5/cyfitter_cfg.c **** void cyfitter_cfg(void)
 373:Generated_Source\PSoC5/cyfitter_cfg.c **** {
 470              		.loc 1 373 0
 471              		.cfi_startproc
 472              		@ args = 0, pretend = 0, frame = 0
 473              		@ frame_needed = 0, uses_anonymous_args = 0
 474 0000 38B5     		push	{r3, r4, r5, lr}
 475              		.cfi_def_cfa_offset 16
 476              		.cfi_offset 3, -16
 477              		.cfi_offset 4, -12
 478              		.cfi_offset 5, -8
 479              		.cfi_offset 14, -4
 374:Generated_Source\PSoC5/cyfitter_cfg.c **** #ifdef CYGlobalIntDisable
 375:Generated_Source\PSoC5/cyfitter_cfg.c **** 	/* Disable interrupts by default. Let user enable if/when they want. */
 376:Generated_Source\PSoC5/cyfitter_cfg.c **** 	CYGlobalIntDisable
 480              		.loc 1 376 0
 481              	@ 376 "Generated_Source\PSoC5\cyfitter_cfg.c" 1
 482 0002 72B6     		CPSID   i
 483              	@ 0 "" 2
 377:Generated_Source\PSoC5/cyfitter_cfg.c **** #endif
 378:Generated_Source\PSoC5/cyfitter_cfg.c **** 
 379:Generated_Source\PSoC5/cyfitter_cfg.c **** 
 380:Generated_Source\PSoC5/cyfitter_cfg.c **** 	/* Set Flash Cycles based on max possible frequency in case a glitch occurs during ClockSetup(). *
 381:Generated_Source\PSoC5/cyfitter_cfg.c **** 	CY_SET_XTND_REG8((void CYFAR *)(CYREG_CACHE_CC_CTL), (((CYDEV_INSTRUCT_CACHE_ENABLED) != 0) ? 0x61
 484              		.loc 1 381 0
 485              		.thumb
 486 0004 3C4C     		ldr	r4, .L35
 487 0006 6123     		movs	r3, #97
 488 0008 2370     		strb	r3, [r4]
 382:Generated_Source\PSoC5/cyfitter_cfg.c **** 	/* Setup clocks based on selections from Clock DWR */
 383:Generated_Source\PSoC5/cyfitter_cfg.c **** 	ClockSetup();
ARM GAS  C:\Users\koseki\AppData\Local\Temp\cc9XqZkK.s 			page 17


 489              		.loc 1 383 0
 490 000a FFF7FEFF 		bl	ClockSetup
 491              	.LVL32:
 384:Generated_Source\PSoC5/cyfitter_cfg.c **** 	/* Set Flash Cycles based on newly configured 66.00MHz Bus Clock. */
 385:Generated_Source\PSoC5/cyfitter_cfg.c **** 	CY_SET_XTND_REG8((void CYFAR *)(CYREG_CACHE_CC_CTL), (((CYDEV_INSTRUCT_CACHE_ENABLED) != 0) ? 0x01
 492              		.loc 1 385 0
 493 000e 0123     		movs	r3, #1
 494 0010 2370     		strb	r3, [r4]
 386:Generated_Source\PSoC5/cyfitter_cfg.c **** 	/* Enable/Disable Debug functionality based on settings from System DWR */
 387:Generated_Source\PSoC5/cyfitter_cfg.c **** 	CY_SET_XTND_REG8((void CYFAR *)CYREG_MLOGIC_DEBUG, (CY_GET_XTND_REG8((void CYFAR *)CYREG_MLOGIC_DE
 495              		.loc 1 387 0
 496 0012 3A4A     		ldr	r2, .L35+4
 497 0014 1378     		ldrb	r3, [r2]	@ zero_extendqisi2
 498 0016 43F00403 		orr	r3, r3, #4
 499 001a 1370     		strb	r3, [r2]
 500              	.LVL33:
 501              	.LBB3:
 388:Generated_Source\PSoC5/cyfitter_cfg.c **** 
 389:Generated_Source\PSoC5/cyfitter_cfg.c **** 	{
 390:Generated_Source\PSoC5/cyfitter_cfg.c **** 
 391:Generated_Source\PSoC5/cyfitter_cfg.c **** 		CYPACKED typedef struct {
 392:Generated_Source\PSoC5/cyfitter_cfg.c **** 			void CYFAR *address;
 393:Generated_Source\PSoC5/cyfitter_cfg.c **** 			uint16 size;
 394:Generated_Source\PSoC5/cyfitter_cfg.c **** 		} CYPACKED_ATTR cfg_memset_t;
 395:Generated_Source\PSoC5/cyfitter_cfg.c **** 
 396:Generated_Source\PSoC5/cyfitter_cfg.c **** 
 397:Generated_Source\PSoC5/cyfitter_cfg.c **** 		CYPACKED typedef struct {
 398:Generated_Source\PSoC5/cyfitter_cfg.c **** 			void CYFAR *dest;
 399:Generated_Source\PSoC5/cyfitter_cfg.c **** 			const void CYFAR *src;
 400:Generated_Source\PSoC5/cyfitter_cfg.c **** 			uint16 size;
 401:Generated_Source\PSoC5/cyfitter_cfg.c **** 		} CYPACKED_ATTR cfg_memcpy_t;
 402:Generated_Source\PSoC5/cyfitter_cfg.c **** 
 403:Generated_Source\PSoC5/cyfitter_cfg.c **** 		static const cfg_memset_t CYCODE cfg_memset_list [] = {
 404:Generated_Source\PSoC5/cyfitter_cfg.c **** 			/* address, size */
 405:Generated_Source\PSoC5/cyfitter_cfg.c **** 			{(void CYFAR *)(CYREG_I2C_XCFG), 25u},
 406:Generated_Source\PSoC5/cyfitter_cfg.c **** 			{(void CYFAR *)(CYREG_PRT4_DR), 48u},
 407:Generated_Source\PSoC5/cyfitter_cfg.c **** 			{(void CYFAR *)(CYDEV_UCFG_B0_P0_U0_BASE), 2176u},
 408:Generated_Source\PSoC5/cyfitter_cfg.c **** 			{(void CYFAR *)(CYDEV_UCFG_B0_P4_ROUTE_BASE), 1792u},
 409:Generated_Source\PSoC5/cyfitter_cfg.c **** 			{(void CYFAR *)(CYDEV_UCFG_B1_P2_U0_BASE), 2048u},
 410:Generated_Source\PSoC5/cyfitter_cfg.c **** 			{(void CYFAR *)(CYDEV_UCFG_DSI0_BASE), 2560u},
 411:Generated_Source\PSoC5/cyfitter_cfg.c **** 			{(void CYFAR *)(CYDEV_UCFG_DSI12_BASE), 512u},
 412:Generated_Source\PSoC5/cyfitter_cfg.c **** 			{(void CYFAR *)(CYREG_BCTL0_MDCLK_EN), 32u},
 413:Generated_Source\PSoC5/cyfitter_cfg.c **** 		};
 414:Generated_Source\PSoC5/cyfitter_cfg.c **** 
 415:Generated_Source\PSoC5/cyfitter_cfg.c **** 		static const cfg_memcpy_t CYCODE cfg_memcpy_list [] = {
 416:Generated_Source\PSoC5/cyfitter_cfg.c **** 			/* dest, src, size */
 417:Generated_Source\PSoC5/cyfitter_cfg.c **** 			{(void CYFAR *)(CYDEV_UCFG_B0_P4_U1_BASE), BS_UDB_0_2_0_CONFIG_VAL, 128u},
 418:Generated_Source\PSoC5/cyfitter_cfg.c **** 		};
 419:Generated_Source\PSoC5/cyfitter_cfg.c **** 
 420:Generated_Source\PSoC5/cyfitter_cfg.c **** 		uint8 CYDATA i;
 421:Generated_Source\PSoC5/cyfitter_cfg.c **** 
 422:Generated_Source\PSoC5/cyfitter_cfg.c **** 		/* Zero out critical memory blocks before beginning configuration */
 423:Generated_Source\PSoC5/cyfitter_cfg.c **** 		for (i = 0u; i < (sizeof(cfg_memset_list)/sizeof(cfg_memset_list[0])); i++)
 502              		.loc 1 423 0
 503 001c 0024     		movs	r4, #0
 504 001e 0CE0     		b	.L30
 505              	.LVL34:
ARM GAS  C:\Users\koseki\AppData\Local\Temp\cc9XqZkK.s 			page 18


 506              	.L31:
 507              	.LBB4:
 424:Generated_Source\PSoC5/cyfitter_cfg.c **** 		{
 425:Generated_Source\PSoC5/cyfitter_cfg.c **** 			const cfg_memset_t CYCODE * CYDATA ms = &cfg_memset_list[i];
 426:Generated_Source\PSoC5/cyfitter_cfg.c **** 			CYMEMZERO(ms->address, (size_t)(uint32)(ms->size));
 508              		.loc 1 426 0 discriminator 3
 509 0020 3749     		ldr	r1, .L35+8
 510 0022 6300     		lsls	r3, r4, #1
 511 0024 1A19     		adds	r2, r3, r4
 512 0026 5200     		lsls	r2, r2, #1
 513 0028 0A44     		add	r2, r2, r1
 514 002a 2344     		add	r3, r3, r4
 515 002c 5B00     		lsls	r3, r3, #1
 516 002e C858     		ldr	r0, [r1, r3]	@ unaligned
 517 0030 9188     		ldrh	r1, [r2, #4]
 518 0032 FFF7FEFF 		bl	CYMEMZERO
 519              	.LVL35:
 520              	.LBE4:
 423:Generated_Source\PSoC5/cyfitter_cfg.c **** 		{
 521              		.loc 1 423 0 discriminator 3
 522 0036 0134     		adds	r4, r4, #1
 523              	.LVL36:
 524 0038 E4B2     		uxtb	r4, r4
 525              	.LVL37:
 526              	.L30:
 423:Generated_Source\PSoC5/cyfitter_cfg.c **** 		{
 527              		.loc 1 423 0 is_stmt 0 discriminator 1
 528 003a 072C     		cmp	r4, #7
 529 003c F0D9     		bls	.L31
 530 003e 0024     		movs	r4, #0
 531              	.LVL38:
 532 0040 0BE0     		b	.L32
 533              	.LVL39:
 534              	.L33:
 535              	.LBB5:
 427:Generated_Source\PSoC5/cyfitter_cfg.c **** 		}
 428:Generated_Source\PSoC5/cyfitter_cfg.c **** 
 429:Generated_Source\PSoC5/cyfitter_cfg.c **** 		/* Copy device configuration data into registers */
 430:Generated_Source\PSoC5/cyfitter_cfg.c **** 		for (i = 0u; i < (sizeof(cfg_memcpy_list)/sizeof(cfg_memcpy_list[0])); i++)
 431:Generated_Source\PSoC5/cyfitter_cfg.c **** 		{
 432:Generated_Source\PSoC5/cyfitter_cfg.c **** 			const cfg_memcpy_t CYCODE * CYDATA mc = &cfg_memcpy_list[i];
 433:Generated_Source\PSoC5/cyfitter_cfg.c **** 			void * CYDATA destPtr = mc->dest;
 536              		.loc 1 433 0 is_stmt 1 discriminator 3
 537 0042 2F49     		ldr	r1, .L35+8
 538 0044 A300     		lsls	r3, r4, #2
 539 0046 1A19     		adds	r2, r3, r4
 540 0048 5200     		lsls	r2, r2, #1
 541 004a 0A44     		add	r2, r2, r1
 542              	.LVL40:
 434:Generated_Source\PSoC5/cyfitter_cfg.c **** 			const void * CYDATA srcPtr = mc->src;
 435:Generated_Source\PSoC5/cyfitter_cfg.c **** 			uint16 CYDATA numBytes = mc->size;
 436:Generated_Source\PSoC5/cyfitter_cfg.c **** 			CYCONFIGCPY(destPtr, srcPtr, numBytes);
 543              		.loc 1 436 0 discriminator 3
 544 004c 106B     		ldr	r0, [r2, #48]	@ unaligned
 545              	.LVL41:
 546 004e 516B     		ldr	r1, [r2, #52]	@ unaligned
 547              	.LVL42:
ARM GAS  C:\Users\koseki\AppData\Local\Temp\cc9XqZkK.s 			page 19


 548 0050 8022     		movs	r2, #128
 549 0052 FFF7FEFF 		bl	CYCONFIGCPY
 550              	.LVL43:
 551              	.LBE5:
 430:Generated_Source\PSoC5/cyfitter_cfg.c **** 		{
 552              		.loc 1 430 0 discriminator 3
 553 0056 0134     		adds	r4, r4, #1
 554              	.LVL44:
 555 0058 E4B2     		uxtb	r4, r4
 556              	.LVL45:
 557              	.L32:
 430:Generated_Source\PSoC5/cyfitter_cfg.c **** 		{
 558              		.loc 1 430 0 is_stmt 0 discriminator 1
 559 005a 002C     		cmp	r4, #0
 560 005c F1D0     		beq	.L33
 437:Generated_Source\PSoC5/cyfitter_cfg.c **** 		}
 438:Generated_Source\PSoC5/cyfitter_cfg.c **** 
 439:Generated_Source\PSoC5/cyfitter_cfg.c **** 		cfg_write_bytes32(cy_cfg_addr_table, cy_cfg_data_table);
 561              		.loc 1 439 0 is_stmt 1
 562 005e 4FF09040 		mov	r0, #1207959552
 563 0062 2849     		ldr	r1, .L35+12
 564 0064 FFF7FEFF 		bl	cfg_write_bytes32
 565              	.LVL46:
 440:Generated_Source\PSoC5/cyfitter_cfg.c **** 
 441:Generated_Source\PSoC5/cyfitter_cfg.c **** 		/* Perform normal device configuration. Order is not critical for these items. */
 442:Generated_Source\PSoC5/cyfitter_cfg.c **** 		CY_SET_XTND_REG8((void CYFAR *)(CYREG_DSM0_CR3), 0x0Au);
 566              		.loc 1 442 0
 567 0068 0A24     		movs	r4, #10
 568              	.LVL47:
 569 006a 274B     		ldr	r3, .L35+16
 570 006c 1C70     		strb	r4, [r3]
 443:Generated_Source\PSoC5/cyfitter_cfg.c **** 		CY_SET_XTND_REG16((void CYFAR *)(CYREG_LUT1_CR), 0x0103u);
 571              		.loc 1 443 0
 572 006e 40F20312 		movw	r2, #259
 573 0072 393B     		subs	r3, r3, #57
 574 0074 1A80     		strh	r2, [r3]	@ movhi
 444:Generated_Source\PSoC5/cyfitter_cfg.c **** 
 445:Generated_Source\PSoC5/cyfitter_cfg.c **** 		/* Enable digital routing */
 446:Generated_Source\PSoC5/cyfitter_cfg.c **** 		CY_SET_XTND_REG8((void CYFAR *)CYREG_BCTL0_BANK_CTL, CY_GET_XTND_REG8((void CYFAR *)CYREG_BCTL0_B
 575              		.loc 1 446 0
 576 0076 254A     		ldr	r2, .L35+20
 577 0078 1378     		ldrb	r3, [r2]	@ zero_extendqisi2
 578 007a 43F00203 		orr	r3, r3, #2
 579 007e 1370     		strb	r3, [r2]
 447:Generated_Source\PSoC5/cyfitter_cfg.c **** 		CY_SET_XTND_REG8((void CYFAR *)CYREG_BCTL1_BANK_CTL, CY_GET_XTND_REG8((void CYFAR *)CYREG_BCTL1_B
 580              		.loc 1 447 0
 581 0080 1032     		adds	r2, r2, #16
 582 0082 1378     		ldrb	r3, [r2]	@ zero_extendqisi2
 583 0084 43F00203 		orr	r3, r3, #2
 584 0088 1370     		strb	r3, [r2]
 448:Generated_Source\PSoC5/cyfitter_cfg.c **** 
 449:Generated_Source\PSoC5/cyfitter_cfg.c **** 		/* Enable UDB array */
 450:Generated_Source\PSoC5/cyfitter_cfg.c **** 		CY_SET_XTND_REG8((void CYFAR *)CYREG_PM_ACT_CFG0, CY_GET_XTND_REG8((void CYFAR *)CYREG_PM_ACT_CFG
 585              		.loc 1 450 0
 586 008a 214D     		ldr	r5, .L35+24
 587 008c 2B78     		ldrb	r3, [r5]	@ zero_extendqisi2
 588 008e 43F04003 		orr	r3, r3, #64
ARM GAS  C:\Users\koseki\AppData\Local\Temp\cc9XqZkK.s 			page 20


 589 0092 2B70     		strb	r3, [r5]
 451:Generated_Source\PSoC5/cyfitter_cfg.c **** 		CY_SET_XTND_REG8((void CYFAR *)CYREG_PM_AVAIL_CR2, CY_GET_XTND_REG8((void CYFAR *)CYREG_PM_AVAIL_
 590              		.loc 1 451 0
 591 0094 A2F58632 		sub	r2, r2, #68608
 592 0098 513A     		subs	r2, r2, #81
 593 009a 1378     		ldrb	r3, [r2]	@ zero_extendqisi2
 594 009c 43F01003 		orr	r3, r3, #16
 595 00a0 1370     		strb	r3, [r2]
 596              	.LBE3:
 452:Generated_Source\PSoC5/cyfitter_cfg.c **** 	}
 453:Generated_Source\PSoC5/cyfitter_cfg.c **** 
 454:Generated_Source\PSoC5/cyfitter_cfg.c **** 
 455:Generated_Source\PSoC5/cyfitter_cfg.c **** 	/* Perform second pass device configuration. These items must be configured in specific order afte
 456:Generated_Source\PSoC5/cyfitter_cfg.c **** 	CYCONFIGCPY((void CYFAR *)(CYREG_PRT0_DM0), (const void CYFAR *)(BS_IOPINS0_0_VAL), 8u);
 597              		.loc 1 456 0
 598 00a2 1C48     		ldr	r0, .L35+28
 599 00a4 1C49     		ldr	r1, .L35+32
 600 00a6 0822     		movs	r2, #8
 601 00a8 FFF7FEFF 		bl	CYCONFIGCPY
 602              	.LVL48:
 457:Generated_Source\PSoC5/cyfitter_cfg.c **** 	CYCONFIGCPY((void CYFAR *)(CYREG_PRT12_DM0), (const void CYFAR *)(BS_IOPINS0_7_VAL), 8u);
 603              		.loc 1 457 0
 604 00ac 1B48     		ldr	r0, .L35+36
 605 00ae 1C49     		ldr	r1, .L35+40
 606 00b0 0822     		movs	r2, #8
 607 00b2 FFF7FEFF 		bl	CYCONFIGCPY
 608              	.LVL49:
 458:Generated_Source\PSoC5/cyfitter_cfg.c **** 	CYCONFIGCPY((void CYFAR *)(CYREG_PRT15_DR), (const void CYFAR *)(BS_IOPINS0_8_VAL), 10u);
 609              		.loc 1 458 0
 610 00b6 1B48     		ldr	r0, .L35+44
 611 00b8 1B49     		ldr	r1, .L35+48
 612 00ba 2246     		mov	r2, r4
 613 00bc FFF7FEFF 		bl	CYCONFIGCPY
 614              	.LVL50:
 459:Generated_Source\PSoC5/cyfitter_cfg.c **** 	CYCONFIGCPY((void CYFAR *)(CYREG_PRT1_DM0), (const void CYFAR *)(BS_IOPINS0_1_VAL), 8u);
 615              		.loc 1 459 0
 616 00c0 1A48     		ldr	r0, .L35+52
 617 00c2 1B49     		ldr	r1, .L35+56
 618 00c4 0822     		movs	r2, #8
 619 00c6 FFF7FEFF 		bl	CYCONFIGCPY
 620              	.LVL51:
 460:Generated_Source\PSoC5/cyfitter_cfg.c **** 	CYCONFIGCPY((void CYFAR *)(CYREG_PRT2_DR), (const void CYFAR *)(BS_IOPINS0_2_VAL), 10u);
 621              		.loc 1 460 0
 622 00ca 1A48     		ldr	r0, .L35+60
 623 00cc 1A49     		ldr	r1, .L35+64
 624 00ce 2246     		mov	r2, r4
 625 00d0 FFF7FEFF 		bl	CYCONFIGCPY
 626              	.LVL52:
 461:Generated_Source\PSoC5/cyfitter_cfg.c **** 	CYCONFIGCPY((void CYFAR *)(CYREG_PRT3_DR), (const void CYFAR *)(BS_IOPINS0_3_VAL), 10u);
 627              		.loc 1 461 0
 628 00d4 1948     		ldr	r0, .L35+68
 629 00d6 1A49     		ldr	r1, .L35+72
 630 00d8 2246     		mov	r2, r4
 631 00da FFF7FEFF 		bl	CYCONFIGCPY
 632              	.LVL53:
 462:Generated_Source\PSoC5/cyfitter_cfg.c **** 	/* Switch Boost to the precision bandgap reference from its internal reference */
 463:Generated_Source\PSoC5/cyfitter_cfg.c **** 	CY_SET_REG8((void CYXDATA *)CYREG_BOOST_CR2, (CY_GET_REG8((void CYXDATA *)CYREG_BOOST_CR2) | 0x08u
ARM GAS  C:\Users\koseki\AppData\Local\Temp\cc9XqZkK.s 			page 21


 633              		.loc 1 463 0
 634 00de 194A     		ldr	r2, .L35+76
 635 00e0 1378     		ldrb	r3, [r2]	@ zero_extendqisi2
 636 00e2 43F00803 		orr	r3, r3, #8
 637 00e6 1370     		strb	r3, [r2]
 464:Generated_Source\PSoC5/cyfitter_cfg.c **** 
 465:Generated_Source\PSoC5/cyfitter_cfg.c **** 	/* Perform basic analog initialization to defaults */
 466:Generated_Source\PSoC5/cyfitter_cfg.c **** 	AnalogSetDefault();
 638              		.loc 1 466 0
 639 00e8 FFF7FEFF 		bl	AnalogSetDefault
 640              	.LVL54:
 467:Generated_Source\PSoC5/cyfitter_cfg.c **** 
 468:Generated_Source\PSoC5/cyfitter_cfg.c **** 	/* Configure alternate active mode */
 469:Generated_Source\PSoC5/cyfitter_cfg.c **** 	CYCONFIGCPY((void CYFAR *)CYDEV_PM_STBY_BASE, (const void CYFAR *)CYDEV_PM_ACT_BASE, 14u);
 641              		.loc 1 469 0
 642 00ec 1648     		ldr	r0, .L35+80
 643 00ee 2946     		mov	r1, r5
 644 00f0 0E22     		movs	r2, #14
 645 00f2 FFF7FEFF 		bl	CYCONFIGCPY
 646              	.LVL55:
 647 00f6 38BD     		pop	{r3, r4, r5, pc}
 648              	.L36:
 649              		.align	2
 650              	.L35:
 651 00f8 00480040 		.word	1073760256
 652 00fc E8460040 		.word	1073759976
 653 0100 00000000 		.word	.LANCHOR0
 654 0104 78000048 		.word	1207959672
 655 0108 83580040 		.word	1073764483
 656 010c 03500140 		.word	1073827843
 657 0110 A0430040 		.word	1073759136
 658 0114 02510040 		.word	1073762562
 659 0118 40040048 		.word	1207960640
 660 011c C2510040 		.word	1073762754
 661 0120 48040048 		.word	1207960648
 662 0124 F0510040 		.word	1073762800
 663 0128 50040048 		.word	1207960656
 664 012c 12510040 		.word	1073762578
 665 0130 5C040048 		.word	1207960668
 666 0134 20510040 		.word	1073762592
 667 0138 64040048 		.word	1207960676
 668 013c 30510040 		.word	1073762608
 669 0140 70040048 		.word	1207960688
 670 0144 22430040 		.word	1073759010
 671 0148 B0430040 		.word	1073759152
 672              		.cfi_endproc
 673              	.LFE8:
 674              		.size	cyfitter_cfg, .-cyfitter_cfg
 675              		.section	.rodata
 676              		.align	2
 677              		.set	.LANCHOR0,. + 0
 678              		.type	cfg_memset_list.4885, %object
 679              		.size	cfg_memset_list.4885, 48
 680              	cfg_memset_list.4885:
 681 0000 C8490040 		.word	1073760712
 682 0004 1900     		.short	25
 683 0006 40510040 		.4byte	1073762624
ARM GAS  C:\Users\koseki\AppData\Local\Temp\cc9XqZkK.s 			page 22


 684 000a 3000     		.short	48
 685 000c 00000140 		.word	1073807360
 686 0010 8008     		.short	2176
 687 0012 00090140 		.4byte	1073809664
 688 0016 0007     		.short	1792
 689 0018 00140140 		.word	1073812480
 690 001c 0008     		.short	2048
 691 001e 00400140 		.4byte	1073823744
 692 0022 000A     		.short	2560
 693 0024 004C0140 		.word	1073826816
 694 0028 0002     		.short	512
 695 002a 00500140 		.4byte	1073827840
 696 002e 2000     		.short	32
 697              		.type	cfg_memcpy_list.4886, %object
 698              		.size	cfg_memcpy_list.4886, 10
 699              	cfg_memcpy_list.4886:
 700 0030 80080140 		.word	1073809536
 701 0034 C0030048 		.word	1207960512
 702 0038 8000     		.short	128
 703 003a 0000     		.text
 704              	.Letext0:
 705              		.file 2 "c:\\program files (x86)\\cypress\\psoc creator\\4.0\\psoc creator\\import\\gnu\\arm\\4.9.
 706              		.file 3 "Generated_Source\\PSoC5\\cytypes.h"
 707              		.file 4 "Generated_Source\\PSoC5\\CyLib.h"