ARM GAS  C:\Users\koseki\AppData\Local\Temp\ccT0XNG9.s 			page 1


   1              		.syntax unified
   2              		.cpu cortex-m3
   3              		.fpu softvfp
   4              		.eabi_attribute 20, 1
   5              		.eabi_attribute 21, 1
   6              		.eabi_attribute 23, 3
   7              		.eabi_attribute 24, 1
   8              		.eabi_attribute 25, 1
   9              		.eabi_attribute 26, 1
  10              		.eabi_attribute 30, 1
  11              		.eabi_attribute 34, 1
  12              		.eabi_attribute 18, 4
  13              		.thumb
  14              		.file	"main.c"
  15              		.text
  16              	.Ltext0:
  17              		.cfi_sections	.debug_frame
  18              		.section	.text.Task_LED,"ax",%progbits
  19              		.align	2
  20              		.global	Task_LED
  21              		.thumb
  22              		.thumb_func
  23              		.type	Task_LED, %function
  24              	Task_LED:
  25              	.LFB69:
  26              		.file 1 "main.c"
   1:main.c        **** //----------------------------------------------------------------------------
   2:main.c        **** //
   3:main.c        **** //	SIMPLE SDR RECEIVER PSoC3 FIRMWARE for Hardware Rev -
   4:main.c        **** //
   5:main.c        **** //	Copyright 2011 Simple Circuits Inc.
   6:main.c        **** //
   7:main.c        **** //	06/03/2011	Original release.
   8:main.c        **** //
   9:main.c        **** //
  10:main.c        **** //
  11:main.c        **** //	ADC sample rate is 32068 sps total, or 16034 sps per channel
  12:main.c        **** //
  13:main.c        **** //----------------------------------------------------------------------------
  14:main.c        **** //
  15:main.c        **** // PSoC3 => PSoC5LP
  16:main.c        **** //
  17:main.c        **** //  Sumio Koseki (JA7RHK)
  18:main.c        **** //	05/28/2017
  19:main.c        **** //
  20:main.c        **** //----------------------------------------------------------------------------
  21:main.c        **** #include <string.h>
  22:main.c        **** #include <stdio.h>
  23:main.c        **** #include <math.h>
  24:main.c        **** #include "main.h"
  25:main.c        **** // FreeRTOS
  26:main.c        **** #include "FreeRTOS.h"
  27:main.c        **** #include "task.h"
  28:main.c        **** #include "queue.h"
  29:main.c        **** #include "semphr.h"
  30:main.c        **** // API
  31:main.c        **** #include "rot.h"
ARM GAS  C:\Users\koseki\AppData\Local\Temp\ccT0XNG9.s 			page 2


  32:main.c        **** #include "key.h"
  33:main.c        **** #include "I2C_CLCD.h"
  34:main.c        **** #include "USBUART_API.h"
  35:main.c        **** 
  36:main.c        **** //----------------------------------------------------------------------------
  37:main.c        **** //
  38:main.c        **** //	Constants
  39:main.c        **** //
  40:main.c        **** //----------------------------------------------------------------------------
  41:main.c        **** // PSoC3 => PSoC5LP
  42:main.c        **** #define	FREQ_START			"00891000"			// in ASCII BCD chars
  43:main.c        **** #define	FREQ_PLL_TEST		"00457000"			// pll lock test frequency
  44:main.c        **** #define	FREQ_LOW			100000              // 100kHz
  45:main.c        **** #define	FREQ_HIGH		    8000000             // 8MHz
  46:main.c        **** #define USBUART_TIMEOUT 2000000 // Timeout for USB Connection (adjustment might be required)
  47:main.c        **** //#define DEBUG_USBUART       // Debug Mode
  48:main.c        **** 
  49:main.c        **** const uint8 HEX2ASCII [] = {"0123456789ABCDEF"};
  50:main.c        **** extern const uint8 CYCODE Filter_data_b_2500[];	// FIR coefficients
  51:main.c        **** extern const uint8 CYCODE Filter_data_b_2000[];	// FIR coefficients
  52:main.c        **** extern const uint8 CYCODE Filter_data_b_1500[];	// FIR coefficients
  53:main.c        **** extern const uint8 CYCODE Filter_data_b_cw[];	// FIR coefficients
  54:main.c        **** extern const uint8 CYCODE Filter_data_b_am[];	// FIR coefficients
  55:main.c        **** extern const int32 CYCODE Hilbert [];			// Hilbert tranformer coefficients
  56:main.c        **** 
  57:main.c        **** // PSoC3 => PSoC5LP
  58:main.c        **** #define PARAM_MAX  8
  59:main.c        **** reg8 *pFREQ_ERROR = (reg8*)(CYDEV_EE_BASE + 16 * FQ_ROW);
  60:main.c        **** reg8 *pSERIAL_NUM = (reg8*)(CYDEV_EE_BASE + 16 * SN_ROW);
  61:main.c        **** uint8 FREQ_ERROR[PARAM_MAX];    // freq offset is 1st row of eeprom
  62:main.c        **** uint8 SERIAL_NUM[PARAM_MAX];    // serial number is 2nd row of eeprom
  63:main.c        **** 
  64:main.c        **** // PSoC3 => PSoC5LP
  65:main.c        **** volatile uint32 gUSBUART_Ready;
  66:main.c        **** 
  67:main.c        **** //----------------------------------------------------------------------------
  68:main.c        **** //
  69:main.c        **** // Channel Selecton
  70:main.c        **** //
  71:main.c        **** //----------------------------------------------------------------------------
  72:main.c        **** #define STATION_MAX 7
  73:main.c        **** 
  74:main.c        **** typedef struct
  75:main.c        **** {
  76:main.c        ****     char    Name[5];
  77:main.c        ****     uint32  Freq;
  78:main.c        ****     uint32  Offset;
  79:main.c        ****     uint32  Step;
  80:main.c        ****     uint8   Mode;
  81:main.c        ****     uint8   Filter;
  82:main.c        **** } Station;
  83:main.c        **** 
  84:main.c        **** Station station[STATION_MAX] = 
  85:main.c        **** {
  86:main.c        ****     {"NHK1 ", 891000, 0, 1, MODE_USB, FILTER_AM },
  87:main.c        ****     {"NHK2 ", 1089000, 0, 1, MODE_USB, FILTER_AM },
  88:main.c        ****     {"TBC  ", 1260000, 0, 1, MODE_USB, FILTER_AM },
ARM GAS  C:\Users\koseki\AppData\Local\Temp\ccT0XNG9.s 			page 3


  89:main.c        ****     {"NHK1 ", 891000, 4000, 1000, MODE_AM, FILTER_AM },       // AM IF = 4 kHz
  90:main.c        ****     {"NHK2 ", 1089000, 4000, 1000, MODE_AM, FILTER_AM },
  91:main.c        ****     {"TBC  ", 1260000, 4000, 1000, MODE_AM, FILTER_AM },
  92:main.c        ****     {"BCON ", 457000, 800, 10, MODE_CW, FILTER_FL4 },        // CW BFO = 800Hz
  93:main.c        **** };
  94:main.c        **** 
  95:main.c        **** //
  96:main.c        **** //----------------------------------------------------------------------------
  97:main.c        **** //
  98:main.c        **** //	Global variables
  99:main.c        **** //
 100:main.c        **** //----------------------------------------------------------------------------
 101:main.c        **** uint8	Freq [8];					// receive frequency in ASCII BCD
 102:main.c        **** uint8	LastFreq [8];				// copy of last tuned rx frequency
 103:main.c        **** int32	Frequency;					// receive frequency in binary
 104:main.c        **** int32	FrequencyError;				// frequency error at 10 MHz
 105:main.c        **** 
 106:main.c        **** uint8	ComRxCmd [32];				// remote command rx buffer
 107:main.c        **** uint8	ComRxPtr;					// pointer into com rx buffer
 108:main.c        **** //uint8	UsbTxBuffer [64];			// USB transmit buffer
 109:main.c        **** uint8	UsbTxBuffer [80];			// USB transmit buffer
 110:main.c        **** uint8	UsbRxBuffer [256];			// USB receive buffer
 111:main.c        **** 
 112:main.c        **** uint8	AdcTick;					// ADC interrupt flag every 6.521 msec
 113:main.c        **** int16	IDCOffset, QDCOffset;		// DC offset values for ADC input
 114:main.c        **** int16	AdcPeak, AdcPeakAve;		// ADC input peak value, and its average
 115:main.c        **** uint8	AgcDisable;					// Agc disable flag
 116:main.c        **** uint8	AgcGain;					// AGC for ADC input
 117:main.c        **** uint8	AgcTimer;					// AGC processing timer
 118:main.c        **** uint8	AgcIntegrator;				// AGC integrator
 119:main.c        **** uint32	AgcIndicator;				// AGC signal strength indicatior
 120:main.c        **** uint8	AgcTimeConstant;			// AGC time constant
 121:main.c        **** 
 122:main.c        **** uint8	LedTimer;					// LED on timer
 123:main.c        **** uint8	DisplayIndex;				// index for status display
 124:main.c        **** 
 125:main.c        **** uint8	Filter;						// audio filter bandwidth selection
 126:main.c        **** uint8	Mode;						// operating mode
 127:main.c        **** uint8	UpperSideBand;				// upper side band mode selection
 128:main.c        **** uint8	AttenuatorOn;				// rx attenuator on/off flag
 129:main.c        **** uint8	Squelch;					// squelch level, 0 - 250.
 130:main.c        **** uint8	Debug;						// debug mode flag, turns off boundary checks
 131:main.c        **** uint8   Ch;                         // channel number (2017.5.31)koseki
 132:main.c        **** 
 133:main.c        **** // ADC Interrupt Handler
 134:main.c        **** uint8	AdcState;					// IQ channel processing flag
 135:main.c        **** int16	IDelay [64];
 136:main.c        **** uint8	IDelayPtr;
 137:main.c        **** 
 138:main.c        **** //----------------------------------------------------------------------------
 139:main.c        **** //
 140:main.c        **** //	Resources for FreeRTOS
 141:main.c        **** //
 142:main.c        **** //----------------------------------------------------------------------------
 143:main.c        **** #define TASK_STACK_LED   128
 144:main.c        **** #define TASK_STACK_KEY   128
 145:main.c        **** #define TASK_STACK_ROT   128
ARM GAS  C:\Users\koseki\AppData\Local\Temp\ccT0XNG9.s 			page 4


 146:main.c        **** #define TASK_STACK_CLCD  512
 147:main.c        **** #define TASK_STACK_USBUART  512
 148:main.c        **** #define TASK_STACK_RADIO    512
 149:main.c        **** 
 150:main.c        **** #define TASK_PRIORITY_LED   (tskIDLE_PRIORITY + 3)
 151:main.c        **** #define TASK_PRIORITY_KEY   (tskIDLE_PRIORITY + 3)
 152:main.c        **** #define TASK_PRIORITY_ROT   (tskIDLE_PRIORITY + 3)
 153:main.c        **** #define TASK_PRIORITY_CLCD  (tskIDLE_PRIORITY + 2)
 154:main.c        **** #define TASK_PRIORITY_USBUART   (tskIDLE_PRIORITY + 2)
 155:main.c        **** #define TASK_PRIORITY_RADIO     (tskIDLE_PRIORITY + 2)
 156:main.c        **** 
 157:main.c        **** void Task_LED   (void *pvParameters);
 158:main.c        **** void Task_KEY   (void *pvParameters);   // .\Utility\key.c
 159:main.c        **** void Task_ROT   (void *pvParameters);   // .\Utility\rot.c
 160:main.c        **** void Task_CLCD  (void *pvParameters);
 161:main.c        **** void Task_USBUART   (void *pvParameters);
 162:main.c        **** void Task_RADIO     (void *pvParameters);
 163:main.c        **** 
 164:main.c        **** xSemaphoreHandle xMutex_DDS;    // Mutex for Parameter Control
 165:main.c        **** 
 166:main.c        **** xQueueHandle xQueue_KEY[2];     // Task_KEY -> Task_CCD
 167:main.c        **** xQueueHandle xQueue_ROT;        // Task_ROT -> Task_CCD
 168:main.c        **** xQueueHandle xQueue_FREQ;       // Task_USB -> Task_CCD
 169:main.c        **** 
 170:main.c        **** // Function Prototypes
 171:main.c        **** void prvHardwareSetup(void);
 172:main.c        **** void CORDIC(int32 x, int32 y, int32 *radius);
 173:main.c        **** 
 174:main.c        **** //----------------------------------------------------------------------------
 175:main.c        **** //
 176:main.c        **** //	MAIN
 177:main.c        **** //
 178:main.c        **** //----------------------------------------------------------------------------
 179:main.c        **** //void main()
 180:main.c        **** int main()
 181:main.c        **** {
 182:main.c        ****     prvHardwareSetup();
 183:main.c        **** 
 184:main.c        **** 	Initialize ();
 185:main.c        **** 
 186:main.c        ****     /* Create Tasks */
 187:main.c        ****     xMutex_DDS = xSemaphoreCreateMutex();
 188:main.c        ****     xQueue_ROT    = xQueueCreate(8, 1);     // 8 x 1byte
 189:main.c        ****     xQueue_KEY[0] = xQueueCreate(1, 1);     // 1 x 1byte
 190:main.c        ****     xQueue_KEY[1] = xQueueCreate(1, 1);     // 1 x 1byte
 191:main.c        ****     xQueue_FREQ  = xQueueCreate(1, 1);      // 1 x 1bytes
 192:main.c        **** 
 193:main.c        ****     CyDelay(1000u);
 194:main.c        **** 
 195:main.c        ****     xTaskCreate(Task_LED, "LED", TASK_STACK_LED, NULL, TASK_PRIORITY_LED, NULL);
 196:main.c        ****     xTaskCreate(Task_ROT, "ROT", TASK_STACK_ROT, NULL, TASK_PRIORITY_ROT, NULL);
 197:main.c        ****     xTaskCreate(Task_KEY, "KEY", TASK_STACK_KEY, NULL, TASK_PRIORITY_KEY, NULL);
 198:main.c        ****     xTaskCreate(Task_CLCD, "CLCD", TASK_STACK_CLCD, NULL, TASK_PRIORITY_CLCD, NULL);
 199:main.c        ****     xTaskCreate(Task_USBUART, "USBUART", TASK_STACK_USBUART, NULL, TASK_PRIORITY_USBUART, NULL);
 200:main.c        ****     xTaskCreate(Task_RADIO, "RADIO", TASK_STACK_RADIO, NULL, TASK_PRIORITY_RADIO, NULL);
 201:main.c        **** 
 202:main.c        ****     /* Start RTOS Kernel */
ARM GAS  C:\Users\koseki\AppData\Local\Temp\ccT0XNG9.s 			page 5


 203:main.c        ****     vTaskStartScheduler();
 204:main.c        ****     
 205:main.c        ****     for(;;)
 206:main.c        ****     {
 207:main.c        ****         /* Place your application code here. */
 208:main.c        ****     }
 209:main.c        **** }
 210:main.c        **** 
 211:main.c        **** //----------------------------------------------------------------------------
 212:main.c        **** //
 213:main.c        **** //	Initialize and configure hardware, initialize variables
 214:main.c        **** //
 215:main.c        **** //----------------------------------------------------------------------------
 216:main.c        **** void Initialize (void)
 217:main.c        **** {
 218:main.c        ****     uint32 i;
 219:main.c        ****     char str[20];
 220:main.c        ****     uint8  w[5] = {0u, 0u, 0u, 0u, 0u};
 221:main.c        ****     
 222:main.c        **** 	CyDelay (100);					// delay in msec
 223:main.c        ****     
 224:main.c        ****     // PSoC3 => DDS, I2C_CLCD
 225:main.c        ****     SPIM_Start();
 226:main.c        ****     I2C_1_Start();
 227:main.c        ****     I2C_CLCD_Start();
 228:main.c        **** 
 229:main.c        ****     // Start Input Comp
 230:main.c        ****     Comp_1_Start();
 231:main.c        **** 	VDAC_1_Start ();					// start DAC output
 232:main.c        **** 
 233:main.c        **** 	//CyPins_SetPin (TP2_OUT_0);
 234:main.c        **** 	//CyPins_SetPin (REDLED_0);		// red led off
 235:main.c        ****     
 236:main.c        **** 	Filter_Start ();				// start FIR filter
 237:main.c        **** 	VDAC_Start ();					// start DAC output
 238:main.c        **** 	
 239:main.c        **** 	ADC_Start ();					// power up and start 16 bit ADC
 240:main.c        **** 	ADC_IRQ_Enable ();
 241:main.c        ****     isr_adc_StartEx(ADC_ISR_Handler);
 242:main.c        **** 	ADC_StartConvert ();			// start conversions
 243:main.c        ****     
 244:main.c        **** 	CyDelay (100);					// delay in msec
 245:main.c        **** 
 246:main.c        ****     I2C_CLCD_ClearLine(0u);
 247:main.c        ****     I2C_CLCD_ClearLine(1u);
 248:main.c        **** 	
 249:main.c        **** 	// initialize vars
 250:main.c        **** 	Filter = FILTER_FL2;			// selects 2000 Hz LPF
 251:main.c        **** 	SetMode (MODE_USB);
 252:main.c        **** 	IDCOffset = QDCOffset = 0x500;	// preset offset for better settling time
 253:main.c        ****     AgcTimeConstant = 4;            // Default AGC Time constant
 254:main.c        **** 
 255:main.c        ****     // set DDS to default frequency
 256:main.c        ****     SPIM_WriteTxData(w[0]);
 257:main.c        ****     SPIM_WriteTxData(w[1]);
 258:main.c        ****     SPIM_WriteTxData(w[2]);
 259:main.c        ****     SPIM_WriteTxData(w[3]);
ARM GAS  C:\Users\koseki\AppData\Local\Temp\ccT0XNG9.s 			page 6


 260:main.c        ****     SPIM_WriteTxData(w[4]);
 261:main.c        **** 
 262:main.c        **** 	EEPROM_Start ();				// power up eeprom
 263:main.c        **** 
 264:main.c        **** 	CyDelay (100);					// delay in msec
 265:main.c        ****     
 266:main.c        ****     // PSoC3 => PSoC5LP
 267:main.c        ****     for (i = 0; i < PARAM_MAX; i++)
 268:main.c        ****         SERIAL_NUM[i] = pSERIAL_NUM[i];
 269:main.c        **** 
 270:main.c        ****     if (SERIAL_NUM [0] != '0')
 271:main.c        **** 	{
 272:main.c        **** 		CySetTemp ();				// acquire die temperature before writing eeprom
 273:main.c        **** 		EEPROM_Write ((uint8*)"00000000", SN_ROW);	// write and wait for completion
 274:main.c        ****         // AD9850_DDS
 275:main.c        **** 		EEPROM_Write ((uint8*)"5000000", FQ_ROW);	// write and wait for completion
 276:main.c        **** 	}
 277:main.c        **** 
 278:main.c        **** 	FrequencyError = 0;
 279:main.c        **** 	//memcpy (Freq, FREQ_PLL_TEST, 8);// initialize the clock generator output frequency
 280:main.c        **** 	//SetFrequency ();
 281:main.c        **** 
 282:main.c        **** 	CyDelay (200);					// delay in msec
 283:main.c        **** 	CYGlobalIntEnable;
 284:main.c        **** 	
 285:main.c        ****     // PSoC3 => PSoC5LP
 286:main.c        ****     for (i = 0; i < PARAM_MAX; i++)
 287:main.c        ****         FREQ_ERROR[i] = pFREQ_ERROR[i];
 288:main.c        ****         
 289:main.c        ****     // AD9850 DDS
 290:main.c        **** 	FrequencyError = 5000000 - BinaryFrequency (FREQ_ERROR);	// 5MHz
 291:main.c        ****     if ((FrequencyError > 1000) || (FrequencyError < -1000))	// bounds checking
 292:main.c        **** 		FrequencyError = 0;
 293:main.c        **** 	memcpy (Freq, FREQ_START, 8);			// initialize the clock generator output frequency
 294:main.c        **** 	SetFrequency ();
 295:main.c        **** 
 296:main.c        ****     // CLCD display station
 297:main.c        ****     sprintf(str, "%5s", station[Ch].Name);
 298:main.c        ****     I2C_CLCD_Position(0u, 0u);
 299:main.c        ****     I2C_CLCD_PrintString(str);
 300:main.c        **** }
 301:main.c        **** 
 302:main.c        **** //----------------------------------------------------------------------------
 303:main.c        **** void prvHardwareSetup( void )
 304:main.c        **** {
 305:main.c        ****     /* Port layer functions that need to be copied into the vector table. */
 306:main.c        ****     extern void xPortPendSVHandler( void );
 307:main.c        ****     extern void xPortSysTickHandler( void );
 308:main.c        ****     extern void vPortSVCHandler( void );
 309:main.c        ****     extern cyisraddress CyRamVectors[];
 310:main.c        **** 
 311:main.c        **** 	/* Install the OS Interrupt Handlers. */
 312:main.c        **** 	CyRamVectors[ 11 ] = ( cyisraddress ) vPortSVCHandler;
 313:main.c        **** 	CyRamVectors[ 14 ] = ( cyisraddress ) xPortPendSVHandler;
 314:main.c        **** 	CyRamVectors[ 15 ] = ( cyisraddress ) xPortSysTickHandler;
 315:main.c        ****     
 316:main.c        **** }
ARM GAS  C:\Users\koseki\AppData\Local\Temp\ccT0XNG9.s 			page 7


 317:main.c        **** //----------------------------------------------------------------------------
 318:main.c        **** 
 319:main.c        **** void vApplicationStackOverflowHook( TaskHandle_t pxTask, char *pcTaskName )
 320:main.c        **** {
 321:main.c        **** 	/* The stack space has been execeeded for a task, considering allocating more. */
 322:main.c        **** 	taskDISABLE_INTERRUPTS();
 323:main.c        **** 	for( ;; );
 324:main.c        **** }
 325:main.c        **** //----------------------------------------------------------------------------
 326:main.c        **** 
 327:main.c        **** void vApplicationMallocFailedHook( void )
 328:main.c        **** {
 329:main.c        **** 	/* The heap space has been execeeded. */
 330:main.c        **** 	taskDISABLE_INTERRUPTS();
 331:main.c        **** 	for( ;; );
 332:main.c        **** }
 333:main.c        **** //----------------------------------------------------------------------------
 334:main.c        **** 
 335:main.c        **** 
 336:main.c        **** //============================================================================
 337:main.c        **** //
 338:main.c        **** //	Task_LED
 339:main.c        **** //
 340:main.c        **** //============================================================================
 341:main.c        **** void Task_LED(void *pvParameters)
 342:main.c        **** {
  27              		.loc 1 342 0
  28              		.cfi_startproc
  29              		@ args = 0, pretend = 0, frame = 0
  30              		@ frame_needed = 0, uses_anonymous_args = 0
  31              	.LVL0:
  32 0000 08B5     		push	{r3, lr}
  33              		.cfi_def_cfa_offset 8
  34              		.cfi_offset 3, -8
  35              		.cfi_offset 14, -4
  36              	.LVL1:
  37              	.L2:
 343:main.c        ****     /* Block time in (ms) */
 344:main.c        ****     const portTickType OnDelay = 100 / portTICK_RATE_MS;
 345:main.c        ****     const portTickType OffDelay = 900 / portTICK_RATE_MS;
 346:main.c        **** 
 347:main.c        ****     while(1)
 348:main.c        ****     {
 349:main.c        ****         BLUELED_Write(1u);
  38              		.loc 1 349 0 discriminator 1
  39 0002 0120     		movs	r0, #1
  40 0004 FFF7FEFF 		bl	BLUELED_Write
  41              	.LVL2:
 350:main.c        ****         vTaskDelay(OnDelay);
  42              		.loc 1 350 0 discriminator 1
  43 0008 6420     		movs	r0, #100
  44 000a FFF7FEFF 		bl	vTaskDelay
  45              	.LVL3:
 351:main.c        ****         
 352:main.c        ****         BLUELED_Write(0u);
  46              		.loc 1 352 0 discriminator 1
  47 000e 0020     		movs	r0, #0
ARM GAS  C:\Users\koseki\AppData\Local\Temp\ccT0XNG9.s 			page 8


  48 0010 FFF7FEFF 		bl	BLUELED_Write
  49              	.LVL4:
 353:main.c        ****         vTaskDelay(OffDelay);
  50              		.loc 1 353 0 discriminator 1
  51 0014 4FF46170 		mov	r0, #900
  52 0018 FFF7FEFF 		bl	vTaskDelay
  53              	.LVL5:
 354:main.c        ****     }
  54              		.loc 1 354 0 discriminator 1
  55 001c F1E7     		b	.L2
  56              		.cfi_endproc
  57              	.LFE69:
  58              		.size	Task_LED, .-Task_LED
  59 001e 00BF     		.section	.text.ADC_ISR_Handler,"ax",%progbits
  60              		.align	2
  61              		.global	ADC_ISR_Handler
  62              		.thumb
  63              		.thumb_func
  64              		.type	ADC_ISR_Handler, %function
  65              	ADC_ISR_Handler:
  66              	.LFB80:
 355:main.c        **** }
 356:main.c        **** 
 357:main.c        **** 
 358:main.c        **** //============================================================================
 359:main.c        **** //
 360:main.c        **** //	Task_CLCD
 361:main.c        **** //
 362:main.c        **** //============================================================================
 363:main.c        **** // CLCD Display
 364:main.c        **** //  0123456789012345
 365:main.c        **** // ------------------
 366:main.c        **** // |NHK1 _891000[Hz]|
 367:main.c        **** // |USB  FW=4.0k S46|
 368:main.c        **** //
 369:main.c        **** #define cNAME  0u
 370:main.c        **** #define cFREQ  5u
 371:main.c        **** #define cMD  0u
 372:main.c        **** #define cFW  5u
 373:main.c        **** #define cAGC 13u
 374:main.c        **** 
 375:main.c        **** void Task_CLCD(void *pvParameters)
 376:main.c        **** {
 377:main.c        ****     int8   click;
 378:main.c        ****     uint8  qmsg;
 379:main.c        ****     uint32 step_freq;
 380:main.c        ****     uint8 cnt = 0x20;
 381:main.c        ****     char str[20];
 382:main.c        ****     const portTickType xDelay = 100 / portTICK_RATE_MS;
 383:main.c        **** 
 384:main.c        ****     AgcIndicator = 0;
 385:main.c        ****     I2C_CLCD_Position(1u, cAGC);
 386:main.c        ****     I2C_CLCD_PrintString("S__");
 387:main.c        **** 
 388:main.c        ****     // Default channel set
 389:main.c        ****     Ch = 0;
 390:main.c        ****     ChannelSet(Ch);
ARM GAS  C:\Users\koseki\AppData\Local\Temp\ccT0XNG9.s 			page 9


 391:main.c        ****     
 392:main.c        ****     // Main Loop
 393:main.c        ****  	while (1)
 394:main.c        **** 	{
 395:main.c        ****         xSemaphoreTake(xMutex_DDS, portMAX_DELAY);
 396:main.c        ****         
 397:main.c        ****         // Get click count of ROT
 398:main.c        ****         if (uxQueueMessagesWaiting(xQueue_ROT) > 0)
 399:main.c        ****         {
 400:main.c        ****             xQueueReceive(xQueue_ROT, &click, 0);
 401:main.c        ****             // target frequency
 402:main.c        ****             step_freq = station[Ch].Step;
 403:main.c        ****             sprintf((char*)Freq, "%08ld", Frequency + (click * step_freq));
 404:main.c        ****             SetFrequency();
 405:main.c        ****         }
 406:main.c        ****         if (xQueueReceive(xQueue_KEY[0], &qmsg, 0))
 407:main.c        ****         {
 408:main.c        ****             Ch++;
 409:main.c        ****             if (Ch >= STATION_MAX)
 410:main.c        ****                 Ch = 0;
 411:main.c        ****             ChannelSet(Ch);
 412:main.c        ****         }
 413:main.c        ****         if (xQueueReceive(xQueue_KEY[1], &qmsg, 0))
 414:main.c        ****         {
 415:main.c        ****             if (Ch == 0)
 416:main.c        ****                 Ch = STATION_MAX - 1;
 417:main.c        ****             else
 418:main.c        ****                 Ch--;
 419:main.c        ****             ChannelSet(Ch);
 420:main.c        ****         }
 421:main.c        **** 
 422:main.c        ****         cnt--;
 423:main.c        ****         if ((cnt & 0x07) == 0)
 424:main.c        ****             AgcIndicator += (64 - AgcGain);
 425:main.c        ****         if (cnt == 0)
 426:main.c        ****         {
 427:main.c        ****             sprintf(str, "S%02d", (uint8)(AgcIndicator >> 2));
 428:main.c        ****             I2C_CLCD_Position(1u, cAGC);
 429:main.c        ****             I2C_CLCD_PrintString(str);
 430:main.c        ****             cnt = 0x20;
 431:main.c        ****             AgcIndicator = 0;
 432:main.c        ****         }
 433:main.c        ****         xSemaphoreGive(xMutex_DDS);
 434:main.c        **** 
 435:main.c        ****         vTaskDelay(xDelay);
 436:main.c        ****     }
 437:main.c        **** }
 438:main.c        **** 
 439:main.c        **** //
 440:main.c        **** //	Update the selected channel
 441:main.c        **** //
 442:main.c        **** void ChannelSet(uint8 ch)
 443:main.c        **** {
 444:main.c        ****     char str[20];
 445:main.c        **** 
 446:main.c        ****     // setup the new station
 447:main.c        ****     sprintf((char*)Freq, "%08ld", station[Ch].Freq);
ARM GAS  C:\Users\koseki\AppData\Local\Temp\ccT0XNG9.s 			page 10


 448:main.c        ****     SetFrequency();
 449:main.c        ****     Mode = station[ch].Mode;
 450:main.c        **** 	SetMode(Mode);
 451:main.c        ****     Filter = station[ch].Filter;
 452:main.c        ****     LoadFilter(Filter);
 453:main.c        ****     
 454:main.c        ****     sprintf(str, "%s", station[ch].Name);
 455:main.c        ****     I2C_CLCD_Position(0u, cNAME);
 456:main.c        ****     I2C_CLCD_PrintString(str);
 457:main.c        ****     
 458:main.c        ****     AgcIndicator = 0;   // reset signal strength indicatior
 459:main.c        **** }
 460:main.c        **** 
 461:main.c        **** //
 462:main.c        **** //	Load DFB filter data into coefficient RAM
 463:main.c        **** //
 464:main.c        **** void LoadFilter (uint8 fltr)
 465:main.c        **** {
 466:main.c        **** 	uint8 i, j;
 467:main.c        **** 	int32 x;
 468:main.c        **** 	uint8 xbuf [256];
 469:main.c        **** 
 470:main.c        **** 	// Put DFB RAM on the bus
 471:main.c        ****     Filter_RAM_DIR_REG = Filter_RAM_DIR_BUS;
 472:main.c        **** 
 473:main.c        **** 	if (fltr == FILTER_FL1)
 474:main.c        ****         cymemcpy(Filter_DB_RAM, Filter_data_b_2500, Filter_DB_RAM_SIZE);
 475:main.c        **** 	else if (fltr == FILTER_FL2)
 476:main.c        ****         cymemcpy(Filter_DB_RAM, Filter_data_b_2000, Filter_DB_RAM_SIZE);
 477:main.c        **** 	else if (fltr == FILTER_FL3)
 478:main.c        ****         cymemcpy(Filter_DB_RAM, Filter_data_b_1500, Filter_DB_RAM_SIZE);
 479:main.c        **** 	else if (fltr == FILTER_FL4)
 480:main.c        ****         cymemcpy(Filter_DB_RAM, Filter_data_b_cw, Filter_DB_RAM_SIZE);
 481:main.c        **** 	else if (fltr == FILTER_AM)
 482:main.c        ****         cymemcpy(Filter_DB_RAM, Filter_data_b_am, Filter_DB_RAM_SIZE);
 483:main.c        **** 	else if (fltr == FILTER_RST)
 484:main.c        ****         cymemcpy(Filter_DB_RAM, Filter_data_b, Filter_DB_RAM_SIZE);
 485:main.c        **** 
 486:main.c        ****     // copy Hilbert filter coefficients into filter channel B ram
 487:main.c        **** 	j = 0;
 488:main.c        **** 	for (i = 0; i < 64; i++) 
 489:main.c        **** 	{
 490:main.c        **** 		x = Hilbert [i];
 491:main.c        **** 		xbuf [j++] = x & 0xFF;
 492:main.c        **** 		xbuf [j++] = (x >> 8) & 0xFF;
 493:main.c        **** 		xbuf [j++] = (x >> 16) & 0xFF;
 494:main.c        **** 		xbuf [j++] = 0;
 495:main.c        **** 	}
 496:main.c        **** 	cymemcpy(Filter_DB_RAM + 256, xbuf, Filter_DB_RAM_SIZE / 2);
 497:main.c        **** 		
 498:main.c        **** 	// Take DFB RAM off the bus
 499:main.c        **** 	Filter_RAM_DIR_REG = Filter_RAM_DIR_DFB;
 500:main.c        ****     
 501:main.c        ****     // CLCD Display "filter band width"
 502:main.c        ****     char str[20];
 503:main.c        ****     switch(fltr)
 504:main.c        ****     {
ARM GAS  C:\Users\koseki\AppData\Local\Temp\ccT0XNG9.s 			page 11


 505:main.c        ****         case FILTER_FL1:
 506:main.c        ****             sprintf(str,"FW=2.5k");
 507:main.c        ****             break;
 508:main.c        ****         case FILTER_FL2:
 509:main.c        ****             sprintf(str,"FW=2.0k");
 510:main.c        ****             break;
 511:main.c        ****         case FILTER_FL3:
 512:main.c        ****             sprintf(str,"FW=1.5k");
 513:main.c        ****             break;
 514:main.c        ****         case FILTER_FL4:
 515:main.c        ****             sprintf(str,"FW=0.4k");
 516:main.c        ****             break;
 517:main.c        ****         case FILTER_AM:
 518:main.c        ****             sprintf(str,"FW=4.0k");
 519:main.c        ****             break;
 520:main.c        ****         default:
 521:main.c        ****             break;
 522:main.c        ****     }
 523:main.c        ****     I2C_CLCD_Position(1u, cFW);
 524:main.c        ****     I2C_CLCD_PrintString(str);
 525:main.c        **** 
 526:main.c        **** }
 527:main.c        **** 
 528:main.c        **** //
 529:main.c        **** //	Frequency synthesizer set frequency
 530:main.c        **** //	Freq (MHz)  = (24/9) * (N + Frac/16384) / (4 * IQDividerRatio)
 531:main.c        **** //				= 2 * (N + Frac/16384) / (3 * IQDividerRatio)
 532:main.c        **** //
 533:main.c        **** void SetFrequency (void)
 534:main.c        **** {
 535:main.c        **** 	//uint8 pllN, iqDivider, fracLo, fracHi;
 536:main.c        **** 	uint32 frq;
 537:main.c        ****     // PSoC3 => DSS/CLCD control
 538:main.c        **** 	uint32 newfreq;
 539:main.c        ****     uint64 wdata;       // DDS set value for AD9850 using 125MHz X-tal */
 540:main.c        ****     uint8 w[5] = {0xf8u, 0x08u, 0x4cu, 0x07u, 0x00u};
 541:main.c        ****     uint8 i;
 542:main.c        ****     char str[20];
 543:main.c        **** 	
 544:main.c        **** 	if (!memcmp (Freq, LastFreq, 8))	// check if already tuned to that frequency
 545:main.c        **** 		return;							// ignore set frequency command and return
 546:main.c        **** 
 547:main.c        **** 	frq = BinaryFrequency (Freq);		// compute binary value from string
 548:main.c        **** 
 549:main.c        **** 	if ((!Debug) && ((frq < FREQ_LOW) || (frq > FREQ_HIGH))) // ignore frequencies outside tuning rang
 550:main.c        **** 	{
 551:main.c        **** 		memcpy (Freq, LastFreq, 8);	// restore last frequency allowed
 552:main.c        **** 		return;
 553:main.c        **** 	}
 554:main.c        **** 	memcpy (LastFreq, Freq, 8);
 555:main.c        **** 	Frequency = frq;				// save new receive frequency (binary form)
 556:main.c        ****     
 557:main.c        ****     // PSoC3 PLL => DSS/CLCD control
 558:main.c        **** 
 559:main.c        ****     // offset by frequency error (factory adjusted)
 560:main.c        **** 	frq += (( (int32) frq / 100) * FrequencyError) / 50000;
 561:main.c        ****     // (2017.5.31)koseki
ARM GAS  C:\Users\koseki\AppData\Local\Temp\ccT0XNG9.s 			page 12


 562:main.c        ****     frq += station[Ch].Offset;
 563:main.c        ****     // DDS frequency is quadruple of Rx frequency 
 564:main.c        ****     newfreq = frq * 4;
 565:main.c        ****     wdata = newfreq * 0x100000000u;
 566:main.c        ****     wdata /= 125000000;
 567:main.c        **** 
 568:main.c        ****     for (i = 0; i < 4; i++)
 569:main.c        ****         w[i] = (uint8)((wdata >> i * 8) & 0x000000FFu);
 570:main.c        ****     if ((frq < 40000000) && (frq > 0))
 571:main.c        ****     {
 572:main.c        ****         // mute the input signal during frequency changes
 573:main.c        ****     	AgcGain = 0;
 574:main.c        ****         // writing data to the SPIM software buffer
 575:main.c        ****         SPIM_WriteTxData(w[0]);
 576:main.c        ****         SPIM_WriteTxData(w[1]);
 577:main.c        ****         SPIM_WriteTxData(w[2]);
 578:main.c        ****         SPIM_WriteTxData(w[3]);
 579:main.c        ****         SPIM_WriteTxData(w[4]);
 580:main.c        ****         // We need to know the moment when SPI communication is complete
 581:main.c        ****         // to display received data. SPIS_SPI_DONE status should be polled. 
 582:main.c        ****         while(!(SPIM_ReadTxStatus() & SPIM_STS_SPI_DONE));
 583:main.c        ****         sprintf(str, "%7ld[Hz]", Frequency);
 584:main.c        ****     }
 585:main.c        ****     else
 586:main.c        ****         sprintf(str, "Error  [Hz]");
 587:main.c        ****         
 588:main.c        ****     I2C_CLCD_Position(0u, cFREQ);
 589:main.c        ****     I2C_CLCD_PrintString(str);
 590:main.c        **** 
 591:main.c        ****     CyDelay (1);
 592:main.c        **** }
 593:main.c        **** 
 594:main.c        **** //
 595:main.c        **** //	Set operating mode
 596:main.c        **** //
 597:main.c        **** void SetMode (uint8 md)
 598:main.c        **** {
 599:main.c        **** 	Mode = md;					// save operating mode
 600:main.c        ****     
 601:main.c        **** 	UpperSideBand = ((Mode == MODE_USB) || (Mode == MODE_CW) || (Mode == MODE_RTTY));
 602:main.c        **** 		
 603:main.c        **** 	if ((Mode == MODE_CW) || (Mode == MODE_CWREV))
 604:main.c        **** 		Filter = FILTER_FL4;
 605:main.c        **** 	//else if ((Mode <= MODE_USB) && (Filter == FILTER_FL4))
 606:main.c        **** 	else if ((Mode == MODE_USB) || (Mode == MODE_LSB))
 607:main.c        **** 		Filter = FILTER_FL2;
 608:main.c        ****     // (2017.6.1)koseki
 609:main.c        **** 	//LoadFilter (Filter);
 610:main.c        ****     
 611:main.c        ****     // CLCD Display "mode"
 612:main.c        ****     char str[20];
 613:main.c        ****     switch(Mode)
 614:main.c        ****     {
 615:main.c        ****         case MODE_LSB:
 616:main.c        ****             sprintf(str,"LSB  ");
 617:main.c        ****             break;
 618:main.c        ****         case MODE_USB:
ARM GAS  C:\Users\koseki\AppData\Local\Temp\ccT0XNG9.s 			page 13


 619:main.c        ****             sprintf(str,"USB  ");
 620:main.c        ****             break;
 621:main.c        ****         case MODE_CW:
 622:main.c        ****             sprintf(str,"CW   ");
 623:main.c        ****             break;
 624:main.c        ****         case MODE_AM:               // (2017.6.24)koseki
 625:main.c        ****             sprintf(str,"AM   ");
 626:main.c        ****             break;
 627:main.c        ****         default:
 628:main.c        ****             sprintf(str,"***  ");
 629:main.c        ****             break;
 630:main.c        ****     }
 631:main.c        ****     I2C_CLCD_Position(1u, cMD);
 632:main.c        ****     I2C_CLCD_PrintString(str);
 633:main.c        **** }
 634:main.c        **** 
 635:main.c        **** //
 636:main.c        **** //	Compute binary frequency value from ASCII character string
 637:main.c        **** //
 638:main.c        **** uint32 BinaryFrequency (uint8 *ptr)
 639:main.c        **** {
 640:main.c        **** 	uint8 i;
 641:main.c        **** 	uint32 frq, dec;
 642:main.c        **** 	
 643:main.c        **** 	frq = 0;
 644:main.c        **** 	dec = 10000000;					// 10's of MHz
 645:main.c        **** 	for (i = 0; i < 8; i++)
 646:main.c        **** 	{
 647:main.c        **** 		frq += (*ptr++ - '0') * dec;
 648:main.c        **** 		dec /= 10;
 649:main.c        **** 	}
 650:main.c        **** 	return (frq);
 651:main.c        **** }
 652:main.c        **** 
 653:main.c        **** 			
 654:main.c        **** //============================================================================
 655:main.c        **** //
 656:main.c        **** //	Task_USBUART
 657:main.c        **** //
 658:main.c        **** //============================================================================
 659:main.c        **** void Task_USBUART(void *pvParameters)
 660:main.c        **** {
 661:main.c        ****     uint32 i;
 662:main.c        ****     uint8 Flag = 1;
 663:main.c        ****     uint8 state;
 664:main.c        ****     
 665:main.c        ****     USBUART_Start(0, USBUART_DWR_VDDD_OPERATION);
 666:main.c        ****     for (i = 0; i < USBUART_TIMEOUT; i++)
 667:main.c        ****     {
 668:main.c        ****         gUSBUART_Ready = USBUART_bGetConfiguration();
 669:main.c        ****         if (gUSBUART_Ready) break;
 670:main.c        ****     }
 671:main.c        ****     // Initiaize UABUART
 672:main.c        ****     if (gUSBUART_Ready)
 673:main.c        ****         USBUART_CDC_Init();
 674:main.c        ****     else
 675:main.c        ****         USBUART_Stop();
ARM GAS  C:\Users\koseki\AppData\Local\Temp\ccT0XNG9.s 			page 14


 676:main.c        **** 
 677:main.c        ****     while(Flag)
 678:main.c        ****     {  
 679:main.c        ****     	state = USBUART_IsLineChanged();
 680:main.c        ****     	if (state & USBUART_LINE_CODING_CHANGED)
 681:main.c        ****     	{
 682:main.c        ****             USBUART_Write((uint8*)"Program starts\r\n");
 683:main.c        **** 
 684:main.c        ****             Flag = 0;
 685:main.c        ****             CyDelay(100);
 686:main.c        ****             USBUART_Write((uint8*)"***********************************************************\r\n"
 687:main.c        ****             USBUART_Write((uint8*)"*                                                         *\r\n"
 688:main.c        ****             USBUART_Write((uint8*)"*                 Simple SDR Reciever                     *\r\n"
 689:main.c        ****             USBUART_Write((uint8*)"*               for CY8KIT-059 (PSoC-5LP)                 *\r\n"
 690:main.c        ****             USBUART_Write((uint8*)"*                                                         *\r\n"
 691:main.c        ****             USBUART_Write((uint8*)"*                     (ver.0.0.1)                         *\r\n"
 692:main.c        ****             USBUART_Write((uint8*)"*                                                         *\r\n"
 693:main.c        ****             USBUART_Write((uint8*)"***********************************************************\r\n"
 694:main.c        ****             USBUART_Write((uint8*)"""Ham Radio Deluxe"" equivalent commands are enabled.\r\n");
 695:main.c        ****             USBUART_Write((uint8*)"\r\n");
 696:main.c        ****         }
 697:main.c        ****     }
 698:main.c        ****     // Main Loop
 699:main.c        ****  	while (1)
 700:main.c        **** 	{
 701:main.c        **** 		//AdjustAgc ();				// AGC adjustment		
 702:main.c        **** 
 703:main.c        **** 		ReadUSB ();					// read the USB port for command data
 704:main.c        ****     }
 705:main.c        **** }
 706:main.c        **** 
 707:main.c        **** // maximum command length (FA00000891000;) while ComRxCmd size is 32B
 708:main.c        **** #define MAX_CMD_LENGTH  16
 709:main.c        **** //
 710:main.c        **** //	Read USB port for COM data
 711:main.c        **** //
 712:main.c        **** void ReadUSB (void)
 713:main.c        **** {
 714:main.c        **** 	uint8 bCount, rx, i;
 715:main.c        **** 
 716:main.c        ****     if(USBUART_DataIsReady() > 0)       // check the USB Rx data ready
 717:main.c        **** 	{
 718:main.c        **** 		USBUART_ReadAll(UsbRxBuffer);	// read usb rx data
 719:main.c        ****         for (i = 0; i < MAX_CMD_LENGTH; i++)
 720:main.c        ****         {
 721:main.c        ****             if(UsbRxBuffer[i] == '\0')
 722:main.c        ****                 break;
 723:main.c        ****         }
 724:main.c        ****         bCount = i;
 725:main.c        **** 
 726:main.c        **** #ifdef DEBUG_USBUART
 727:main.c        ****         char str[20];
 728:main.c        ****         I2C_CLCD_ClearLine(1u);
 729:main.c        ****         sprintf(str, "%s", UsbRxBuffer);
 730:main.c        ****         I2C_CLCD_Position(1u,0u);
 731:main.c        ****         I2C_CLCD_PrintString(str);
 732:main.c        **** #endif
ARM GAS  C:\Users\koseki\AppData\Local\Temp\ccT0XNG9.s 			page 15


 733:main.c        **** 		for (i = 0; i < bCount; i++)
 734:main.c        **** 		{
 735:main.c        **** 			rx = UsbRxBuffer [i];
 736:main.c        **** 			ComRxCmd [ComRxPtr++] = rx;	// save in command buffer
 737:main.c        **** 			if (rx == ';')				// command string terminator
 738:main.c        **** 			{
 739:main.c        ****                 // PSoC5LP requires ';' for FactorySetup
 740:main.c        ****     			if ((ComRxCmd [0] == '$') && (ComRxCmd [1] == '*'))
 741:main.c        ****     			{
 742:main.c        ****                     ComRxCmd[i] = '\0';     // '@' -> '\0'
 743:main.c        ****                     xSemaphoreTake(xMutex_DDS, portMAX_DELAY);
 744:main.c        ****     				FactorySetup ();
 745:main.c        ****                     xSemaphoreGive(xMutex_DDS);
 746:main.c        ****     				ComRxPtr = 0;
 747:main.c        ****     			}
 748:main.c        ****                 else
 749:main.c        ****                 {
 750:main.c        ****                     xSemaphoreTake(xMutex_DDS, portMAX_DELAY);
 751:main.c        ****     				ProcessComRx ();
 752:main.c        ****                     xSemaphoreGive(xMutex_DDS);
 753:main.c        ****     				ComRxPtr = 0;
 754:main.c        ****                 }
 755:main.c        **** 			}
 756:main.c        **** 			else
 757:main.c        **** 				ComRxPtr &= sizeof(ComRxCmd) - 1;
 758:main.c        **** 		}
 759:main.c        **** 	}
 760:main.c        **** }
 761:main.c        **** 
 762:main.c        **** //
 763:main.c        **** //	Factory setup commands
 764:main.c        **** //
 765:main.c        **** void FactorySetup (void)
 766:main.c        **** {
 767:main.c        **** 	uint8 sendUsb = FALSE;
 768:main.c        ****     uint8 i;
 769:main.c        **** 	
 770:main.c        **** 	switch (ComRxCmd [2])
 771:main.c        **** 	{
 772:main.c        **** 		//case 'b':						// bootloader mode
 773:main.c        **** 		//	CyBtldr_Load();				// enter USB boot loader mode
 774:main.c        **** 		//	break;
 775:main.c        **** 			
 776:main.c        **** 		case 'c':						// calibrate frequency mode
 777:main.c        **** 			memcpy (LastFreq, "12345678", 8);	// force frequency change
 778:main.c        ****             // AD9850_DDS
 779:main.c        ****     		memcpy (Freq, "05000000", 8);		// set frequency to 5MHz
 780:main.c        **** 			FrequencyError = 0;
 781:main.c        **** 			SetFrequency ();
 782:main.c        **** 			memcpy (UsbTxBuffer, "Calibrate", 9);
 783:main.c        **** 			sendUsb = 9;
 784:main.c        **** 			break;
 785:main.c        **** 			
 786:main.c        **** 		case 'd':						// debug mode
 787:main.c        **** 			Debug = TRUE;
 788:main.c        **** 			memcpy (UsbTxBuffer, "Debug Mode", 10);
 789:main.c        **** 			sendUsb = 10;
ARM GAS  C:\Users\koseki\AppData\Local\Temp\ccT0XNG9.s 			page 16


 790:main.c        **** 			break;
 791:main.c        **** 			
 792:main.c        **** 		case 'n':						// store serial number in eeprom
 793:main.c        **** 			CySetTemp ();				// acquire die temperature before writing eeprom
 794:main.c        **** 			if (EEPROM_Write (&ComRxCmd [3], SN_ROW) == CYRET_SUCCESS)
 795:main.c        **** 				LedTimer = LED_BLINK;	// if successful write, blink the LED
 796:main.c        **** 			break;
 797:main.c        **** 			
 798:main.c        **** 		case 'f':						// store frequency offset in eeprom
 799:main.c        **** 			CySetTemp ();				// acquire die temperature before writing eeprom
 800:main.c        **** 			if (EEPROM_Write (&ComRxCmd [3], FQ_ROW) == CYRET_SUCCESS)
 801:main.c        **** 			{
 802:main.c        **** 				LedTimer = LED_BLINK;	// if successful write, blink the LED
 803:main.c        **** 				memcpy (LastFreq, "12345678", 8);	// force frequency change
 804:main.c        ****                 //AD9850_DDS
 805:main.c        **** 				memcpy (Freq, "05000000", 8);		// set frequency to 5MHz
 806:main.c        ****                 // PSoC3 => PSoC5LP
 807:main.c        ****                 for (i = 0; i < PARAM_MAX; i++)
 808:main.c        ****                     FREQ_ERROR[i] = pFREQ_ERROR[i];
 809:main.c        ****                 // AD9850_DDS
 810:main.c        **** 				FrequencyError = 5000000 - BinaryFrequency (FREQ_ERROR);	// compute binary value from string
 811:main.c        **** 				SetFrequency ();
 812:main.c        **** 			}
 813:main.c        **** //			break;
 814:main.c        **** 
 815:main.c        **** 		case '?':						// status command, reply with eeprom data
 816:main.c        ****             // PSoC3 => PSoC5LP
 817:main.c        **** 			//memcpy (UsbTxBuffer, SERIAL_NUM, 8);		// serial number
 818:main.c        ****             for (i = 0; i < PARAM_MAX; i++)
 819:main.c        ****                 UsbTxBuffer[i] = pSERIAL_NUM[i];
 820:main.c        **** 			UsbTxBuffer [8] = ' ';
 821:main.c        **** 			//memcpy (&UsbTxBuffer [9], FREQ_ERROR, 8);	// frequency offset at 10MHz
 822:main.c        ****             for (i = 0; i < PARAM_MAX; i++)
 823:main.c        ****                 UsbTxBuffer[9 + i] = pFREQ_ERROR[i];
 824:main.c        **** 			sendUsb = 17;
 825:main.c        **** 			break;
 826:main.c        **** 	}
 827:main.c        **** 
 828:main.c        **** 	if (sendUsb)
 829:main.c        **** 	{
 830:main.c        ****         // PSoC3 => PSoC5LP
 831:main.c        **** 		//USBUART_Write(UsbTxBuffer, sendUsb);	// send response
 832:main.c        ****         UsbTxBuffer[sendUsb] = '\0';
 833:main.c        **** 		USBUART_Write(UsbTxBuffer);	// send response
 834:main.c        **** 		USBUART_Write((uint8*)"\r\n");	// send response
 835:main.c        **** 		while(!USBUART_bTxIsReady()) ;
 836:main.c        **** 	}
 837:main.c        **** }
 838:main.c        **** 
 839:main.c        **** 
 840:main.c        **** 
 841:main.c        **** //============================================================================
 842:main.c        **** //
 843:main.c        **** //	Task_RADIO
 844:main.c        **** //
 845:main.c        **** //============================================================================
 846:main.c        **** void Task_RADIO(void *pvParameters)
ARM GAS  C:\Users\koseki\AppData\Local\Temp\ccT0XNG9.s 			page 17


 847:main.c        **** {
 848:main.c        ****     const portTickType xDelay = 1 / portTICK_RATE_MS;
 849:main.c        **** 
 850:main.c        ****     // Main Loop
 851:main.c        ****  	while (1)
 852:main.c        **** 	{
 853:main.c        **** 		AdjustAgc ();				// AGC adjustment		
 854:main.c        ****         
 855:main.c        ****         vTaskDelay(xDelay);
 856:main.c        ****     }
 857:main.c        **** }
 858:main.c        **** 
 859:main.c        **** //----------------------------------------------------------------------------
 860:main.c        **** //
 861:main.c        **** //	ADC interrupt processing
 862:main.c        **** //
 863:main.c        **** //	Interrupts every 31.18 usec, 32068 sps, 16034 sps per channel
 864:main.c        **** //	TP2 is low for 8.5 to 11 usec (optimization 5), freq = 14.070 MHz = Fvco = 56.28 MHz
 865:main.c        **** //----------------------------------------------------------------------------
 866:main.c        **** // added AM mode (2017.6.24)koseki
 867:main.c        **** #define MLT_A 10    // magnification for CORDIC
 868:main.c        **** 
 869:main.c        **** CY_ISR(ADC_ISR_Handler)
 870:main.c        **** {
  67              		.loc 1 870 0
  68              		.cfi_startproc
  69              		@ args = 0, pretend = 0, frame = 0
  70              		@ frame_needed = 0, uses_anonymous_args = 0
  71 0000 70B5     		push	{r4, r5, r6, lr}
  72              		.cfi_def_cfa_offset 16
  73              		.cfi_offset 4, -16
  74              		.cfi_offset 5, -12
  75              		.cfi_offset 6, -8
  76              		.cfi_offset 14, -4
  77              	.LVL6:
 871:main.c        **** 	int16  rxRaw;		// must be signed int
 872:main.c        **** 	uint16 sample;		// less compiled code when using unsigned int
 873:main.c        **** 	int32  I_chan = 0, Ikn;		// must be signed int
 874:main.c        **** 	int32  Q_chan = 0, Qkn;		// must be signed int
 875:main.c        ****     uint8  i;
 876:main.c        ****         
 877:main.c        **** 	//CyPins_ClearPin(TP2_OUT_0);
 878:main.c        **** 
 879:main.c        **** 	if (AdcState & 1)			// I channel input processing
  78              		.loc 1 879 0
  79 0002 574B     		ldr	r3, .L22
  80 0004 1B78     		ldrb	r3, [r3]	@ zero_extendqisi2
  81 0006 13F0010F 		tst	r3, #1
  82 000a 2DD0     		beq	.L5
 880:main.c        **** 	{
 881:main.c        **** 		IQMUX_Control = 2;		// selects I channel of IQMUX, IQMUX_Write (2);
  83              		.loc 1 881 0
  84 000c 0222     		movs	r2, #2
  85 000e 554B     		ldr	r3, .L22+4
  86 0010 1A70     		strb	r2, [r3]
 882:main.c        **** 		
 883:main.c        **** 		// read ADC, subtract out DC offset, and multiply by gain
ARM GAS  C:\Users\koseki\AppData\Local\Temp\ccT0XNG9.s 			page 18


 884:main.c        **** 		rxRaw = ADC_GetResult16 () - IDCOffset;
  87              		.loc 1 884 0
  88 0012 FFF7FEFF 		bl	ADC_GetResult16
  89              	.LVL7:
  90 0016 544B     		ldr	r3, .L22+8
  91 0018 1B88     		ldrh	r3, [r3]
  92 001a C01A     		subs	r0, r0, r3
  93 001c 80B2     		uxth	r0, r0
  94              	.LVL8:
 885:main.c        **** 		IDCOffset += (rxRaw & 0x8000) ? -1 : 1;	// calc new DC offset
  95              		.loc 1 885 0
  96 001e 10F4004F 		tst	r0, #32768
  97 0022 02D0     		beq	.L19
  98 0024 4FF6FF72 		movw	r2, #65535
  99 0028 00E0     		b	.L6
 100              	.L19:
 101 002a 0122     		movs	r2, #1
 102              	.L6:
 103              		.loc 1 885 0 is_stmt 0 discriminator 4
 104 002c 1344     		add	r3, r3, r2
 105 002e 4E4A     		ldr	r2, .L22+8
 106 0030 1380     		strh	r3, [r2]	@ movhi
 886:main.c        **** 		rxRaw = rxRaw * AgcGain;
 107              		.loc 1 886 0 is_stmt 1 discriminator 4
 108 0032 4E4B     		ldr	r3, .L22+12
 109 0034 1B78     		ldrb	r3, [r3]	@ zero_extendqisi2
 110 0036 03FB00F3 		mul	r3, r3, r0
 111 003a 9BB2     		uxth	r3, r3
 112 003c 9CB2     		uxth	r4, r3
 113              	.LVL9:
 887:main.c        ****         IDelay [IDelayPtr++] = rxRaw;			// store I channel in delay line
 114              		.loc 1 887 0 discriminator 4
 115 003e 4C49     		ldr	r1, .L22+16
 116 0040 0878     		ldrb	r0, [r1]	@ zero_extendqisi2
 117 0042 421C     		adds	r2, r0, #1
 118 0044 4B4D     		ldr	r5, .L22+20
 119 0046 25F81040 		strh	r4, [r5, r0, lsl #1]	@ movhi
 888:main.c        **** 		IDelayPtr &= 31;
 120              		.loc 1 888 0 discriminator 4
 121 004a 02F01F02 		and	r2, r2, #31
 122 004e 0A70     		strb	r2, [r1]
 889:main.c        ****    		// Write Filter A output to PRS DAC
 890:main.c        **** 		VDAC_Data = Filter_HOLDAH_REG ^ 0x80;
 123              		.loc 1 890 0 discriminator 4
 124 0050 494A     		ldr	r2, .L22+24
 125 0052 1278     		ldrb	r2, [r2]	@ zero_extendqisi2
 126 0054 82F08002 		eor	r2, r2, #128
 127 0058 4849     		ldr	r1, .L22+28
 128 005a 0A70     		strb	r2, [r1]
 891:main.c        **** 
 892:main.c        ****         // (2017.6.24)koseki
 893:main.c        ****         if (rxRaw < 0)
 129              		.loc 1 893 0 discriminator 4
 130 005c 14F4004F 		tst	r4, #32768
 131 0060 70D0     		beq	.L7
 894:main.c        ****             rxRaw = -rxRaw;
 132              		.loc 1 894 0
ARM GAS  C:\Users\koseki\AppData\Local\Temp\ccT0XNG9.s 			page 19


 133 0062 5C42     		negs	r4, r3
 134              	.LVL10:
 135 0064 A4B2     		uxth	r4, r4
 136              	.LVL11:
 137 0066 6DE0     		b	.L7
 138              	.LVL12:
 139              	.L5:
 895:main.c        ****         I_chan = (int32)rxRaw << MLT_A;
 896:main.c        ****     }
 897:main.c        **** 	else						// Q channel input processing
 898:main.c        **** 	{
 899:main.c        **** 		IQMUX_Control = 1;		// selects Q channel of IQMUX, IQMUX_Write (1);
 140              		.loc 1 899 0
 141 0068 0122     		movs	r2, #1
 142 006a 3E4B     		ldr	r3, .L22+4
 143 006c 1A70     		strb	r2, [r3]
 900:main.c        **** 
 901:main.c        **** 		// read ADC, subtract out DC offset, and multiply by gain
 902:main.c        **** 		rxRaw = ADC_GetResult16 () - QDCOffset;
 144              		.loc 1 902 0
 145 006e FFF7FEFF 		bl	ADC_GetResult16
 146              	.LVL13:
 147 0072 434B     		ldr	r3, .L22+32
 148 0074 1B88     		ldrh	r3, [r3]
 149 0076 C01A     		subs	r0, r0, r3
 150 0078 80B2     		uxth	r0, r0
 151              	.LVL14:
 903:main.c        **** 		QDCOffset += (rxRaw & 0x8000) ? -1 : 1;	// calc new DC offset before any gain adjust
 152              		.loc 1 903 0
 153 007a 10F4004F 		tst	r0, #32768
 154 007e 02D0     		beq	.L20
 155 0080 4FF6FF72 		movw	r2, #65535
 156 0084 00E0     		b	.L8
 157              	.L20:
 158 0086 0122     		movs	r2, #1
 159              	.L8:
 160              		.loc 1 903 0 is_stmt 0 discriminator 4
 161 0088 1344     		add	r3, r3, r2
 162 008a 3D4A     		ldr	r2, .L22+32
 163 008c 1380     		strh	r3, [r2]	@ movhi
 904:main.c        **** 		rxRaw = rxRaw * AgcGain;
 164              		.loc 1 904 0 is_stmt 1 discriminator 4
 165 008e 374B     		ldr	r3, .L22+12
 166 0090 1D78     		ldrb	r5, [r3]	@ zero_extendqisi2
 167 0092 05FB00F0 		mul	r0, r5, r0
 168              	.LVL15:
 169 0096 85B2     		uxth	r5, r0
 170 0098 ACB2     		uxth	r4, r5
 171              	.LVL16:
 905:main.c        **** 
 906:main.c        ****         // (2017.6.24)koseki
 907:main.c        ****         if (Mode != MODE_AM)
 172              		.loc 1 907 0 discriminator 4
 173 009a 3A4B     		ldr	r3, .L22+36
 174 009c 1B78     		ldrb	r3, [r3]	@ zero_extendqisi2
 175 009e 032B     		cmp	r3, #3
 176 00a0 24D0     		beq	.L9
ARM GAS  C:\Users\koseki\AppData\Local\Temp\ccT0XNG9.s 			page 20


 908:main.c        ****         {
 909:main.c        ****             if (UpperSideBand)
 177              		.loc 1 909 0
 178 00a2 394B     		ldr	r3, .L22+40
 179 00a4 1B78     		ldrb	r3, [r3]	@ zero_extendqisi2
 180 00a6 53B1     		cbz	r3, .L10
 910:main.c        ****     			sample = IDelay [IDelayPtr] - Filter_Read16 (Filter_CHANNEL_B);
 181              		.loc 1 910 0
 182 00a8 314B     		ldr	r3, .L22+16
 183 00aa 1A78     		ldrb	r2, [r3]	@ zero_extendqisi2
 184 00ac 314B     		ldr	r3, .L22+20
 185 00ae 33F81260 		ldrh	r6, [r3, r2, lsl #1]
 186 00b2 0120     		movs	r0, #1
 187 00b4 FFF7FEFF 		bl	Filter_Read16
 188              	.LVL17:
 189 00b8 301A     		subs	r0, r6, r0
 190 00ba 80B2     		uxth	r0, r0
 191              	.LVL18:
 192 00bc 09E0     		b	.L11
 193              	.LVL19:
 194              	.L10:
 911:main.c        ****     		else
 912:main.c        ****     			sample = IDelay [IDelayPtr] + Filter_Read16 (Filter_CHANNEL_B);
 195              		.loc 1 912 0
 196 00be 2C4B     		ldr	r3, .L22+16
 197 00c0 1A78     		ldrb	r2, [r3]	@ zero_extendqisi2
 198 00c2 2C4B     		ldr	r3, .L22+20
 199 00c4 33F81260 		ldrh	r6, [r3, r2, lsl #1]
 200 00c8 0120     		movs	r0, #1
 201 00ca FFF7FEFF 		bl	Filter_Read16
 202              	.LVL20:
 203 00ce 3044     		add	r0, r0, r6
 204 00d0 80B2     		uxth	r0, r0
 205              	.LVL21:
 206              	.L11:
 913:main.c        **** 
 914:main.c        ****             // Filter_Write16 (Filter_CHANNEL_A, IDelay [IDelayPtr] +/- Filter_Read16 (Filter_CHANN
 915:main.c        ****     		Filter_STAGEAM_REG = (uint8)(sample);
 207              		.loc 1 915 0
 208 00d2 C2B2     		uxtb	r2, r0
 209 00d4 2D4B     		ldr	r3, .L22+44
 210 00d6 1A70     		strb	r2, [r3]
 916:main.c        ****             Filter_STAGEAH_REG = (uint8)(sample >> 8);
 211              		.loc 1 916 0
 212 00d8 000A     		lsrs	r0, r0, #8
 213              	.LVL22:
 214 00da 0133     		adds	r3, r3, #1
 215 00dc 1870     		strb	r0, [r3]
 917:main.c        **** 
 918:main.c        ****     		//  replace Filter_Write16 (Filter_CHANNEL_B, rxRaw);
 919:main.c        ****             Filter_STAGEBM_REG = (uint8)(rxRaw);
 216              		.loc 1 919 0
 217 00de EDB2     		uxtb	r5, r5
 218 00e0 0333     		adds	r3, r3, #3
 219 00e2 1D70     		strb	r5, [r3]
 920:main.c        ****             Filter_STAGEBH_REG = (uint8)(rxRaw >> 8);
 220              		.loc 1 920 0
ARM GAS  C:\Users\koseki\AppData\Local\Temp\ccT0XNG9.s 			page 21


 221 00e4 230A     		lsrs	r3, r4, #8
 222 00e6 2A4A     		ldr	r2, .L22+48
 223 00e8 1370     		strb	r3, [r2]
 224 00ea 25E0     		b	.L12
 225              	.L9:
 921:main.c        ****         }
 922:main.c        ****         else // Mode == MODE_AM
 923:main.c        ****         {
 924:main.c        ****             if (rxRaw < 0)
 226              		.loc 1 924 0
 227 00ec 14F4004F 		tst	r4, #32768
 228 00f0 01D0     		beq	.L13
 925:main.c        ****                 rxRaw = -rxRaw;
 229              		.loc 1 925 0
 230 00f2 6C42     		negs	r4, r5
 231              	.LVL23:
 232 00f4 A4B2     		uxth	r4, r4
 233              	.LVL24:
 234              	.L13:
 926:main.c        ****             Q_chan = (int32)rxRaw << MLT_A;
 235              		.loc 1 926 0
 236 00f6 22B2     		sxth	r2, r4
 237 00f8 9202     		lsls	r2, r2, #10
 238              	.LVL25:
 927:main.c        ****             //CORDIC Routine (16 bits)
 928:main.c        ****             for (i = 0; i < 16; i++)
 239              		.loc 1 928 0
 240 00fa 0023     		movs	r3, #0
 873:main.c        **** 	int32  Q_chan = 0, Qkn;		// must be signed int
 241              		.loc 1 873 0
 242 00fc 1946     		mov	r1, r3
 243              		.loc 1 928 0
 244 00fe 11E0     		b	.L14
 245              	.LVL26:
 246              	.L17:
 929:main.c        ****             {
 930:main.c        ****                 if (Q_chan >= 0) 
 247              		.loc 1 930 0
 248 0100 002A     		cmp	r2, #0
 249 0102 06DB     		blt	.L15
 931:main.c        ****                 {
 932:main.c        ****                     Ikn = I_chan + (Q_chan >> i);
 250              		.loc 1 932 0
 251 0104 42FA03F0 		asr	r0, r2, r3
 252              	.LVL27:
 933:main.c        ****                     Qkn = Q_chan - (I_chan >> i);
 253              		.loc 1 933 0
 254 0108 41FA03F5 		asr	r5, r1, r3
 255 010c 521B     		subs	r2, r2, r5
 256              	.LVL28:
 932:main.c        ****                     Qkn = Q_chan - (I_chan >> i);
 257              		.loc 1 932 0
 258 010e 0144     		add	r1, r1, r0
 259              	.LVL29:
 260 0110 05E0     		b	.L16
 261              	.LVL30:
 262              	.L15:
ARM GAS  C:\Users\koseki\AppData\Local\Temp\ccT0XNG9.s 			page 22


 934:main.c        ****                 }
 935:main.c        ****                 else        
 936:main.c        ****                 {
 937:main.c        ****                     Ikn = I_chan - (Q_chan >> i);
 263              		.loc 1 937 0
 264 0112 42FA03F0 		asr	r0, r2, r3
 265              	.LVL31:
 938:main.c        ****                     Qkn = Q_chan + (I_chan >> i);
 266              		.loc 1 938 0
 267 0116 41FA03F5 		asr	r5, r1, r3
 268 011a 2A44     		add	r2, r2, r5
 269              	.LVL32:
 937:main.c        ****                     Qkn = Q_chan + (I_chan >> i);
 270              		.loc 1 937 0
 271 011c 091A     		subs	r1, r1, r0
 272              	.LVL33:
 273              	.L16:
 928:main.c        ****             {
 274              		.loc 1 928 0 discriminator 2
 275 011e 0133     		adds	r3, r3, #1
 276              	.LVL34:
 277 0120 DBB2     		uxtb	r3, r3
 278              	.LVL35:
 279 0122 0E46     		mov	r6, r1
 280              	.LVL36:
 281              	.L14:
 928:main.c        ****             {
 282              		.loc 1 928 0 is_stmt 0 discriminator 1
 283 0124 0F2B     		cmp	r3, #15
 284 0126 EBD9     		bls	.L17
 939:main.c        ****                 }
 940:main.c        ****                 I_chan = Ikn;
 941:main.c        ****                 Q_chan = Qkn;
 942:main.c        ****             }
 943:main.c        ****             // Ikn = 1.6467602 * xqrt(I^2 + Q^2)
 944:main.c        ****             sample = (uint16)(Ikn >> MLT_A);
 285              		.loc 1 944 0 is_stmt 1
 286 0128 B612     		asrs	r6, r6, #10
 287              	.LVL37:
 945:main.c        **** 
 946:main.c        ****             // Filter_Write16 (Filter_CHANNEL_A, sample);
 947:main.c        ****             Filter_STAGEAM_REG = (uint8)(sample);
 288              		.loc 1 947 0
 289 012a F2B2     		uxtb	r2, r6
 290              	.LVL38:
 291 012c 174B     		ldr	r3, .L22+44
 292              	.LVL39:
 293 012e 1A70     		strb	r2, [r3]
 948:main.c        ****             Filter_STAGEAH_REG = (uint8)(sample >> 8);
 294              		.loc 1 948 0
 295 0130 C6F30726 		ubfx	r6, r6, #8, #8
 296              	.LVL40:
 297 0134 0133     		adds	r3, r3, #1
 298 0136 1E70     		strb	r6, [r3]
 299              	.LVL41:
 300              	.L12:
 949:main.c        ****         }
ARM GAS  C:\Users\koseki\AppData\Local\Temp\ccT0XNG9.s 			page 23


 950:main.c        **** 
 951:main.c        ****         // AdcState == 0 ; 32086 / 256 = 125.33(Hz)= 7.98(ms)
 952:main.c        **** 		if (!AdcState)
 301              		.loc 1 952 0
 302 0138 094B     		ldr	r3, .L22
 303 013a 1B78     		ldrb	r3, [r3]	@ zero_extendqisi2
 304 013c 13B9     		cbnz	r3, .L7
 953:main.c        **** 			AdcTick = TRUE;
 305              		.loc 1 953 0
 306 013e 0122     		movs	r2, #1
 307 0140 144B     		ldr	r3, .L22+52
 308 0142 1A70     		strb	r2, [r3]
 309              	.L7:
 954:main.c        ****     }
 955:main.c        **** 	AdcState++;
 310              		.loc 1 955 0
 311 0144 064A     		ldr	r2, .L22
 312 0146 1378     		ldrb	r3, [r2]	@ zero_extendqisi2
 313 0148 0133     		adds	r3, r3, #1
 314 014a 1370     		strb	r3, [r2]
 956:main.c        **** 	
 957:main.c        **** 	if (rxRaw > AdcPeak)
 315              		.loc 1 957 0
 316 014c 23B2     		sxth	r3, r4
 317 014e 124A     		ldr	r2, .L22+56
 318 0150 B2F90020 		ldrsh	r2, [r2]
 319 0154 9342     		cmp	r3, r2
 320 0156 01DD     		ble	.L4
 958:main.c        **** 		AdcPeak = rxRaw;
 321              		.loc 1 958 0
 322 0158 0F4B     		ldr	r3, .L22+56
 323 015a 1C80     		strh	r4, [r3]	@ movhi
 324              	.L4:
 325 015c 70BD     		pop	{r4, r5, r6, pc}
 326              	.LVL42:
 327              	.L23:
 328 015e 00BF     		.align	2
 329              	.L22:
 330 0160 00000000 		.word	AdcState
 331 0164 78650040 		.word	1073767800
 332 0168 00000000 		.word	IDCOffset
 333 016c 00000000 		.word	AgcGain
 334 0170 00000000 		.word	IDelayPtr
 335 0174 00000000 		.word	IDelay
 336 0178 AAC70040 		.word	1073792938
 337 017c 805B0040 		.word	1073765248
 338 0180 00000000 		.word	QDCOffset
 339 0184 00000000 		.word	Mode
 340 0188 00000000 		.word	UpperSideBand
 341 018c A1C70040 		.word	1073792929
 342 0190 A6C70040 		.word	1073792934
 343 0194 00000000 		.word	AdcTick
 344 0198 00000000 		.word	AdcPeak
 345              		.cfi_endproc
 346              	.LFE80:
 347              		.size	ADC_ISR_Handler, .-ADC_ISR_Handler
 348              		.section	.text.prvHardwareSetup,"ax",%progbits
ARM GAS  C:\Users\koseki\AppData\Local\Temp\ccT0XNG9.s 			page 24


 349              		.align	2
 350              		.global	prvHardwareSetup
 351              		.thumb
 352              		.thumb_func
 353              		.type	prvHardwareSetup, %function
 354              	prvHardwareSetup:
 355              	.LFB66:
 304:main.c        ****     /* Port layer functions that need to be copied into the vector table. */
 356              		.loc 1 304 0
 357              		.cfi_startproc
 358              		@ args = 0, pretend = 0, frame = 0
 359              		@ frame_needed = 0, uses_anonymous_args = 0
 360              		@ link register save eliminated.
 312:main.c        **** 	CyRamVectors[ 14 ] = ( cyisraddress ) xPortPendSVHandler;
 361              		.loc 1 312 0
 362 0000 034B     		ldr	r3, .L25
 363 0002 044A     		ldr	r2, .L25+4
 364 0004 DA62     		str	r2, [r3, #44]
 313:main.c        **** 	CyRamVectors[ 15 ] = ( cyisraddress ) xPortSysTickHandler;
 365              		.loc 1 313 0
 366 0006 044A     		ldr	r2, .L25+8
 367 0008 9A63     		str	r2, [r3, #56]
 314:main.c        ****     
 368              		.loc 1 314 0
 369 000a 044A     		ldr	r2, .L25+12
 370 000c DA63     		str	r2, [r3, #60]
 371 000e 7047     		bx	lr
 372              	.L26:
 373              		.align	2
 374              	.L25:
 375 0010 00000000 		.word	CyRamVectors
 376 0014 00000000 		.word	vPortSVCHandler
 377 0018 00000000 		.word	xPortPendSVHandler
 378 001c 00000000 		.word	xPortSysTickHandler
 379              		.cfi_endproc
 380              	.LFE66:
 381              		.size	prvHardwareSetup, .-prvHardwareSetup
 382              		.section	.text.vApplicationStackOverflowHook,"ax",%progbits
 383              		.align	2
 384              		.global	vApplicationStackOverflowHook
 385              		.thumb
 386              		.thumb_func
 387              		.type	vApplicationStackOverflowHook, %function
 388              	vApplicationStackOverflowHook:
 389              	.LFB67:
 320:main.c        **** 	/* The stack space has been execeeded for a task, considering allocating more. */
 390              		.loc 1 320 0
 391              		.cfi_startproc
 392              		@ Volatile: function does not return.
 393              		@ args = 0, pretend = 0, frame = 0
 394              		@ frame_needed = 0, uses_anonymous_args = 0
 395              	.LVL43:
 396 0000 08B5     		push	{r3, lr}
 397              		.cfi_def_cfa_offset 8
 398              		.cfi_offset 3, -8
 399              		.cfi_offset 14, -4
 322:main.c        **** 	for( ;; );
ARM GAS  C:\Users\koseki\AppData\Local\Temp\ccT0XNG9.s 			page 25


 400              		.loc 1 322 0
 401 0002 FFF7FEFF 		bl	ulPortSetInterruptMask
 402              	.LVL44:
 403              	.L28:
 323:main.c        **** }
 404              		.loc 1 323 0 discriminator 1
 405 0006 FEE7     		b	.L28
 406              		.cfi_endproc
 407              	.LFE67:
 408              		.size	vApplicationStackOverflowHook, .-vApplicationStackOverflowHook
 409              		.section	.text.vApplicationMallocFailedHook,"ax",%progbits
 410              		.align	2
 411              		.global	vApplicationMallocFailedHook
 412              		.thumb
 413              		.thumb_func
 414              		.type	vApplicationMallocFailedHook, %function
 415              	vApplicationMallocFailedHook:
 416              	.LFB68:
 328:main.c        **** 	/* The heap space has been execeeded. */
 417              		.loc 1 328 0
 418              		.cfi_startproc
 419              		@ Volatile: function does not return.
 420              		@ args = 0, pretend = 0, frame = 0
 421              		@ frame_needed = 0, uses_anonymous_args = 0
 422 0000 08B5     		push	{r3, lr}
 423              		.cfi_def_cfa_offset 8
 424              		.cfi_offset 3, -8
 425              		.cfi_offset 14, -4
 330:main.c        **** 	for( ;; );
 426              		.loc 1 330 0
 427 0002 FFF7FEFF 		bl	ulPortSetInterruptMask
 428              	.LVL45:
 429              	.L31:
 331:main.c        **** }
 430              		.loc 1 331 0 discriminator 1
 431 0006 FEE7     		b	.L31
 432              		.cfi_endproc
 433              	.LFE68:
 434              		.size	vApplicationMallocFailedHook, .-vApplicationMallocFailedHook
 435              		.section	.text.LoadFilter,"ax",%progbits
 436              		.align	2
 437              		.global	LoadFilter
 438              		.thumb
 439              		.thumb_func
 440              		.type	LoadFilter, %function
 441              	LoadFilter:
 442              	.LFB72:
 465:main.c        **** 	uint8 i, j;
 443              		.loc 1 465 0
 444              		.cfi_startproc
 445              		@ args = 0, pretend = 0, frame = 280
 446              		@ frame_needed = 0, uses_anonymous_args = 0
 447              	.LVL46:
 448 0000 70B5     		push	{r4, r5, r6, lr}
 449              		.cfi_def_cfa_offset 16
 450              		.cfi_offset 4, -16
 451              		.cfi_offset 5, -12
ARM GAS  C:\Users\koseki\AppData\Local\Temp\ccT0XNG9.s 			page 26


 452              		.cfi_offset 6, -8
 453              		.cfi_offset 14, -4
 454 0002 C6B0     		sub	sp, sp, #280
 455              		.cfi_def_cfa_offset 296
 471:main.c        **** 
 456              		.loc 1 471 0
 457 0004 3F22     		movs	r2, #63
 458 0006 464B     		ldr	r3, .L50
 459 0008 1A70     		strb	r2, [r3]
 473:main.c        ****         cymemcpy(Filter_DB_RAM, Filter_data_b_2500, Filter_DB_RAM_SIZE);
 460              		.loc 1 473 0
 461 000a 0446     		mov	r4, r0
 462 000c 30B9     		cbnz	r0, .L34
 474:main.c        **** 	else if (fltr == FILTER_FL2)
 463              		.loc 1 474 0
 464 000e 4548     		ldr	r0, .L50+4
 465              	.LVL47:
 466 0010 4549     		ldr	r1, .L50+8
 467 0012 4FF40072 		mov	r2, #512
 468 0016 FFF7FEFF 		bl	memcpy
 469              	.LVL48:
 470 001a 10E0     		b	.L35
 471              	.LVL49:
 472              	.L34:
 475:main.c        ****         cymemcpy(Filter_DB_RAM, Filter_data_b_2000, Filter_DB_RAM_SIZE);
 473              		.loc 1 475 0
 474 001c 0128     		cmp	r0, #1
 475 001e 06D1     		bne	.L36
 476:main.c        **** 	else if (fltr == FILTER_FL3)
 476              		.loc 1 476 0
 477 0020 4048     		ldr	r0, .L50+4
 478              	.LVL50:
 479 0022 4249     		ldr	r1, .L50+12
 480 0024 4FF40072 		mov	r2, #512
 481 0028 FFF7FEFF 		bl	memcpy
 482              	.LVL51:
 483 002c 07E0     		b	.L35
 484              	.LVL52:
 485              	.L36:
 477:main.c        ****         cymemcpy(Filter_DB_RAM, Filter_data_b_1500, Filter_DB_RAM_SIZE);
 486              		.loc 1 477 0
 487 002e 0228     		cmp	r0, #2
 488 0030 08D1     		bne	.L37
 478:main.c        **** 	else if (fltr == FILTER_FL4)
 489              		.loc 1 478 0
 490 0032 3C48     		ldr	r0, .L50+4
 491              	.LVL53:
 492 0034 3E49     		ldr	r1, .L50+16
 493 0036 4FF40072 		mov	r2, #512
 494 003a FFF7FEFF 		bl	memcpy
 495              	.LVL54:
 496              	.L35:
 465:main.c        **** 	uint8 i, j;
 497              		.loc 1 465 0 discriminator 1
 498 003e 0021     		movs	r1, #0
 499 0040 0B46     		mov	r3, r1
 500 0042 2FE0     		b	.L38
ARM GAS  C:\Users\koseki\AppData\Local\Temp\ccT0XNG9.s 			page 27


 501              	.LVL55:
 502              	.L37:
 479:main.c        ****         cymemcpy(Filter_DB_RAM, Filter_data_b_cw, Filter_DB_RAM_SIZE);
 503              		.loc 1 479 0
 504 0044 0328     		cmp	r0, #3
 505 0046 06D1     		bne	.L39
 480:main.c        **** 	else if (fltr == FILTER_AM)
 506              		.loc 1 480 0
 507 0048 3648     		ldr	r0, .L50+4
 508              	.LVL56:
 509 004a 3A49     		ldr	r1, .L50+20
 510 004c 4FF40072 		mov	r2, #512
 511 0050 FFF7FEFF 		bl	memcpy
 512              	.LVL57:
 513 0054 F3E7     		b	.L35
 514              	.LVL58:
 515              	.L39:
 481:main.c        ****         cymemcpy(Filter_DB_RAM, Filter_data_b_am, Filter_DB_RAM_SIZE);
 516              		.loc 1 481 0
 517 0056 0428     		cmp	r0, #4
 518 0058 06D1     		bne	.L40
 482:main.c        **** 	else if (fltr == FILTER_RST)
 519              		.loc 1 482 0
 520 005a 3248     		ldr	r0, .L50+4
 521              	.LVL59:
 522 005c 3649     		ldr	r1, .L50+24
 523 005e 4FF40072 		mov	r2, #512
 524 0062 FFF7FEFF 		bl	memcpy
 525              	.LVL60:
 526 0066 EAE7     		b	.L35
 527              	.LVL61:
 528              	.L40:
 483:main.c        ****         cymemcpy(Filter_DB_RAM, Filter_data_b, Filter_DB_RAM_SIZE);
 529              		.loc 1 483 0
 530 0068 0528     		cmp	r0, #5
 531 006a E8D1     		bne	.L35
 484:main.c        **** 
 532              		.loc 1 484 0
 533 006c 2D48     		ldr	r0, .L50+4
 534              	.LVL62:
 535 006e 3349     		ldr	r1, .L50+28
 536 0070 4FF40072 		mov	r2, #512
 537 0074 FFF7FEFF 		bl	memcpy
 538              	.LVL63:
 539 0078 E1E7     		b	.L35
 540              	.LVL64:
 541              	.L41:
 490:main.c        **** 		xbuf [j++] = x & 0xFF;
 542              		.loc 1 490 0 discriminator 3
 543 007a 314A     		ldr	r2, .L50+32
 544 007c 52F82320 		ldr	r2, [r2, r3, lsl #2]
 545              	.LVL65:
 491:main.c        **** 		xbuf [j++] = (x >> 8) & 0xFF;
 546              		.loc 1 491 0 discriminator 3
 547 0080 481C     		adds	r0, r1, #1
 548 0082 C0B2     		uxtb	r0, r0
 549              	.LVL66:
ARM GAS  C:\Users\koseki\AppData\Local\Temp\ccT0XNG9.s 			page 28


 550 0084 06AD     		add	r5, sp, #24
 551 0086 6A54     		strb	r2, [r5, r1]
 492:main.c        **** 		xbuf [j++] = (x >> 16) & 0xFF;
 552              		.loc 1 492 0 discriminator 3
 553 0088 411C     		adds	r1, r0, #1
 554 008a C9B2     		uxtb	r1, r1
 555              	.LVL67:
 556 008c 1612     		asrs	r6, r2, #8
 557 008e 2E54     		strb	r6, [r5, r0]
 493:main.c        **** 		xbuf [j++] = 0;
 558              		.loc 1 493 0 discriminator 3
 559 0090 481C     		adds	r0, r1, #1
 560 0092 C0B2     		uxtb	r0, r0
 561              	.LVL68:
 562 0094 1214     		asrs	r2, r2, #16
 563              	.LVL69:
 564 0096 6A54     		strb	r2, [r5, r1]
 494:main.c        **** 	}
 565              		.loc 1 494 0 discriminator 3
 566 0098 411C     		adds	r1, r0, #1
 567 009a C9B2     		uxtb	r1, r1
 568              	.LVL70:
 569 009c 0022     		movs	r2, #0
 570 009e 2A54     		strb	r2, [r5, r0]
 488:main.c        **** 	{
 571              		.loc 1 488 0 discriminator 3
 572 00a0 0133     		adds	r3, r3, #1
 573              	.LVL71:
 574 00a2 DBB2     		uxtb	r3, r3
 575              	.LVL72:
 576              	.L38:
 488:main.c        **** 	{
 577              		.loc 1 488 0 is_stmt 0 discriminator 1
 578 00a4 3F2B     		cmp	r3, #63
 579 00a6 E8D9     		bls	.L41
 496:main.c        **** 		
 580              		.loc 1 496 0 is_stmt 1
 581 00a8 2648     		ldr	r0, .L50+36
 582 00aa 06A9     		add	r1, sp, #24
 583              	.LVL73:
 584 00ac 4FF48072 		mov	r2, #256
 585 00b0 FFF7FEFF 		bl	memcpy
 586              	.LVL74:
 499:main.c        ****     
 587              		.loc 1 499 0
 588 00b4 0022     		movs	r2, #0
 589 00b6 1A4B     		ldr	r3, .L50
 590 00b8 1A70     		strb	r2, [r3]
 503:main.c        ****     {
 591              		.loc 1 503 0
 592 00ba 042C     		cmp	r4, #4
 593 00bc 26D8     		bhi	.L42
 594 00be DFE804F0 		tbb	[pc, r4]
 595              	.L44:
 596 00c2 03       		.byte	(.L43-.L44)/2
 597 00c3 0A       		.byte	(.L45-.L44)/2
 598 00c4 11       		.byte	(.L46-.L44)/2
ARM GAS  C:\Users\koseki\AppData\Local\Temp\ccT0XNG9.s 			page 29


 599 00c5 18       		.byte	(.L47-.L44)/2
 600 00c6 1F       		.byte	(.L48-.L44)/2
 601 00c7 00       		.p2align 1
 602              	.L43:
 506:main.c        ****             break;
 603              		.loc 1 506 0
 604 00c8 01AB     		add	r3, sp, #4
 605 00ca 1F4A     		ldr	r2, .L50+40
 606 00cc 92E80300 		ldmia	r2, {r0, r1}
 607 00d0 83E80300 		stmia	r3, {r0, r1}
 507:main.c        ****         case FILTER_FL2:
 608              		.loc 1 507 0
 609 00d4 1AE0     		b	.L42
 610              	.L45:
 509:main.c        ****             break;
 611              		.loc 1 509 0
 612 00d6 01AB     		add	r3, sp, #4
 613 00d8 1C4A     		ldr	r2, .L50+44
 614 00da 92E80300 		ldmia	r2, {r0, r1}
 615 00de 83E80300 		stmia	r3, {r0, r1}
 510:main.c        ****         case FILTER_FL3:
 616              		.loc 1 510 0
 617 00e2 13E0     		b	.L42
 618              	.L46:
 512:main.c        ****             break;
 619              		.loc 1 512 0
 620 00e4 01AB     		add	r3, sp, #4
 621 00e6 1A4A     		ldr	r2, .L50+48
 622 00e8 92E80300 		ldmia	r2, {r0, r1}
 623 00ec 83E80300 		stmia	r3, {r0, r1}
 513:main.c        ****         case FILTER_FL4:
 624              		.loc 1 513 0
 625 00f0 0CE0     		b	.L42
 626              	.L47:
 515:main.c        ****             break;
 627              		.loc 1 515 0
 628 00f2 01AB     		add	r3, sp, #4
 629 00f4 174A     		ldr	r2, .L50+52
 630 00f6 92E80300 		ldmia	r2, {r0, r1}
 631 00fa 83E80300 		stmia	r3, {r0, r1}
 516:main.c        ****         case FILTER_AM:
 632              		.loc 1 516 0
 633 00fe 05E0     		b	.L42
 634              	.L48:
 518:main.c        ****             break;
 635              		.loc 1 518 0
 636 0100 01AB     		add	r3, sp, #4
 637 0102 154A     		ldr	r2, .L50+56
 638 0104 92E80300 		ldmia	r2, {r0, r1}
 639 0108 83E80300 		stmia	r3, {r0, r1}
 640              	.L42:
 523:main.c        ****     I2C_CLCD_PrintString(str);
 641              		.loc 1 523 0
 642 010c 0120     		movs	r0, #1
 643 010e 0521     		movs	r1, #5
 644 0110 FFF7FEFF 		bl	I2C_CLCD_Position
 645              	.LVL75:
ARM GAS  C:\Users\koseki\AppData\Local\Temp\ccT0XNG9.s 			page 30


 524:main.c        **** 
 646              		.loc 1 524 0
 647 0114 01A8     		add	r0, sp, #4
 648 0116 FFF7FEFF 		bl	I2C_CLCD_PrintString
 649              	.LVL76:
 526:main.c        **** 
 650              		.loc 1 526 0
 651 011a 46B0     		add	sp, sp, #280
 652              		.cfi_def_cfa_offset 16
 653              		@ sp needed
 654 011c 70BD     		pop	{r4, r5, r6, pc}
 655              	.L51:
 656 011e 00BF     		.align	2
 657              	.L50:
 658 0120 8CC70040 		.word	1073792908
 659 0124 00C20040 		.word	1073791488
 660 0128 00000000 		.word	Filter_data_b_2500
 661 012c 00000000 		.word	Filter_data_b_2000
 662 0130 00000000 		.word	Filter_data_b_1500
 663 0134 00000000 		.word	Filter_data_b_cw
 664 0138 00000000 		.word	Filter_data_b_am
 665 013c 00000000 		.word	Filter_data_b
 666 0140 00000000 		.word	Hilbert
 667 0144 00C30040 		.word	1073791744
 668 0148 00000000 		.word	.LC1
 669 014c 08000000 		.word	.LC2
 670 0150 10000000 		.word	.LC3
 671 0154 18000000 		.word	.LC4
 672 0158 20000000 		.word	.LC5
 673              		.cfi_endproc
 674              	.LFE72:
 675              		.size	LoadFilter, .-LoadFilter
 676              		.section	.text.SetMode,"ax",%progbits
 677              		.align	2
 678              		.global	SetMode
 679              		.thumb
 680              		.thumb_func
 681              		.type	SetMode, %function
 682              	SetMode:
 683              	.LFB74:
 598:main.c        **** 	Mode = md;					// save operating mode
 684              		.loc 1 598 0
 685              		.cfi_startproc
 686              		@ args = 0, pretend = 0, frame = 24
 687              		@ frame_needed = 0, uses_anonymous_args = 0
 688              	.LVL77:
 689 0000 00B5     		push	{lr}
 690              		.cfi_def_cfa_offset 4
 691              		.cfi_offset 14, -4
 692 0002 87B0     		sub	sp, sp, #28
 693              		.cfi_def_cfa_offset 32
 599:main.c        ****     
 694              		.loc 1 599 0
 695 0004 264B     		ldr	r3, .L67
 696 0006 1870     		strb	r0, [r3]
 601:main.c        **** 		
 697              		.loc 1 601 0
ARM GAS  C:\Users\koseki\AppData\Local\Temp\ccT0XNG9.s 			page 31


 698 0008 431E     		subs	r3, r0, #1
 699 000a DBB2     		uxtb	r3, r3
 700 000c 012B     		cmp	r3, #1
 701 000e 03D9     		bls	.L64
 601:main.c        **** 		
 702              		.loc 1 601 0 is_stmt 0 discriminator 2
 703 0010 0528     		cmp	r0, #5
 704 0012 03D1     		bne	.L65
 601:main.c        **** 		
 705              		.loc 1 601 0
 706 0014 0122     		movs	r2, #1
 707 0016 02E0     		b	.L53
 708              	.L64:
 709 0018 0122     		movs	r2, #1
 710 001a 00E0     		b	.L53
 711              	.L65:
 712 001c 0022     		movs	r2, #0
 713              	.L53:
 601:main.c        **** 		
 714              		.loc 1 601 0 discriminator 6
 715 001e 214B     		ldr	r3, .L67+4
 716 0020 1A70     		strb	r2, [r3]
 603:main.c        **** 		Filter = FILTER_FL4;
 717              		.loc 1 603 0 is_stmt 1 discriminator 6
 718 0022 0228     		cmp	r0, #2
 719 0024 01D0     		beq	.L54
 603:main.c        **** 		Filter = FILTER_FL4;
 720              		.loc 1 603 0 is_stmt 0 discriminator 1
 721 0026 0628     		cmp	r0, #6
 722 0028 03D1     		bne	.L55
 723              	.L54:
 604:main.c        **** 	//else if ((Mode <= MODE_USB) && (Filter == FILTER_FL4))
 724              		.loc 1 604 0 is_stmt 1
 725 002a 0322     		movs	r2, #3
 726 002c 1E4B     		ldr	r3, .L67+8
 727 002e 1A70     		strb	r2, [r3]
 728 0030 04E0     		b	.L56
 729              	.L55:
 606:main.c        **** 		Filter = FILTER_FL2;
 730              		.loc 1 606 0
 731 0032 0128     		cmp	r0, #1
 732 0034 02D8     		bhi	.L56
 607:main.c        ****     // (2017.6.1)koseki
 733              		.loc 1 607 0
 734 0036 0122     		movs	r2, #1
 735 0038 1B4B     		ldr	r3, .L67+8
 736 003a 1A70     		strb	r2, [r3]
 737              	.L56:
 613:main.c        ****     {
 738              		.loc 1 613 0
 739 003c 0328     		cmp	r0, #3
 740 003e 1FD8     		bhi	.L57
 741 0040 DFE800F0 		tbb	[pc, r0]
 742              	.L59:
 743 0044 02       		.byte	(.L58-.L59)/2
 744 0045 09       		.byte	(.L60-.L59)/2
 745 0046 10       		.byte	(.L61-.L59)/2
ARM GAS  C:\Users\koseki\AppData\Local\Temp\ccT0XNG9.s 			page 32


 746 0047 17       		.byte	(.L62-.L59)/2
 747              		.p2align 1
 748              	.L58:
 616:main.c        ****             break;
 749              		.loc 1 616 0
 750 0048 184B     		ldr	r3, .L67+12
 751 004a 93E80300 		ldmia	r3, {r0, r1}
 752              	.LVL78:
 753 004e 0190     		str	r0, [sp, #4]
 754 0050 ADF80810 		strh	r1, [sp, #8]	@ movhi
 617:main.c        ****         case MODE_USB:
 755              		.loc 1 617 0
 756 0054 1AE0     		b	.L63
 757              	.LVL79:
 758              	.L60:
 619:main.c        ****             break;
 759              		.loc 1 619 0
 760 0056 164B     		ldr	r3, .L67+16
 761 0058 93E80300 		ldmia	r3, {r0, r1}
 762              	.LVL80:
 763 005c 0190     		str	r0, [sp, #4]
 764 005e ADF80810 		strh	r1, [sp, #8]	@ movhi
 620:main.c        ****         case MODE_CW:
 765              		.loc 1 620 0
 766 0062 13E0     		b	.L63
 767              	.LVL81:
 768              	.L61:
 622:main.c        ****             break;
 769              		.loc 1 622 0
 770 0064 134B     		ldr	r3, .L67+20
 771 0066 93E80300 		ldmia	r3, {r0, r1}
 772              	.LVL82:
 773 006a 0190     		str	r0, [sp, #4]
 774 006c ADF80810 		strh	r1, [sp, #8]	@ movhi
 623:main.c        ****         case MODE_AM:               // (2017.6.24)koseki
 775              		.loc 1 623 0
 776 0070 0CE0     		b	.L63
 777              	.LVL83:
 778              	.L62:
 625:main.c        ****             break;
 779              		.loc 1 625 0
 780 0072 114B     		ldr	r3, .L67+24
 781 0074 93E80300 		ldmia	r3, {r0, r1}
 782              	.LVL84:
 783 0078 0190     		str	r0, [sp, #4]
 784 007a ADF80810 		strh	r1, [sp, #8]	@ movhi
 626:main.c        ****         default:
 785              		.loc 1 626 0
 786 007e 05E0     		b	.L63
 787              	.LVL85:
 788              	.L57:
 628:main.c        ****             break;
 789              		.loc 1 628 0
 790 0080 0E4B     		ldr	r3, .L67+28
 791 0082 93E80300 		ldmia	r3, {r0, r1}
 792              	.LVL86:
 793 0086 0190     		str	r0, [sp, #4]
ARM GAS  C:\Users\koseki\AppData\Local\Temp\ccT0XNG9.s 			page 33


 794 0088 ADF80810 		strh	r1, [sp, #8]	@ movhi
 795              	.L63:
 631:main.c        ****     I2C_CLCD_PrintString(str);
 796              		.loc 1 631 0
 797 008c 0120     		movs	r0, #1
 798 008e 0021     		movs	r1, #0
 799 0090 FFF7FEFF 		bl	I2C_CLCD_Position
 800              	.LVL87:
 632:main.c        **** }
 801              		.loc 1 632 0
 802 0094 01A8     		add	r0, sp, #4
 803 0096 FFF7FEFF 		bl	I2C_CLCD_PrintString
 804              	.LVL88:
 633:main.c        **** 
 805              		.loc 1 633 0
 806 009a 07B0     		add	sp, sp, #28
 807              		.cfi_def_cfa_offset 4
 808              		@ sp needed
 809 009c 5DF804FB 		ldr	pc, [sp], #4
 810              	.L68:
 811              		.align	2
 812              	.L67:
 813 00a0 00000000 		.word	Mode
 814 00a4 00000000 		.word	UpperSideBand
 815 00a8 00000000 		.word	Filter
 816 00ac 28000000 		.word	.LC6
 817 00b0 30000000 		.word	.LC7
 818 00b4 38000000 		.word	.LC8
 819 00b8 40000000 		.word	.LC9
 820 00bc 48000000 		.word	.LC10
 821              		.cfi_endproc
 822              	.LFE74:
 823              		.size	SetMode, .-SetMode
 824              		.section	.text.BinaryFrequency,"ax",%progbits
 825              		.align	2
 826              		.global	BinaryFrequency
 827              		.thumb
 828              		.thumb_func
 829              		.type	BinaryFrequency, %function
 830              	BinaryFrequency:
 831              	.LFB75:
 639:main.c        **** 	uint8 i;
 832              		.loc 1 639 0
 833              		.cfi_startproc
 834              		@ args = 0, pretend = 0, frame = 0
 835              		@ frame_needed = 0, uses_anonymous_args = 0
 836              		@ link register save eliminated.
 837              	.LVL89:
 838 0000 10B4     		push	{r4}
 839              		.cfi_def_cfa_offset 4
 840              		.cfi_offset 4, -4
 841              	.LVL90:
 644:main.c        **** 	for (i = 0; i < 8; i++)
 842              		.loc 1 644 0
 843 0002 0A4A     		ldr	r2, .L73
 643:main.c        **** 	dec = 10000000;					// 10's of MHz
 844              		.loc 1 643 0
ARM GAS  C:\Users\koseki\AppData\Local\Temp\ccT0XNG9.s 			page 34


 845 0004 0024     		movs	r4, #0
 645:main.c        **** 	{
 846              		.loc 1 645 0
 847 0006 2346     		mov	r3, r4
 848 0008 0AE0     		b	.L70
 849              	.LVL91:
 850              	.L71:
 647:main.c        **** 		dec /= 10;
 851              		.loc 1 647 0 discriminator 3
 852 000a 0178     		ldrb	r1, [r0]	@ zero_extendqisi2
 853 000c 3039     		subs	r1, r1, #48
 854 000e 02FB0144 		mla	r4, r2, r1, r4
 855              	.LVL92:
 648:main.c        **** 	}
 856              		.loc 1 648 0 discriminator 3
 857 0012 0749     		ldr	r1, .L73+4
 858 0014 A1FB0212 		umull	r1, r2, r1, r2
 859              	.LVL93:
 860 0018 D208     		lsrs	r2, r2, #3
 861              	.LVL94:
 645:main.c        **** 	{
 862              		.loc 1 645 0 discriminator 3
 863 001a 0133     		adds	r3, r3, #1
 864              	.LVL95:
 865 001c DBB2     		uxtb	r3, r3
 866              	.LVL96:
 647:main.c        **** 		dec /= 10;
 867              		.loc 1 647 0 discriminator 3
 868 001e 0130     		adds	r0, r0, #1
 869              	.LVL97:
 870              	.L70:
 645:main.c        **** 	{
 871              		.loc 1 645 0 discriminator 1
 872 0020 072B     		cmp	r3, #7
 873 0022 F2D9     		bls	.L71
 651:main.c        **** 
 874              		.loc 1 651 0
 875 0024 2046     		mov	r0, r4
 876              	.LVL98:
 877 0026 5DF8044B 		ldr	r4, [sp], #4
 878              		.cfi_restore 4
 879              		.cfi_def_cfa_offset 0
 880              	.LVL99:
 881 002a 7047     		bx	lr
 882              	.L74:
 883              		.align	2
 884              	.L73:
 885 002c 80969800 		.word	10000000
 886 0030 CDCCCCCC 		.word	-858993459
 887              		.cfi_endproc
 888              	.LFE75:
 889              		.size	BinaryFrequency, .-BinaryFrequency
 890              		.global	__aeabi_uldivmod
 891              		.section	.text.SetFrequency,"ax",%progbits
 892              		.align	2
 893              		.global	SetFrequency
 894              		.thumb
ARM GAS  C:\Users\koseki\AppData\Local\Temp\ccT0XNG9.s 			page 35


 895              		.thumb_func
 896              		.type	SetFrequency, %function
 897              	SetFrequency:
 898              	.LFB73:
 534:main.c        **** 	//uint8 pllN, iqDivider, fracLo, fracHi;
 899              		.loc 1 534 0
 900              		.cfi_startproc
 901              		@ args = 0, pretend = 0, frame = 32
 902              		@ frame_needed = 0, uses_anonymous_args = 0
 903 0000 70B5     		push	{r4, r5, r6, lr}
 904              		.cfi_def_cfa_offset 16
 905              		.cfi_offset 4, -16
 906              		.cfi_offset 5, -12
 907              		.cfi_offset 6, -8
 908              		.cfi_offset 14, -4
 909 0002 88B0     		sub	sp, sp, #32
 910              		.cfi_def_cfa_offset 48
 540:main.c        ****     uint8 i;
 911              		.loc 1 540 0
 912 0004 4E4B     		ldr	r3, .L85+8
 913 0006 1868     		ldr	r0, [r3]	@ unaligned
 914 0008 0690     		str	r0, [sp, #24]	@ unaligned
 915 000a 1B79     		ldrb	r3, [r3, #4]	@ zero_extendqisi2
 916 000c 8DF81C30 		strb	r3, [sp, #28]
 544:main.c        **** 		return;							// ignore set frequency command and return
 917              		.loc 1 544 0
 918 0010 4C48     		ldr	r0, .L85+12
 919 0012 4D49     		ldr	r1, .L85+16
 920 0014 0822     		movs	r2, #8
 921 0016 FFF7FEFF 		bl	memcmp
 922              	.LVL100:
 923 001a 0028     		cmp	r0, #0
 924 001c 00F08A80 		beq	.L75
 547:main.c        **** 
 925              		.loc 1 547 0
 926 0020 4848     		ldr	r0, .L85+12
 927 0022 FFF7FEFF 		bl	BinaryFrequency
 928              	.LVL101:
 549:main.c        **** 	{
 929              		.loc 1 549 0
 930 0026 494B     		ldr	r3, .L85+20
 931 0028 1B78     		ldrb	r3, [r3]	@ zero_extendqisi2
 932 002a 63B9     		cbnz	r3, .L77
 549:main.c        **** 	{
 933              		.loc 1 549 0 is_stmt 0 discriminator 1
 934 002c A0F5C333 		sub	r3, r0, #99840
 935 0030 A03B     		subs	r3, r3, #160
 936 0032 474A     		ldr	r2, .L85+24
 937 0034 9342     		cmp	r3, r2
 938 0036 06D9     		bls	.L77
 551:main.c        **** 		return;
 939              		.loc 1 551 0 is_stmt 1
 940 0038 424B     		ldr	r3, .L85+12
 941 003a 434A     		ldr	r2, .L85+16
 942 003c 1168     		ldr	r1, [r2]	@ unaligned
 943 003e 5268     		ldr	r2, [r2, #4]	@ unaligned
 944 0040 1960     		str	r1, [r3]	@ unaligned
ARM GAS  C:\Users\koseki\AppData\Local\Temp\ccT0XNG9.s 			page 36


 945 0042 5A60     		str	r2, [r3, #4]	@ unaligned
 552:main.c        **** 	}
 946              		.loc 1 552 0
 947 0044 76E0     		b	.L75
 948              	.L77:
 554:main.c        **** 	Frequency = frq;				// save new receive frequency (binary form)
 949              		.loc 1 554 0
 950 0046 404B     		ldr	r3, .L85+16
 951 0048 3E4A     		ldr	r2, .L85+12
 952 004a 1168     		ldr	r1, [r2]	@ unaligned
 953 004c 5268     		ldr	r2, [r2, #4]	@ unaligned
 954 004e 1960     		str	r1, [r3]	@ unaligned
 955 0050 5A60     		str	r2, [r3, #4]	@ unaligned
 555:main.c        ****     
 956              		.loc 1 555 0
 957 0052 404B     		ldr	r3, .L85+28
 958 0054 1860     		str	r0, [r3]
 560:main.c        ****     // (2017.5.31)koseki
 959              		.loc 1 560 0
 960 0056 404B     		ldr	r3, .L85+32
 961 0058 83FB0032 		smull	r3, r2, r3, r0
 962 005c C317     		asrs	r3, r0, #31
 963 005e C3EB6213 		rsb	r3, r3, r2, asr #5
 964 0062 3E4A     		ldr	r2, .L85+36
 965 0064 1268     		ldr	r2, [r2]
 966 0066 02FB03F3 		mul	r3, r2, r3
 967 006a 3D4E     		ldr	r6, .L85+40
 968 006c 86FB0326 		smull	r2, r6, r6, r3
 969 0070 DB17     		asrs	r3, r3, #31
 970 0072 C3EB2633 		rsb	r3, r3, r6, asr #12
 971 0076 0344     		add	r3, r3, r0
 972              	.LVL102:
 562:main.c        ****     // DDS frequency is quadruple of Rx frequency 
 973              		.loc 1 562 0
 974 0078 3A4A     		ldr	r2, .L85+44
 975 007a 1278     		ldrb	r2, [r2]	@ zero_extendqisi2
 976 007c 02EB4202 		add	r2, r2, r2, lsl #1
 977 0080 D200     		lsls	r2, r2, #3
 978 0082 3949     		ldr	r1, .L85+48
 979 0084 0A44     		add	r2, r2, r1
 980 0086 5668     		ldr	r6, [r2, #4]
 981 0088 1E44     		add	r6, r6, r3
 982              	.LVL103:
 565:main.c        ****     wdata /= 125000000;
 983              		.loc 1 565 0
 984 008a 0024     		movs	r4, #0
 985              	.LVL104:
 566:main.c        **** 
 986              		.loc 1 566 0
 987 008c 2046     		mov	r0, r4
 988 008e B100     		lsls	r1, r6, #2
 989              	.LVL105:
 990 0090 29A3     		adr	r3, .L85
 991 0092 D3E90023 		ldrd	r2, [r3]
 992 0096 FFF7FEFF 		bl	__aeabi_uldivmod
 993              	.LVL106:
 568:main.c        ****         w[i] = (uint8)((wdata >> i * 8) & 0x000000FFu);
ARM GAS  C:\Users\koseki\AppData\Local\Temp\ccT0XNG9.s 			page 37


 994              		.loc 1 568 0
 995 009a 2346     		mov	r3, r4
 996 009c 12E0     		b	.L78
 997              	.LVL107:
 998              	.L79:
 569:main.c        ****     if ((frq < 40000000) && (frq > 0))
 999              		.loc 1 569 0 discriminator 3
 1000 009e DA00     		lsls	r2, r3, #3
 1001 00a0 C2F12005 		rsb	r5, r2, #32
 1002 00a4 A2F12004 		sub	r4, r2, #32
 1003 00a8 20FA02F2 		lsr	r2, r0, r2
 1004 00ac 01FA05F5 		lsl	r5, r1, r5
 1005 00b0 2A43     		orrs	r2, r2, r5
 1006 00b2 21FA04F4 		lsr	r4, r1, r4
 1007 00b6 2243     		orrs	r2, r2, r4
 1008 00b8 08AC     		add	r4, sp, #32
 1009 00ba 1C44     		add	r4, r4, r3
 1010 00bc 04F8082C 		strb	r2, [r4, #-8]
 568:main.c        ****         w[i] = (uint8)((wdata >> i * 8) & 0x000000FFu);
 1011              		.loc 1 568 0 discriminator 3
 1012 00c0 0133     		adds	r3, r3, #1
 1013              	.LVL108:
 1014 00c2 DBB2     		uxtb	r3, r3
 1015              	.LVL109:
 1016              	.L78:
 568:main.c        ****         w[i] = (uint8)((wdata >> i * 8) & 0x000000FFu);
 1017              		.loc 1 568 0 is_stmt 0 discriminator 1
 1018 00c4 032B     		cmp	r3, #3
 1019 00c6 EAD9     		bls	.L79
 570:main.c        ****     {
 1020              		.loc 1 570 0 is_stmt 1
 1021 00c8 013E     		subs	r6, r6, #1
 1022              	.LVL110:
 1023 00ca 284B     		ldr	r3, .L85+52
 1024              	.LVL111:
 1025 00cc 9E42     		cmp	r6, r3
 1026 00ce 22D8     		bhi	.L80
 573:main.c        ****         // writing data to the SPIM software buffer
 1027              		.loc 1 573 0
 1028 00d0 0022     		movs	r2, #0
 1029 00d2 274B     		ldr	r3, .L85+56
 1030 00d4 1A70     		strb	r2, [r3]
 575:main.c        ****         SPIM_WriteTxData(w[1]);
 1031              		.loc 1 575 0
 1032 00d6 9DF81800 		ldrb	r0, [sp, #24]	@ zero_extendqisi2
 1033              	.LVL112:
 1034 00da FFF7FEFF 		bl	SPIM_WriteTxData
 1035              	.LVL113:
 576:main.c        ****         SPIM_WriteTxData(w[2]);
 1036              		.loc 1 576 0
 1037 00de 9DF81900 		ldrb	r0, [sp, #25]	@ zero_extendqisi2
 1038 00e2 FFF7FEFF 		bl	SPIM_WriteTxData
 1039              	.LVL114:
 577:main.c        ****         SPIM_WriteTxData(w[3]);
 1040              		.loc 1 577 0
 1041 00e6 9DF81A00 		ldrb	r0, [sp, #26]	@ zero_extendqisi2
 1042 00ea FFF7FEFF 		bl	SPIM_WriteTxData
ARM GAS  C:\Users\koseki\AppData\Local\Temp\ccT0XNG9.s 			page 38


 1043              	.LVL115:
 578:main.c        ****         SPIM_WriteTxData(w[4]);
 1044              		.loc 1 578 0
 1045 00ee 9DF81B00 		ldrb	r0, [sp, #27]	@ zero_extendqisi2
 1046 00f2 FFF7FEFF 		bl	SPIM_WriteTxData
 1047              	.LVL116:
 579:main.c        ****         // We need to know the moment when SPI communication is complete
 1048              		.loc 1 579 0
 1049 00f6 9DF81C00 		ldrb	r0, [sp, #28]	@ zero_extendqisi2
 1050 00fa FFF7FEFF 		bl	SPIM_WriteTxData
 1051              	.LVL117:
 1052              	.L81:
 582:main.c        ****         sprintf(str, "%7ld[Hz]", Frequency);
 1053              		.loc 1 582 0 discriminator 1
 1054 00fe FFF7FEFF 		bl	SPIM_ReadTxStatus
 1055              	.LVL118:
 1056 0102 10F0010F 		tst	r0, #1
 1057 0106 FAD0     		beq	.L81
 583:main.c        ****     }
 1058              		.loc 1 583 0
 1059 0108 01A8     		add	r0, sp, #4
 1060 010a 1A49     		ldr	r1, .L85+60
 1061 010c 114B     		ldr	r3, .L85+28
 1062 010e 1A68     		ldr	r2, [r3]
 1063 0110 FFF7FEFF 		bl	sprintf
 1064              	.LVL119:
 1065 0114 04E0     		b	.L82
 1066              	.LVL120:
 1067              	.L80:
 586:main.c        ****         
 1068              		.loc 1 586 0
 1069 0116 01AB     		add	r3, sp, #4
 1070 0118 174A     		ldr	r2, .L85+64
 1071 011a 07CA     		ldmia	r2, {r0, r1, r2}
 1072              	.LVL121:
 1073 011c 83E80700 		stmia	r3, {r0, r1, r2}
 1074              	.L82:
 588:main.c        ****     I2C_CLCD_PrintString(str);
 1075              		.loc 1 588 0
 1076 0120 0020     		movs	r0, #0
 1077 0122 0521     		movs	r1, #5
 1078 0124 FFF7FEFF 		bl	I2C_CLCD_Position
 1079              	.LVL122:
 589:main.c        **** 
 1080              		.loc 1 589 0
 1081 0128 01A8     		add	r0, sp, #4
 1082 012a FFF7FEFF 		bl	I2C_CLCD_PrintString
 1083              	.LVL123:
 591:main.c        **** }
 1084              		.loc 1 591 0
 1085 012e 0120     		movs	r0, #1
 1086 0130 FFF7FEFF 		bl	CyDelay
 1087              	.LVL124:
 1088              	.L75:
 592:main.c        **** 
 1089              		.loc 1 592 0
 1090 0134 08B0     		add	sp, sp, #32
ARM GAS  C:\Users\koseki\AppData\Local\Temp\ccT0XNG9.s 			page 39


 1091              		.cfi_def_cfa_offset 16
 1092              		@ sp needed
 1093 0136 70BD     		pop	{r4, r5, r6, pc}
 1094              	.L86:
 1095              		.align	3
 1096              	.L85:
 1097 0138 40597307 		.word	125000000
 1098 013c 00000000 		.word	0
 1099 0140 00000000 		.word	.LANCHOR0
 1100 0144 00000000 		.word	Freq
 1101 0148 00000000 		.word	LastFreq
 1102 014c 00000000 		.word	Debug
 1103 0150 608B7800 		.word	7900000
 1104 0154 00000000 		.word	Frequency
 1105 0158 1F85EB51 		.word	1374389535
 1106 015c 00000000 		.word	FrequencyError
 1107 0160 89B5F814 		.word	351843721
 1108 0164 00000000 		.word	Ch
 1109 0168 08000000 		.word	.LANCHOR1+8
 1110 016c FE596202 		.word	39999998
 1111 0170 00000000 		.word	AgcGain
 1112 0174 50000000 		.word	.LC11
 1113 0178 5C000000 		.word	.LC12
 1114              		.cfi_endproc
 1115              	.LFE73:
 1116              		.size	SetFrequency, .-SetFrequency
 1117 017c AFF30080 		.section	.text.ChannelSet,"ax",%progbits
 1118              		.align	2
 1119              		.global	ChannelSet
 1120              		.thumb
 1121              		.thumb_func
 1122              		.type	ChannelSet, %function
 1123              	ChannelSet:
 1124              	.LFB71:
 443:main.c        ****     char str[20];
 1125              		.loc 1 443 0
 1126              		.cfi_startproc
 1127              		@ args = 0, pretend = 0, frame = 24
 1128              		@ frame_needed = 0, uses_anonymous_args = 0
 1129              	.LVL125:
 1130 0000 F0B5     		push	{r4, r5, r6, r7, lr}
 1131              		.cfi_def_cfa_offset 20
 1132              		.cfi_offset 4, -20
 1133              		.cfi_offset 5, -16
 1134              		.cfi_offset 6, -12
 1135              		.cfi_offset 7, -8
 1136              		.cfi_offset 14, -4
 1137 0002 87B0     		sub	sp, sp, #28
 1138              		.cfi_def_cfa_offset 48
 1139 0004 0546     		mov	r5, r0
 447:main.c        ****     SetFrequency();
 1140              		.loc 1 447 0
 1141 0006 184E     		ldr	r6, .L89
 1142 0008 184B     		ldr	r3, .L89+4
 1143 000a 1B78     		ldrb	r3, [r3]	@ zero_extendqisi2
 1144 000c 03EB4303 		add	r3, r3, r3, lsl #1
 1145 0010 DB00     		lsls	r3, r3, #3
ARM GAS  C:\Users\koseki\AppData\Local\Temp\ccT0XNG9.s 			page 40


 1146 0012 3344     		add	r3, r3, r6
 1147 0014 1648     		ldr	r0, .L89+8
 1148              	.LVL126:
 1149 0016 1749     		ldr	r1, .L89+12
 1150 0018 9A68     		ldr	r2, [r3, #8]
 1151 001a FFF7FEFF 		bl	sprintf
 1152              	.LVL127:
 448:main.c        ****     Mode = station[ch].Mode;
 1153              		.loc 1 448 0
 1154 001e FFF7FEFF 		bl	SetFrequency
 1155              	.LVL128:
 449:main.c        **** 	SetMode(Mode);
 1156              		.loc 1 449 0
 1157 0022 6F00     		lsls	r7, r5, #1
 1158 0024 7B19     		adds	r3, r7, r5
 1159 0026 DB00     		lsls	r3, r3, #3
 1160 0028 3344     		add	r3, r3, r6
 1161 002a 03F11004 		add	r4, r3, #16
 1162 002e 187D     		ldrb	r0, [r3, #20]	@ zero_extendqisi2
 1163 0030 114B     		ldr	r3, .L89+16
 1164 0032 1870     		strb	r0, [r3]
 450:main.c        ****     Filter = station[ch].Filter;
 1165              		.loc 1 450 0
 1166 0034 FFF7FEFF 		bl	SetMode
 1167              	.LVL129:
 451:main.c        ****     LoadFilter(Filter);
 1168              		.loc 1 451 0
 1169 0038 6079     		ldrb	r0, [r4, #5]	@ zero_extendqisi2
 1170 003a 104B     		ldr	r3, .L89+20
 1171 003c 1870     		strb	r0, [r3]
 452:main.c        ****     
 1172              		.loc 1 452 0
 1173 003e FFF7FEFF 		bl	LoadFilter
 1174              	.LVL130:
 454:main.c        ****     I2C_CLCD_Position(0u, cNAME);
 1175              		.loc 1 454 0
 1176 0042 7919     		adds	r1, r7, r5
 1177 0044 C900     		lsls	r1, r1, #3
 1178 0046 01A8     		add	r0, sp, #4
 1179 0048 3144     		add	r1, r1, r6
 1180 004a FFF7FEFF 		bl	strcpy
 1181              	.LVL131:
 455:main.c        ****     I2C_CLCD_PrintString(str);
 1182              		.loc 1 455 0
 1183 004e 0020     		movs	r0, #0
 1184 0050 0146     		mov	r1, r0
 1185 0052 FFF7FEFF 		bl	I2C_CLCD_Position
 1186              	.LVL132:
 456:main.c        ****     
 1187              		.loc 1 456 0
 1188 0056 01A8     		add	r0, sp, #4
 1189 0058 FFF7FEFF 		bl	I2C_CLCD_PrintString
 1190              	.LVL133:
 458:main.c        **** }
 1191              		.loc 1 458 0
 1192 005c 0022     		movs	r2, #0
 1193 005e 084B     		ldr	r3, .L89+24
ARM GAS  C:\Users\koseki\AppData\Local\Temp\ccT0XNG9.s 			page 41


 1194 0060 1A60     		str	r2, [r3]
 459:main.c        **** 
 1195              		.loc 1 459 0
 1196 0062 07B0     		add	sp, sp, #28
 1197              		.cfi_def_cfa_offset 20
 1198              		@ sp needed
 1199 0064 F0BD     		pop	{r4, r5, r6, r7, pc}
 1200              	.L90:
 1201 0066 00BF     		.align	2
 1202              	.L89:
 1203 0068 00000000 		.word	.LANCHOR1
 1204 006c 00000000 		.word	Ch
 1205 0070 00000000 		.word	Freq
 1206 0074 68000000 		.word	.LC13
 1207 0078 00000000 		.word	Mode
 1208 007c 00000000 		.word	Filter
 1209 0080 00000000 		.word	AgcIndicator
 1210              		.cfi_endproc
 1211              	.LFE71:
 1212              		.size	ChannelSet, .-ChannelSet
 1213              		.section	.text.Task_CLCD,"ax",%progbits
 1214              		.align	2
 1215              		.global	Task_CLCD
 1216              		.thumb
 1217              		.thumb_func
 1218              		.type	Task_CLCD, %function
 1219              	Task_CLCD:
 1220              	.LFB70:
 376:main.c        ****     int8   click;
 1221              		.loc 1 376 0
 1222              		.cfi_startproc
 1223              		@ args = 0, pretend = 0, frame = 24
 1224              		@ frame_needed = 0, uses_anonymous_args = 0
 1225              	.LVL134:
 1226 0000 30B5     		push	{r4, r5, lr}
 1227              		.cfi_def_cfa_offset 12
 1228              		.cfi_offset 4, -12
 1229              		.cfi_offset 5, -8
 1230              		.cfi_offset 14, -4
 1231 0002 87B0     		sub	sp, sp, #28
 1232              		.cfi_def_cfa_offset 40
 1233              	.LVL135:
 384:main.c        ****     I2C_CLCD_Position(1u, cAGC);
 1234              		.loc 1 384 0
 1235 0004 0024     		movs	r4, #0
 1236 0006 484B     		ldr	r3, .L102
 1237 0008 1C60     		str	r4, [r3]
 385:main.c        ****     I2C_CLCD_PrintString("S__");
 1238              		.loc 1 385 0
 1239 000a 0120     		movs	r0, #1
 1240              	.LVL136:
 1241 000c 0D21     		movs	r1, #13
 1242 000e FFF7FEFF 		bl	I2C_CLCD_Position
 1243              	.LVL137:
 386:main.c        **** 
 1244              		.loc 1 386 0
 1245 0012 4648     		ldr	r0, .L102+4
ARM GAS  C:\Users\koseki\AppData\Local\Temp\ccT0XNG9.s 			page 42


 1246 0014 FFF7FEFF 		bl	I2C_CLCD_PrintString
 1247              	.LVL138:
 389:main.c        ****     ChannelSet(Ch);
 1248              		.loc 1 389 0
 1249 0018 454B     		ldr	r3, .L102+8
 1250 001a 1C70     		strb	r4, [r3]
 390:main.c        ****     
 1251              		.loc 1 390 0
 1252 001c 2046     		mov	r0, r4
 1253 001e FFF7FEFF 		bl	ChannelSet
 1254              	.LVL139:
 380:main.c        ****     char str[20];
 1255              		.loc 1 380 0
 1256 0022 2024     		movs	r4, #32
 1257              	.LVL140:
 1258              	.L100:
 395:main.c        ****         
 1259              		.loc 1 395 0
 1260 0024 434B     		ldr	r3, .L102+12
 1261 0026 1868     		ldr	r0, [r3]
 1262 0028 0021     		movs	r1, #0
 1263 002a 4FF0FF32 		mov	r2, #-1
 1264 002e 0B46     		mov	r3, r1
 1265 0030 FFF7FEFF 		bl	xQueueGenericReceive
 1266              	.LVL141:
 398:main.c        ****         {
 1267              		.loc 1 398 0
 1268 0034 404B     		ldr	r3, .L102+16
 1269 0036 1868     		ldr	r0, [r3]
 1270 0038 FFF7FEFF 		bl	uxQueueMessagesWaiting
 1271              	.LVL142:
 1272 003c D8B1     		cbz	r0, .L92
 400:main.c        ****             // target frequency
 1273              		.loc 1 400 0
 1274 003e 3E4B     		ldr	r3, .L102+16
 1275 0040 1868     		ldr	r0, [r3]
 1276 0042 0DF11701 		add	r1, sp, #23
 1277 0046 0022     		movs	r2, #0
 1278 0048 1346     		mov	r3, r2
 1279 004a FFF7FEFF 		bl	xQueueGenericReceive
 1280              	.LVL143:
 402:main.c        ****             sprintf((char*)Freq, "%08ld", Frequency + (click * step_freq));
 1281              		.loc 1 402 0
 1282 004e 384B     		ldr	r3, .L102+8
 1283 0050 1B78     		ldrb	r3, [r3]	@ zero_extendqisi2
 1284 0052 03EB4303 		add	r3, r3, r3, lsl #1
 1285 0056 DB00     		lsls	r3, r3, #3
 1286 0058 384A     		ldr	r2, .L102+20
 1287 005a 1344     		add	r3, r3, r2
 1288 005c 1D69     		ldr	r5, [r3, #16]
 1289              	.LVL144:
 403:main.c        ****             SetFrequency();
 1290              		.loc 1 403 0
 1291 005e 9DF91720 		ldrsb	r2, [sp, #23]
 1292 0062 374B     		ldr	r3, .L102+24
 1293 0064 1B68     		ldr	r3, [r3]
 1294 0066 3748     		ldr	r0, .L102+28
ARM GAS  C:\Users\koseki\AppData\Local\Temp\ccT0XNG9.s 			page 43


 1295 0068 3749     		ldr	r1, .L102+32
 1296 006a 05FB0232 		mla	r2, r5, r2, r3
 1297 006e FFF7FEFF 		bl	sprintf
 1298              	.LVL145:
 404:main.c        ****         }
 1299              		.loc 1 404 0
 1300 0072 FFF7FEFF 		bl	SetFrequency
 1301              	.LVL146:
 1302              	.L92:
 406:main.c        ****         {
 1303              		.loc 1 406 0
 1304 0076 354B     		ldr	r3, .L102+36
 1305 0078 1868     		ldr	r0, [r3]
 1306 007a 0DF11601 		add	r1, sp, #22
 1307 007e 0022     		movs	r2, #0
 1308 0080 1346     		mov	r3, r2
 1309 0082 FFF7FEFF 		bl	xQueueGenericReceive
 1310              	.LVL147:
 1311 0086 68B1     		cbz	r0, .L93
 408:main.c        ****             if (Ch >= STATION_MAX)
 1312              		.loc 1 408 0
 1313 0088 294A     		ldr	r2, .L102+8
 1314 008a 1378     		ldrb	r3, [r2]	@ zero_extendqisi2
 1315 008c 0133     		adds	r3, r3, #1
 1316 008e DBB2     		uxtb	r3, r3
 1317 0090 1370     		strb	r3, [r2]
 409:main.c        ****                 Ch = 0;
 1318              		.loc 1 409 0
 1319 0092 062B     		cmp	r3, #6
 1320 0094 02D9     		bls	.L94
 410:main.c        ****             ChannelSet(Ch);
 1321              		.loc 1 410 0
 1322 0096 0022     		movs	r2, #0
 1323 0098 254B     		ldr	r3, .L102+8
 1324 009a 1A70     		strb	r2, [r3]
 1325              	.L94:
 411:main.c        ****         }
 1326              		.loc 1 411 0
 1327 009c 244B     		ldr	r3, .L102+8
 1328 009e 1878     		ldrb	r0, [r3]	@ zero_extendqisi2
 1329 00a0 FFF7FEFF 		bl	ChannelSet
 1330              	.LVL148:
 1331              	.L93:
 413:main.c        ****         {
 1332              		.loc 1 413 0
 1333 00a4 294B     		ldr	r3, .L102+36
 1334 00a6 5868     		ldr	r0, [r3, #4]
 1335 00a8 0DF11601 		add	r1, sp, #22
 1336 00ac 0022     		movs	r2, #0
 1337 00ae 1346     		mov	r3, r2
 1338 00b0 FFF7FEFF 		bl	xQueueGenericReceive
 1339              	.LVL149:
 1340 00b4 68B1     		cbz	r0, .L95
 415:main.c        ****                 Ch = STATION_MAX - 1;
 1341              		.loc 1 415 0
 1342 00b6 1E4B     		ldr	r3, .L102+8
 1343 00b8 1B78     		ldrb	r3, [r3]	@ zero_extendqisi2
ARM GAS  C:\Users\koseki\AppData\Local\Temp\ccT0XNG9.s 			page 44


 1344 00ba 1BB9     		cbnz	r3, .L96
 416:main.c        ****             else
 1345              		.loc 1 416 0
 1346 00bc 0622     		movs	r2, #6
 1347 00be 1C4B     		ldr	r3, .L102+8
 1348 00c0 1A70     		strb	r2, [r3]
 1349 00c2 02E0     		b	.L97
 1350              	.L96:
 418:main.c        ****             ChannelSet(Ch);
 1351              		.loc 1 418 0
 1352 00c4 013B     		subs	r3, r3, #1
 1353 00c6 1A4A     		ldr	r2, .L102+8
 1354 00c8 1370     		strb	r3, [r2]
 1355              	.L97:
 419:main.c        ****         }
 1356              		.loc 1 419 0
 1357 00ca 194B     		ldr	r3, .L102+8
 1358 00cc 1878     		ldrb	r0, [r3]	@ zero_extendqisi2
 1359 00ce FFF7FEFF 		bl	ChannelSet
 1360              	.LVL150:
 1361              	.L95:
 422:main.c        ****         if ((cnt & 0x07) == 0)
 1362              		.loc 1 422 0
 1363 00d2 013C     		subs	r4, r4, #1
 1364              	.LVL151:
 1365 00d4 E4B2     		uxtb	r4, r4
 1366              	.LVL152:
 423:main.c        ****             AgcIndicator += (64 - AgcGain);
 1367              		.loc 1 423 0
 1368 00d6 14F0070F 		tst	r4, #7
 1369 00da 06D1     		bne	.L98
 424:main.c        ****         if (cnt == 0)
 1370              		.loc 1 424 0
 1371 00dc 124A     		ldr	r2, .L102
 1372 00de 1C4B     		ldr	r3, .L102+40
 1373 00e0 1978     		ldrb	r1, [r3]	@ zero_extendqisi2
 1374 00e2 1368     		ldr	r3, [r2]
 1375 00e4 5B1A     		subs	r3, r3, r1
 1376 00e6 4033     		adds	r3, r3, #64
 1377 00e8 1360     		str	r3, [r2]
 1378              	.L98:
 425:main.c        ****         {
 1379              		.loc 1 425 0
 1380 00ea 8CB9     		cbnz	r4, .L99
 427:main.c        ****             I2C_CLCD_Position(1u, cAGC);
 1381              		.loc 1 427 0
 1382 00ec 0E4C     		ldr	r4, .L102
 1383              	.LVL153:
 1384 00ee 2268     		ldr	r2, [r4]
 1385 00f0 6846     		mov	r0, sp
 1386 00f2 1849     		ldr	r1, .L102+44
 1387 00f4 C2F38702 		ubfx	r2, r2, #2, #8
 1388 00f8 FFF7FEFF 		bl	sprintf
 1389              	.LVL154:
 428:main.c        ****             I2C_CLCD_PrintString(str);
 1390              		.loc 1 428 0
 1391 00fc 0120     		movs	r0, #1
ARM GAS  C:\Users\koseki\AppData\Local\Temp\ccT0XNG9.s 			page 45


 1392 00fe 0D21     		movs	r1, #13
 1393 0100 FFF7FEFF 		bl	I2C_CLCD_Position
 1394              	.LVL155:
 429:main.c        ****             cnt = 0x20;
 1395              		.loc 1 429 0
 1396 0104 6846     		mov	r0, sp
 1397 0106 FFF7FEFF 		bl	I2C_CLCD_PrintString
 1398              	.LVL156:
 431:main.c        ****         }
 1399              		.loc 1 431 0
 1400 010a 0023     		movs	r3, #0
 1401 010c 2360     		str	r3, [r4]
 430:main.c        ****             AgcIndicator = 0;
 1402              		.loc 1 430 0
 1403 010e 2024     		movs	r4, #32
 1404              	.LVL157:
 1405              	.L99:
 433:main.c        **** 
 1406              		.loc 1 433 0
 1407 0110 084B     		ldr	r3, .L102+12
 1408 0112 1868     		ldr	r0, [r3]
 1409 0114 0021     		movs	r1, #0
 1410 0116 0A46     		mov	r2, r1
 1411 0118 0B46     		mov	r3, r1
 1412 011a FFF7FEFF 		bl	xQueueGenericSend
 1413              	.LVL158:
 435:main.c        ****     }
 1414              		.loc 1 435 0
 1415 011e 6420     		movs	r0, #100
 1416 0120 FFF7FEFF 		bl	vTaskDelay
 1417              	.LVL159:
 436:main.c        **** }
 1418              		.loc 1 436 0
 1419 0124 7EE7     		b	.L100
 1420              	.L103:
 1421 0126 00BF     		.align	2
 1422              	.L102:
 1423 0128 00000000 		.word	AgcIndicator
 1424 012c 70000000 		.word	.LC14
 1425 0130 00000000 		.word	Ch
 1426 0134 00000000 		.word	xMutex_DDS
 1427 0138 00000000 		.word	xQueue_ROT
 1428 013c 00000000 		.word	.LANCHOR1
 1429 0140 00000000 		.word	Frequency
 1430 0144 00000000 		.word	Freq
 1431 0148 68000000 		.word	.LC13
 1432 014c 00000000 		.word	xQueue_KEY
 1433 0150 00000000 		.word	AgcGain
 1434 0154 74000000 		.word	.LC15
 1435              		.cfi_endproc
 1436              	.LFE70:
 1437              		.size	Task_CLCD, .-Task_CLCD
 1438              		.section	.text.Initialize,"ax",%progbits
 1439              		.align	2
 1440              		.global	Initialize
 1441              		.thumb
 1442              		.thumb_func
ARM GAS  C:\Users\koseki\AppData\Local\Temp\ccT0XNG9.s 			page 46


 1443              		.type	Initialize, %function
 1444              	Initialize:
 1445              	.LFB65:
 217:main.c        ****     uint32 i;
 1446              		.loc 1 217 0
 1447              		.cfi_startproc
 1448              		@ args = 0, pretend = 0, frame = 24
 1449              		@ frame_needed = 0, uses_anonymous_args = 0
 1450 0000 10B5     		push	{r4, lr}
 1451              		.cfi_def_cfa_offset 8
 1452              		.cfi_offset 4, -8
 1453              		.cfi_offset 14, -4
 1454 0002 86B0     		sub	sp, sp, #24
 1455              		.cfi_def_cfa_offset 32
 222:main.c        ****     
 1456              		.loc 1 222 0
 1457 0004 6420     		movs	r0, #100
 1458 0006 FFF7FEFF 		bl	CyDelay
 1459              	.LVL160:
 225:main.c        ****     I2C_1_Start();
 1460              		.loc 1 225 0
 1461 000a FFF7FEFF 		bl	SPIM_Start
 1462              	.LVL161:
 226:main.c        ****     I2C_CLCD_Start();
 1463              		.loc 1 226 0
 1464 000e FFF7FEFF 		bl	I2C_1_Start
 1465              	.LVL162:
 227:main.c        **** 
 1466              		.loc 1 227 0
 1467 0012 FFF7FEFF 		bl	I2C_CLCD_Start
 1468              	.LVL163:
 230:main.c        **** 	VDAC_1_Start ();					// start DAC output
 1469              		.loc 1 230 0
 1470 0016 FFF7FEFF 		bl	Comp_1_Start
 1471              	.LVL164:
 231:main.c        **** 
 1472              		.loc 1 231 0
 1473 001a FFF7FEFF 		bl	VDAC_1_Start
 1474              	.LVL165:
 236:main.c        **** 	VDAC_Start ();					// start DAC output
 1475              		.loc 1 236 0
 1476 001e FFF7FEFF 		bl	Filter_Start
 1477              	.LVL166:
 237:main.c        **** 	
 1478              		.loc 1 237 0
 1479 0022 FFF7FEFF 		bl	VDAC_Start
 1480              	.LVL167:
 239:main.c        **** 	ADC_IRQ_Enable ();
 1481              		.loc 1 239 0
 1482 0026 FFF7FEFF 		bl	ADC_Start
 1483              	.LVL168:
 240:main.c        ****     isr_adc_StartEx(ADC_ISR_Handler);
 1484              		.loc 1 240 0
 1485 002a FFF7FEFF 		bl	ADC_IRQ_Enable
 1486              	.LVL169:
 241:main.c        **** 	ADC_StartConvert ();			// start conversions
 1487              		.loc 1 241 0
ARM GAS  C:\Users\koseki\AppData\Local\Temp\ccT0XNG9.s 			page 47


 1488 002e 4248     		ldr	r0, .L112
 1489 0030 FFF7FEFF 		bl	isr_adc_StartEx
 1490              	.LVL170:
 242:main.c        ****     
 1491              		.loc 1 242 0
 1492 0034 FFF7FEFF 		bl	ADC_StartConvert
 1493              	.LVL171:
 244:main.c        **** 
 1494              		.loc 1 244 0
 1495 0038 6420     		movs	r0, #100
 1496 003a FFF7FEFF 		bl	CyDelay
 1497              	.LVL172:
 246:main.c        ****     I2C_CLCD_ClearLine(1u);
 1498              		.loc 1 246 0
 1499 003e 0020     		movs	r0, #0
 1500 0040 FFF7FEFF 		bl	I2C_CLCD_ClearLine
 1501              	.LVL173:
 247:main.c        **** 	
 1502              		.loc 1 247 0
 1503 0044 0120     		movs	r0, #1
 1504 0046 FFF7FEFF 		bl	I2C_CLCD_ClearLine
 1505              	.LVL174:
 250:main.c        **** 	SetMode (MODE_USB);
 1506              		.loc 1 250 0
 1507 004a 0120     		movs	r0, #1
 1508 004c 3B4B     		ldr	r3, .L112+4
 1509 004e 1870     		strb	r0, [r3]
 251:main.c        **** 	IDCOffset = QDCOffset = 0x500;	// preset offset for better settling time
 1510              		.loc 1 251 0
 1511 0050 FFF7FEFF 		bl	SetMode
 1512              	.LVL175:
 252:main.c        ****     AgcTimeConstant = 4;            // Default AGC Time constant
 1513              		.loc 1 252 0
 1514 0054 4FF4A063 		mov	r3, #1280
 1515 0058 394A     		ldr	r2, .L112+8
 1516 005a 1380     		strh	r3, [r2]	@ movhi
 1517 005c 394A     		ldr	r2, .L112+12
 1518 005e 1380     		strh	r3, [r2]	@ movhi
 253:main.c        **** 
 1519              		.loc 1 253 0
 1520 0060 0422     		movs	r2, #4
 1521 0062 394B     		ldr	r3, .L112+16
 1522 0064 1A70     		strb	r2, [r3]
 256:main.c        ****     SPIM_WriteTxData(w[1]);
 1523              		.loc 1 256 0
 1524 0066 0020     		movs	r0, #0
 1525 0068 FFF7FEFF 		bl	SPIM_WriteTxData
 1526              	.LVL176:
 257:main.c        ****     SPIM_WriteTxData(w[2]);
 1527              		.loc 1 257 0
 1528 006c 0020     		movs	r0, #0
 1529 006e FFF7FEFF 		bl	SPIM_WriteTxData
 1530              	.LVL177:
 258:main.c        ****     SPIM_WriteTxData(w[3]);
 1531              		.loc 1 258 0
 1532 0072 0020     		movs	r0, #0
 1533 0074 FFF7FEFF 		bl	SPIM_WriteTxData
ARM GAS  C:\Users\koseki\AppData\Local\Temp\ccT0XNG9.s 			page 48


 1534              	.LVL178:
 259:main.c        ****     SPIM_WriteTxData(w[4]);
 1535              		.loc 1 259 0
 1536 0078 0020     		movs	r0, #0
 1537 007a FFF7FEFF 		bl	SPIM_WriteTxData
 1538              	.LVL179:
 260:main.c        **** 
 1539              		.loc 1 260 0
 1540 007e 0020     		movs	r0, #0
 1541 0080 FFF7FEFF 		bl	SPIM_WriteTxData
 1542              	.LVL180:
 262:main.c        **** 
 1543              		.loc 1 262 0
 1544 0084 FFF7FEFF 		bl	EEPROM_Start
 1545              	.LVL181:
 264:main.c        ****     
 1546              		.loc 1 264 0
 1547 0088 6420     		movs	r0, #100
 1548 008a FFF7FEFF 		bl	CyDelay
 1549              	.LVL182:
 267:main.c        ****         SERIAL_NUM[i] = pSERIAL_NUM[i];
 1550              		.loc 1 267 0
 1551 008e 0023     		movs	r3, #0
 1552 0090 06E0     		b	.L105
 1553              	.LVL183:
 1554              	.L106:
 268:main.c        **** 
 1555              		.loc 1 268 0 discriminator 3
 1556 0092 2E4A     		ldr	r2, .L112+20
 1557 0094 D2F8A820 		ldr	r2, [r2, #168]
 1558 0098 D15C     		ldrb	r1, [r2, r3]	@ zero_extendqisi2
 1559 009a 2D4A     		ldr	r2, .L112+24
 1560 009c D154     		strb	r1, [r2, r3]
 267:main.c        ****         SERIAL_NUM[i] = pSERIAL_NUM[i];
 1561              		.loc 1 267 0 discriminator 3
 1562 009e 0133     		adds	r3, r3, #1
 1563              	.LVL184:
 1564              	.L105:
 267:main.c        ****         SERIAL_NUM[i] = pSERIAL_NUM[i];
 1565              		.loc 1 267 0 is_stmt 0 discriminator 1
 1566 00a0 072B     		cmp	r3, #7
 1567 00a2 F6D9     		bls	.L106
 270:main.c        **** 	{
 1568              		.loc 1 270 0 is_stmt 1
 1569 00a4 2A4B     		ldr	r3, .L112+24
 1570              	.LVL185:
 1571 00a6 1B78     		ldrb	r3, [r3]	@ zero_extendqisi2
 1572 00a8 302B     		cmp	r3, #48
 1573 00aa 09D0     		beq	.L107
 272:main.c        **** 		EEPROM_Write ((uint8*)"00000000", SN_ROW);	// write and wait for completion
 1574              		.loc 1 272 0
 1575 00ac FFF7FEFF 		bl	CySetTemp
 1576              	.LVL186:
 273:main.c        ****         // AD9850_DDS
 1577              		.loc 1 273 0
 1578 00b0 2848     		ldr	r0, .L112+28
 1579 00b2 0021     		movs	r1, #0
ARM GAS  C:\Users\koseki\AppData\Local\Temp\ccT0XNG9.s 			page 49


 1580 00b4 FFF7FEFF 		bl	EEPROM_Write
 1581              	.LVL187:
 275:main.c        **** 	}
 1582              		.loc 1 275 0
 1583 00b8 2748     		ldr	r0, .L112+32
 1584 00ba 0121     		movs	r1, #1
 1585 00bc FFF7FEFF 		bl	EEPROM_Write
 1586              	.LVL188:
 1587              	.L107:
 278:main.c        **** 	//memcpy (Freq, FREQ_PLL_TEST, 8);// initialize the clock generator output frequency
 1588              		.loc 1 278 0
 1589 00c0 0024     		movs	r4, #0
 1590 00c2 264B     		ldr	r3, .L112+36
 1591 00c4 1C60     		str	r4, [r3]
 282:main.c        **** 	CYGlobalIntEnable;
 1592              		.loc 1 282 0
 1593 00c6 C820     		movs	r0, #200
 1594 00c8 FFF7FEFF 		bl	CyDelay
 1595              	.LVL189:
 283:main.c        **** 	
 1596              		.loc 1 283 0
 1597              	@ 283 "main.c" 1
 1598 00cc 62B6     		CPSIE   i
 1599              	@ 0 "" 2
 1600              	.LVL190:
 286:main.c        ****         FREQ_ERROR[i] = pFREQ_ERROR[i];
 1601              		.loc 1 286 0
 1602              		.thumb
 1603 00ce 2346     		mov	r3, r4
 1604 00d0 06E0     		b	.L108
 1605              	.LVL191:
 1606              	.L109:
 287:main.c        ****         
 1607              		.loc 1 287 0 discriminator 3
 1608 00d2 1E4A     		ldr	r2, .L112+20
 1609 00d4 D2F8AC20 		ldr	r2, [r2, #172]
 1610 00d8 D15C     		ldrb	r1, [r2, r3]	@ zero_extendqisi2
 1611 00da 214A     		ldr	r2, .L112+40
 1612 00dc D154     		strb	r1, [r2, r3]
 286:main.c        ****         FREQ_ERROR[i] = pFREQ_ERROR[i];
 1613              		.loc 1 286 0 discriminator 3
 1614 00de 0133     		adds	r3, r3, #1
 1615              	.LVL192:
 1616              	.L108:
 286:main.c        ****         FREQ_ERROR[i] = pFREQ_ERROR[i];
 1617              		.loc 1 286 0 is_stmt 0 discriminator 1
 1618 00e0 072B     		cmp	r3, #7
 1619 00e2 F6D9     		bls	.L109
 290:main.c        ****     if ((FrequencyError > 1000) || (FrequencyError < -1000))	// bounds checking
 1620              		.loc 1 290 0 is_stmt 1
 1621 00e4 1E48     		ldr	r0, .L112+40
 1622 00e6 FFF7FEFF 		bl	BinaryFrequency
 1623              	.LVL193:
 1624 00ea 1E4B     		ldr	r3, .L112+44
 1625 00ec 1B1A     		subs	r3, r3, r0
 1626 00ee 1B4A     		ldr	r2, .L112+36
 1627 00f0 1360     		str	r3, [r2]
ARM GAS  C:\Users\koseki\AppData\Local\Temp\ccT0XNG9.s 			page 50


 291:main.c        **** 		FrequencyError = 0;
 1628              		.loc 1 291 0
 1629 00f2 03F57A73 		add	r3, r3, #1000
 1630 00f6 B3F5FA6F 		cmp	r3, #2000
 1631 00fa 02D9     		bls	.L110
 292:main.c        **** 	memcpy (Freq, FREQ_START, 8);			// initialize the clock generator output frequency
 1632              		.loc 1 292 0
 1633 00fc 0022     		movs	r2, #0
 1634 00fe 174B     		ldr	r3, .L112+36
 1635 0100 1A60     		str	r2, [r3]
 1636              	.L110:
 293:main.c        **** 	SetFrequency ();
 1637              		.loc 1 293 0
 1638 0102 194A     		ldr	r2, .L112+48
 1639 0104 194B     		ldr	r3, .L112+52
 1640 0106 03CB     		ldmia	r3!, {r0, r1}
 1641 0108 1060     		str	r0, [r2]	@ unaligned
 1642 010a 5160     		str	r1, [r2, #4]	@ unaligned
 294:main.c        **** 
 1643              		.loc 1 294 0
 1644 010c FFF7FEFF 		bl	SetFrequency
 1645              	.LVL194:
 297:main.c        ****     I2C_CLCD_Position(0u, 0u);
 1646              		.loc 1 297 0
 1647 0110 174B     		ldr	r3, .L112+56
 1648 0112 1B78     		ldrb	r3, [r3]	@ zero_extendqisi2
 1649 0114 03EB4303 		add	r3, r3, r3, lsl #1
 1650 0118 DB00     		lsls	r3, r3, #3
 1651 011a 01A8     		add	r0, sp, #4
 1652 011c 1549     		ldr	r1, .L112+60
 1653 011e 0B4A     		ldr	r2, .L112+20
 1654 0120 1A44     		add	r2, r2, r3
 1655 0122 FFF7FEFF 		bl	sprintf
 1656              	.LVL195:
 298:main.c        ****     I2C_CLCD_PrintString(str);
 1657              		.loc 1 298 0
 1658 0126 0020     		movs	r0, #0
 1659 0128 0146     		mov	r1, r0
 1660 012a FFF7FEFF 		bl	I2C_CLCD_Position
 1661              	.LVL196:
 299:main.c        **** }
 1662              		.loc 1 299 0
 1663 012e 01A8     		add	r0, sp, #4
 1664 0130 FFF7FEFF 		bl	I2C_CLCD_PrintString
 1665              	.LVL197:
 300:main.c        **** 
 1666              		.loc 1 300 0
 1667 0134 06B0     		add	sp, sp, #24
 1668              		.cfi_def_cfa_offset 8
 1669              		@ sp needed
 1670 0136 10BD     		pop	{r4, pc}
 1671              	.L113:
 1672              		.align	2
 1673              	.L112:
 1674 0138 00000000 		.word	ADC_ISR_Handler
 1675 013c 00000000 		.word	Filter
 1676 0140 00000000 		.word	QDCOffset
ARM GAS  C:\Users\koseki\AppData\Local\Temp\ccT0XNG9.s 			page 51


 1677 0144 00000000 		.word	IDCOffset
 1678 0148 00000000 		.word	AgcTimeConstant
 1679 014c 00000000 		.word	.LANCHOR1
 1680 0150 00000000 		.word	SERIAL_NUM
 1681 0154 7C000000 		.word	.LC16
 1682 0158 88000000 		.word	.LC17
 1683 015c 00000000 		.word	FrequencyError
 1684 0160 00000000 		.word	FREQ_ERROR
 1685 0164 404B4C00 		.word	5000000
 1686 0168 00000000 		.word	Freq
 1687 016c 90000000 		.word	.LC18
 1688 0170 00000000 		.word	Ch
 1689 0174 9C000000 		.word	.LC19
 1690              		.cfi_endproc
 1691              	.LFE65:
 1692              		.size	Initialize, .-Initialize
 1693              		.section	.text.main,"ax",%progbits
 1694              		.align	2
 1695              		.global	main
 1696              		.thumb
 1697              		.thumb_func
 1698              		.type	main, %function
 1699              	main:
 1700              	.LFB64:
 181:main.c        ****     prvHardwareSetup();
 1701              		.loc 1 181 0
 1702              		.cfi_startproc
 1703              		@ Volatile: function does not return.
 1704              		@ args = 0, pretend = 0, frame = 0
 1705              		@ frame_needed = 0, uses_anonymous_args = 0
 1706 0000 00B5     		push	{lr}
 1707              		.cfi_def_cfa_offset 4
 1708              		.cfi_offset 14, -4
 1709 0002 85B0     		sub	sp, sp, #20
 1710              		.cfi_def_cfa_offset 24
 182:main.c        **** 
 1711              		.loc 1 182 0
 1712 0004 FFF7FEFF 		bl	prvHardwareSetup
 1713              	.LVL198:
 184:main.c        **** 
 1714              		.loc 1 184 0
 1715 0008 FFF7FEFF 		bl	Initialize
 1716              	.LVL199:
 187:main.c        ****     xQueue_ROT    = xQueueCreate(8, 1);     // 8 x 1byte
 1717              		.loc 1 187 0
 1718 000c 0120     		movs	r0, #1
 1719 000e FFF7FEFF 		bl	xQueueCreateMutex
 1720              	.LVL200:
 1721 0012 334B     		ldr	r3, .L117
 1722 0014 1860     		str	r0, [r3]
 188:main.c        ****     xQueue_KEY[0] = xQueueCreate(1, 1);     // 1 x 1byte
 1723              		.loc 1 188 0
 1724 0016 0820     		movs	r0, #8
 1725 0018 0121     		movs	r1, #1
 1726 001a 0022     		movs	r2, #0
 1727 001c FFF7FEFF 		bl	xQueueGenericCreate
 1728              	.LVL201:
ARM GAS  C:\Users\koseki\AppData\Local\Temp\ccT0XNG9.s 			page 52


 1729 0020 304B     		ldr	r3, .L117+4
 1730 0022 1860     		str	r0, [r3]
 189:main.c        ****     xQueue_KEY[1] = xQueueCreate(1, 1);     // 1 x 1byte
 1731              		.loc 1 189 0
 1732 0024 0120     		movs	r0, #1
 1733 0026 0146     		mov	r1, r0
 1734 0028 0022     		movs	r2, #0
 1735 002a FFF7FEFF 		bl	xQueueGenericCreate
 1736              	.LVL202:
 1737 002e 2E4C     		ldr	r4, .L117+8
 1738 0030 2060     		str	r0, [r4]
 190:main.c        ****     xQueue_FREQ  = xQueueCreate(1, 1);      // 1 x 1bytes
 1739              		.loc 1 190 0
 1740 0032 0120     		movs	r0, #1
 1741 0034 0146     		mov	r1, r0
 1742 0036 0022     		movs	r2, #0
 1743 0038 FFF7FEFF 		bl	xQueueGenericCreate
 1744              	.LVL203:
 1745 003c 6060     		str	r0, [r4, #4]
 191:main.c        **** 
 1746              		.loc 1 191 0
 1747 003e 0120     		movs	r0, #1
 1748 0040 0146     		mov	r1, r0
 1749 0042 0022     		movs	r2, #0
 1750 0044 FFF7FEFF 		bl	xQueueGenericCreate
 1751              	.LVL204:
 1752 0048 284B     		ldr	r3, .L117+12
 1753 004a 1860     		str	r0, [r3]
 193:main.c        **** 
 1754              		.loc 1 193 0
 1755 004c 4FF47A70 		mov	r0, #1000
 1756 0050 FFF7FEFF 		bl	CyDelay
 1757              	.LVL205:
 195:main.c        ****     xTaskCreate(Task_ROT, "ROT", TASK_STACK_ROT, NULL, TASK_PRIORITY_ROT, NULL);
 1758              		.loc 1 195 0
 1759 0054 0325     		movs	r5, #3
 1760 0056 0095     		str	r5, [sp]
 1761 0058 0024     		movs	r4, #0
 1762 005a 0194     		str	r4, [sp, #4]
 1763 005c 0294     		str	r4, [sp, #8]
 1764 005e 0394     		str	r4, [sp, #12]
 1765 0060 2348     		ldr	r0, .L117+16
 1766 0062 2449     		ldr	r1, .L117+20
 1767 0064 8022     		movs	r2, #128
 1768 0066 2346     		mov	r3, r4
 1769 0068 FFF7FEFF 		bl	xTaskGenericCreate
 1770              	.LVL206:
 196:main.c        ****     xTaskCreate(Task_KEY, "KEY", TASK_STACK_KEY, NULL, TASK_PRIORITY_KEY, NULL);
 1771              		.loc 1 196 0
 1772 006c 0095     		str	r5, [sp]
 1773 006e 0194     		str	r4, [sp, #4]
 1774 0070 0294     		str	r4, [sp, #8]
 1775 0072 0394     		str	r4, [sp, #12]
 1776 0074 2048     		ldr	r0, .L117+24
 1777 0076 2149     		ldr	r1, .L117+28
 1778 0078 8022     		movs	r2, #128
 1779 007a 2346     		mov	r3, r4
ARM GAS  C:\Users\koseki\AppData\Local\Temp\ccT0XNG9.s 			page 53


 1780 007c FFF7FEFF 		bl	xTaskGenericCreate
 1781              	.LVL207:
 197:main.c        ****     xTaskCreate(Task_CLCD, "CLCD", TASK_STACK_CLCD, NULL, TASK_PRIORITY_CLCD, NULL);
 1782              		.loc 1 197 0
 1783 0080 0095     		str	r5, [sp]
 1784 0082 0194     		str	r4, [sp, #4]
 1785 0084 0294     		str	r4, [sp, #8]
 1786 0086 0394     		str	r4, [sp, #12]
 1787 0088 1D48     		ldr	r0, .L117+32
 1788 008a 1E49     		ldr	r1, .L117+36
 1789 008c 8022     		movs	r2, #128
 1790 008e 2346     		mov	r3, r4
 1791 0090 FFF7FEFF 		bl	xTaskGenericCreate
 1792              	.LVL208:
 198:main.c        ****     xTaskCreate(Task_USBUART, "USBUART", TASK_STACK_USBUART, NULL, TASK_PRIORITY_USBUART, NULL);
 1793              		.loc 1 198 0
 1794 0094 0225     		movs	r5, #2
 1795 0096 0095     		str	r5, [sp]
 1796 0098 0194     		str	r4, [sp, #4]
 1797 009a 0294     		str	r4, [sp, #8]
 1798 009c 0394     		str	r4, [sp, #12]
 1799 009e 1A48     		ldr	r0, .L117+40
 1800 00a0 1A49     		ldr	r1, .L117+44
 1801 00a2 4FF40072 		mov	r2, #512
 1802 00a6 2346     		mov	r3, r4
 1803 00a8 FFF7FEFF 		bl	xTaskGenericCreate
 1804              	.LVL209:
 199:main.c        ****     xTaskCreate(Task_RADIO, "RADIO", TASK_STACK_RADIO, NULL, TASK_PRIORITY_RADIO, NULL);
 1805              		.loc 1 199 0
 1806 00ac 0095     		str	r5, [sp]
 1807 00ae 0194     		str	r4, [sp, #4]
 1808 00b0 0294     		str	r4, [sp, #8]
 1809 00b2 0394     		str	r4, [sp, #12]
 1810 00b4 1648     		ldr	r0, .L117+48
 1811 00b6 1749     		ldr	r1, .L117+52
 1812 00b8 4FF40072 		mov	r2, #512
 1813 00bc 2346     		mov	r3, r4
 1814 00be FFF7FEFF 		bl	xTaskGenericCreate
 1815              	.LVL210:
 200:main.c        **** 
 1816              		.loc 1 200 0
 1817 00c2 0095     		str	r5, [sp]
 1818 00c4 0194     		str	r4, [sp, #4]
 1819 00c6 0294     		str	r4, [sp, #8]
 1820 00c8 0394     		str	r4, [sp, #12]
 1821 00ca 1348     		ldr	r0, .L117+56
 1822 00cc 1349     		ldr	r1, .L117+60
 1823 00ce 4FF40072 		mov	r2, #512
 1824 00d2 2346     		mov	r3, r4
 1825 00d4 FFF7FEFF 		bl	xTaskGenericCreate
 1826              	.LVL211:
 203:main.c        ****     
 1827              		.loc 1 203 0
 1828 00d8 FFF7FEFF 		bl	vTaskStartScheduler
 1829              	.LVL212:
 1830              	.L115:
 208:main.c        **** }
ARM GAS  C:\Users\koseki\AppData\Local\Temp\ccT0XNG9.s 			page 54


 1831              		.loc 1 208 0 discriminator 1
 1832 00dc FEE7     		b	.L115
 1833              	.L118:
 1834 00de 00BF     		.align	2
 1835              	.L117:
 1836 00e0 00000000 		.word	xMutex_DDS
 1837 00e4 00000000 		.word	xQueue_ROT
 1838 00e8 00000000 		.word	xQueue_KEY
 1839 00ec 00000000 		.word	xQueue_FREQ
 1840 00f0 00000000 		.word	Task_LED
 1841 00f4 A0000000 		.word	.LC20
 1842 00f8 00000000 		.word	Task_ROT
 1843 00fc A4000000 		.word	.LC21
 1844 0100 00000000 		.word	Task_KEY
 1845 0104 A8000000 		.word	.LC22
 1846 0108 00000000 		.word	Task_CLCD
 1847 010c AC000000 		.word	.LC23
 1848 0110 00000000 		.word	Task_USBUART
 1849 0114 B4000000 		.word	.LC24
 1850 0118 00000000 		.word	Task_RADIO
 1851 011c BC000000 		.word	.LC25
 1852              		.cfi_endproc
 1853              	.LFE64:
 1854              		.size	main, .-main
 1855              		.section	.text.FactorySetup,"ax",%progbits
 1856              		.align	2
 1857              		.global	FactorySetup
 1858              		.thumb
 1859              		.thumb_func
 1860              		.type	FactorySetup, %function
 1861              	FactorySetup:
 1862              	.LFB78:
 766:main.c        **** 	uint8 sendUsb = FALSE;
 1863              		.loc 1 766 0
 1864              		.cfi_startproc
 1865              		@ args = 0, pretend = 0, frame = 0
 1866              		@ frame_needed = 0, uses_anonymous_args = 0
 1867 0000 08B5     		push	{r3, lr}
 1868              		.cfi_def_cfa_offset 8
 1869              		.cfi_offset 3, -8
 1870              		.cfi_offset 14, -4
 1871              	.LVL213:
 770:main.c        **** 	{
 1872              		.loc 1 770 0
 1873 0002 554B     		ldr	r3, .L138
 1874 0004 9B78     		ldrb	r3, [r3, #2]	@ zero_extendqisi2
 1875 0006 3F3B     		subs	r3, r3, #63
 1876 0008 2F2B     		cmp	r3, #47
 1877 000a 00F29380 		bhi	.L135
 1878 000e DFE803F0 		tbb	[pc, r3]
 1879              	.L122:
 1880 0012 72       		.byte	(.L121-.L122)/2
 1881 0013 91       		.byte	(.L135-.L122)/2
 1882 0014 91       		.byte	(.L135-.L122)/2
 1883 0015 91       		.byte	(.L135-.L122)/2
 1884 0016 91       		.byte	(.L135-.L122)/2
 1885 0017 91       		.byte	(.L135-.L122)/2
ARM GAS  C:\Users\koseki\AppData\Local\Temp\ccT0XNG9.s 			page 55


 1886 0018 91       		.byte	(.L135-.L122)/2
 1887 0019 91       		.byte	(.L135-.L122)/2
 1888 001a 91       		.byte	(.L135-.L122)/2
 1889 001b 91       		.byte	(.L135-.L122)/2
 1890 001c 91       		.byte	(.L135-.L122)/2
 1891 001d 91       		.byte	(.L135-.L122)/2
 1892 001e 91       		.byte	(.L135-.L122)/2
 1893 001f 91       		.byte	(.L135-.L122)/2
 1894 0020 91       		.byte	(.L135-.L122)/2
 1895 0021 91       		.byte	(.L135-.L122)/2
 1896 0022 91       		.byte	(.L135-.L122)/2
 1897 0023 91       		.byte	(.L135-.L122)/2
 1898 0024 91       		.byte	(.L135-.L122)/2
 1899 0025 91       		.byte	(.L135-.L122)/2
 1900 0026 91       		.byte	(.L135-.L122)/2
 1901 0027 91       		.byte	(.L135-.L122)/2
 1902 0028 91       		.byte	(.L135-.L122)/2
 1903 0029 91       		.byte	(.L135-.L122)/2
 1904 002a 91       		.byte	(.L135-.L122)/2
 1905 002b 91       		.byte	(.L135-.L122)/2
 1906 002c 91       		.byte	(.L135-.L122)/2
 1907 002d 91       		.byte	(.L135-.L122)/2
 1908 002e 91       		.byte	(.L135-.L122)/2
 1909 002f 91       		.byte	(.L135-.L122)/2
 1910 0030 91       		.byte	(.L135-.L122)/2
 1911 0031 91       		.byte	(.L135-.L122)/2
 1912 0032 91       		.byte	(.L135-.L122)/2
 1913 0033 91       		.byte	(.L135-.L122)/2
 1914 0034 91       		.byte	(.L135-.L122)/2
 1915 0035 91       		.byte	(.L135-.L122)/2
 1916 0036 18       		.byte	(.L123-.L122)/2
 1917 0037 30       		.byte	(.L124-.L122)/2
 1918 0038 91       		.byte	(.L135-.L122)/2
 1919 0039 49       		.byte	(.L125-.L122)/2
 1920 003a 91       		.byte	(.L135-.L122)/2
 1921 003b 91       		.byte	(.L135-.L122)/2
 1922 003c 91       		.byte	(.L135-.L122)/2
 1923 003d 91       		.byte	(.L135-.L122)/2
 1924 003e 91       		.byte	(.L135-.L122)/2
 1925 003f 91       		.byte	(.L135-.L122)/2
 1926 0040 91       		.byte	(.L135-.L122)/2
 1927 0041 3C       		.byte	(.L126-.L122)/2
 1928              		.p2align 1
 1929              	.L123:
 777:main.c        ****             // AD9850_DDS
 1930              		.loc 1 777 0
 1931 0042 464A     		ldr	r2, .L138+4
 1932 0044 464B     		ldr	r3, .L138+8
 1933 0046 03CB     		ldmia	r3!, {r0, r1}
 1934 0048 1060     		str	r0, [r2]	@ unaligned
 1935 004a 5160     		str	r1, [r2, #4]	@ unaligned
 779:main.c        **** 			FrequencyError = 0;
 1936              		.loc 1 779 0
 1937 004c 454A     		ldr	r2, .L138+12
 1938 004e 464B     		ldr	r3, .L138+16
 1939 0050 03CB     		ldmia	r3!, {r0, r1}
 1940 0052 1060     		str	r0, [r2]	@ unaligned
ARM GAS  C:\Users\koseki\AppData\Local\Temp\ccT0XNG9.s 			page 56


 1941 0054 5160     		str	r1, [r2, #4]	@ unaligned
 780:main.c        **** 			SetFrequency ();
 1942              		.loc 1 780 0
 1943 0056 0022     		movs	r2, #0
 1944 0058 444B     		ldr	r3, .L138+20
 1945 005a 1A60     		str	r2, [r3]
 781:main.c        **** 			memcpy (UsbTxBuffer, "Calibrate", 9);
 1946              		.loc 1 781 0
 1947 005c FFF7FEFF 		bl	SetFrequency
 1948              	.LVL214:
 782:main.c        **** 			sendUsb = 9;
 1949              		.loc 1 782 0
 1950 0060 434A     		ldr	r2, .L138+24
 1951 0062 444B     		ldr	r3, .L138+28
 1952 0064 03CB     		ldmia	r3!, {r0, r1}
 1953 0066 1060     		str	r0, [r2]	@ unaligned
 1954 0068 5160     		str	r1, [r2, #4]	@ unaligned
 1955 006a 1B78     		ldrb	r3, [r3]	@ zero_extendqisi2
 1956 006c 1372     		strb	r3, [r2, #8]
 1957              	.LVL215:
 783:main.c        **** 			break;
 1958              		.loc 1 783 0
 1959 006e 0923     		movs	r3, #9
 784:main.c        **** 			
 1960              		.loc 1 784 0
 1961 0070 63E0     		b	.L120
 1962              	.LVL216:
 1963              	.L124:
 787:main.c        **** 			memcpy (UsbTxBuffer, "Debug Mode", 10);
 1964              		.loc 1 787 0
 1965 0072 0122     		movs	r2, #1
 1966 0074 404B     		ldr	r3, .L138+32
 1967 0076 1A70     		strb	r2, [r3]
 788:main.c        **** 			sendUsb = 10;
 1968              		.loc 1 788 0
 1969 0078 3D4A     		ldr	r2, .L138+24
 1970 007a 404B     		ldr	r3, .L138+36
 1971 007c 03CB     		ldmia	r3!, {r0, r1}
 1972 007e 1060     		str	r0, [r2]	@ unaligned
 1973 0080 5160     		str	r1, [r2, #4]	@ unaligned
 1974 0082 1B88     		ldrh	r3, [r3]	@ unaligned
 1975 0084 1381     		strh	r3, [r2, #8]	@ unaligned
 1976              	.LVL217:
 789:main.c        **** 			break;
 1977              		.loc 1 789 0
 1978 0086 0A23     		movs	r3, #10
 790:main.c        **** 			
 1979              		.loc 1 790 0
 1980 0088 57E0     		b	.L120
 1981              	.LVL218:
 1982              	.L126:
 793:main.c        **** 			if (EEPROM_Write (&ComRxCmd [3], SN_ROW) == CYRET_SUCCESS)
 1983              		.loc 1 793 0
 1984 008a FFF7FEFF 		bl	CySetTemp
 1985              	.LVL219:
 794:main.c        **** 				LedTimer = LED_BLINK;	// if successful write, blink the LED
 1986              		.loc 1 794 0
ARM GAS  C:\Users\koseki\AppData\Local\Temp\ccT0XNG9.s 			page 57


 1987 008e 3C48     		ldr	r0, .L138+40
 1988 0090 0021     		movs	r1, #0
 1989 0092 FFF7FEFF 		bl	EEPROM_Write
 1990              	.LVL220:
 1991 0096 0028     		cmp	r0, #0
 1992 0098 4ED1     		bne	.L136
 795:main.c        **** 			break;
 1993              		.loc 1 795 0
 1994 009a 1922     		movs	r2, #25
 1995 009c 394B     		ldr	r3, .L138+44
 1996 009e 1A70     		strb	r2, [r3]
 767:main.c        ****     uint8 i;
 1997              		.loc 1 767 0
 1998 00a0 0023     		movs	r3, #0
 1999 00a2 4AE0     		b	.L120
 2000              	.L125:
 799:main.c        **** 			if (EEPROM_Write (&ComRxCmd [3], FQ_ROW) == CYRET_SUCCESS)
 2001              		.loc 1 799 0
 2002 00a4 FFF7FEFF 		bl	CySetTemp
 2003              	.LVL221:
 800:main.c        **** 			{
 2004              		.loc 1 800 0
 2005 00a8 3548     		ldr	r0, .L138+40
 2006 00aa 0121     		movs	r1, #1
 2007 00ac FFF7FEFF 		bl	EEPROM_Write
 2008              	.LVL222:
 2009 00b0 08BB     		cbnz	r0, .L121
 802:main.c        **** 				memcpy (LastFreq, "12345678", 8);	// force frequency change
 2010              		.loc 1 802 0
 2011 00b2 1922     		movs	r2, #25
 2012 00b4 334B     		ldr	r3, .L138+44
 2013 00b6 1A70     		strb	r2, [r3]
 803:main.c        ****                 //AD9850_DDS
 2014              		.loc 1 803 0
 2015 00b8 284A     		ldr	r2, .L138+4
 2016 00ba 294B     		ldr	r3, .L138+8
 2017 00bc 03CB     		ldmia	r3!, {r0, r1}
 2018 00be 1060     		str	r0, [r2]	@ unaligned
 2019 00c0 5160     		str	r1, [r2, #4]	@ unaligned
 805:main.c        ****                 // PSoC3 => PSoC5LP
 2020              		.loc 1 805 0
 2021 00c2 284A     		ldr	r2, .L138+12
 2022 00c4 284B     		ldr	r3, .L138+16
 2023 00c6 03CB     		ldmia	r3!, {r0, r1}
 2024 00c8 1060     		str	r0, [r2]	@ unaligned
 2025 00ca 5160     		str	r1, [r2, #4]	@ unaligned
 2026              	.LVL223:
 807:main.c        ****                     FREQ_ERROR[i] = pFREQ_ERROR[i];
 2027              		.loc 1 807 0
 2028 00cc 0023     		movs	r3, #0
 2029 00ce 07E0     		b	.L127
 2030              	.LVL224:
 2031              	.L128:
 808:main.c        ****                 // AD9850_DDS
 2032              		.loc 1 808 0 discriminator 3
 2033 00d0 2D4A     		ldr	r2, .L138+48
 2034 00d2 D2F8AC20 		ldr	r2, [r2, #172]
ARM GAS  C:\Users\koseki\AppData\Local\Temp\ccT0XNG9.s 			page 58


 2035 00d6 D15C     		ldrb	r1, [r2, r3]	@ zero_extendqisi2
 2036 00d8 2C4A     		ldr	r2, .L138+52
 2037 00da D154     		strb	r1, [r2, r3]
 807:main.c        ****                     FREQ_ERROR[i] = pFREQ_ERROR[i];
 2038              		.loc 1 807 0 discriminator 3
 2039 00dc 0133     		adds	r3, r3, #1
 2040              	.LVL225:
 2041 00de DBB2     		uxtb	r3, r3
 2042              	.LVL226:
 2043              	.L127:
 807:main.c        ****                     FREQ_ERROR[i] = pFREQ_ERROR[i];
 2044              		.loc 1 807 0 is_stmt 0 discriminator 1
 2045 00e0 072B     		cmp	r3, #7
 2046 00e2 F5D9     		bls	.L128
 810:main.c        **** 				SetFrequency ();
 2047              		.loc 1 810 0 is_stmt 1
 2048 00e4 2948     		ldr	r0, .L138+52
 2049 00e6 FFF7FEFF 		bl	BinaryFrequency
 2050              	.LVL227:
 2051 00ea 294B     		ldr	r3, .L138+56
 2052 00ec 1B1A     		subs	r3, r3, r0
 2053 00ee 1F4A     		ldr	r2, .L138+20
 2054 00f0 1360     		str	r3, [r2]
 811:main.c        **** 			}
 2055              		.loc 1 811 0
 2056 00f2 FFF7FEFF 		bl	SetFrequency
 2057              	.LVL228:
 2058              	.L121:
 807:main.c        ****                     FREQ_ERROR[i] = pFREQ_ERROR[i];
 2059              		.loc 1 807 0 discriminator 1
 2060 00f6 0023     		movs	r3, #0
 2061 00f8 07E0     		b	.L129
 2062              	.LVL229:
 2063              	.L130:
 819:main.c        **** 			UsbTxBuffer [8] = ' ';
 2064              		.loc 1 819 0 discriminator 3
 2065 00fa 234A     		ldr	r2, .L138+48
 2066 00fc D2F8A820 		ldr	r2, [r2, #168]
 2067 0100 D15C     		ldrb	r1, [r2, r3]	@ zero_extendqisi2
 2068 0102 1B4A     		ldr	r2, .L138+24
 2069 0104 D154     		strb	r1, [r2, r3]
 818:main.c        ****                 UsbTxBuffer[i] = pSERIAL_NUM[i];
 2070              		.loc 1 818 0 discriminator 3
 2071 0106 0133     		adds	r3, r3, #1
 2072              	.LVL230:
 2073 0108 DBB2     		uxtb	r3, r3
 2074              	.LVL231:
 2075              	.L129:
 818:main.c        ****                 UsbTxBuffer[i] = pSERIAL_NUM[i];
 2076              		.loc 1 818 0 is_stmt 0 discriminator 1
 2077 010a 072B     		cmp	r3, #7
 2078 010c F5D9     		bls	.L130
 820:main.c        **** 			//memcpy (&UsbTxBuffer [9], FREQ_ERROR, 8);	// frequency offset at 10MHz
 2079              		.loc 1 820 0 is_stmt 1
 2080 010e 2022     		movs	r2, #32
 2081 0110 174B     		ldr	r3, .L138+24
 2082              	.LVL232:
ARM GAS  C:\Users\koseki\AppData\Local\Temp\ccT0XNG9.s 			page 59


 2083 0112 1A72     		strb	r2, [r3, #8]
 2084              	.LVL233:
 822:main.c        ****                 UsbTxBuffer[9 + i] = pFREQ_ERROR[i];
 2085              		.loc 1 822 0
 2086 0114 0023     		movs	r3, #0
 2087 0116 09E0     		b	.L131
 2088              	.LVL234:
 2089              	.L132:
 823:main.c        **** 			sendUsb = 17;
 2090              		.loc 1 823 0 discriminator 3
 2091 0118 03F10902 		add	r2, r3, #9
 2092 011c 1A49     		ldr	r1, .L138+48
 2093 011e D1F8AC10 		ldr	r1, [r1, #172]
 2094 0122 C85C     		ldrb	r0, [r1, r3]	@ zero_extendqisi2
 2095 0124 1249     		ldr	r1, .L138+24
 2096 0126 8854     		strb	r0, [r1, r2]
 822:main.c        ****                 UsbTxBuffer[9 + i] = pFREQ_ERROR[i];
 2097              		.loc 1 822 0 discriminator 3
 2098 0128 0133     		adds	r3, r3, #1
 2099              	.LVL235:
 2100 012a DBB2     		uxtb	r3, r3
 2101              	.LVL236:
 2102              	.L131:
 822:main.c        ****                 UsbTxBuffer[9 + i] = pFREQ_ERROR[i];
 2103              		.loc 1 822 0 is_stmt 0 discriminator 1
 2104 012c 072B     		cmp	r3, #7
 2105 012e F3D9     		bls	.L132
 824:main.c        **** 			break;
 2106              		.loc 1 824 0 is_stmt 1
 2107 0130 1123     		movs	r3, #17
 2108              	.LVL237:
 2109 0132 02E0     		b	.L120
 2110              	.L135:
 767:main.c        ****     uint8 i;
 2111              		.loc 1 767 0
 2112 0134 0023     		movs	r3, #0
 2113 0136 00E0     		b	.L120
 2114              	.L136:
 2115 0138 0023     		movs	r3, #0
 2116              	.LVL238:
 2117              	.L120:
 828:main.c        **** 	{
 2118              		.loc 1 828 0
 2119 013a 5BB1     		cbz	r3, .L119
 832:main.c        **** 		USBUART_Write(UsbTxBuffer);	// send response
 2120              		.loc 1 832 0
 2121 013c 0C48     		ldr	r0, .L138+24
 2122 013e 0022     		movs	r2, #0
 2123 0140 C254     		strb	r2, [r0, r3]
 833:main.c        **** 		USBUART_Write((uint8*)"\r\n");	// send response
 2124              		.loc 1 833 0
 2125 0142 FFF7FEFF 		bl	USBUART_Write
 2126              	.LVL239:
 834:main.c        **** 		while(!USBUART_bTxIsReady()) ;
 2127              		.loc 1 834 0
 2128 0146 1348     		ldr	r0, .L138+60
 2129 0148 FFF7FEFF 		bl	USBUART_Write
ARM GAS  C:\Users\koseki\AppData\Local\Temp\ccT0XNG9.s 			page 60


 2130              	.LVL240:
 2131              	.L134:
 835:main.c        **** 	}
 2132              		.loc 1 835 0 discriminator 1
 2133 014c FFF7FEFF 		bl	USBUART_bTxIsReady
 2134              	.LVL241:
 2135 0150 0028     		cmp	r0, #0
 2136 0152 FBD0     		beq	.L134
 2137              	.L119:
 2138 0154 08BD     		pop	{r3, pc}
 2139              	.L139:
 2140 0156 00BF     		.align	2
 2141              	.L138:
 2142 0158 00000000 		.word	ComRxCmd
 2143 015c 00000000 		.word	LastFreq
 2144 0160 C4000000 		.word	.LC26
 2145 0164 00000000 		.word	Freq
 2146 0168 D0000000 		.word	.LC27
 2147 016c 00000000 		.word	FrequencyError
 2148 0170 00000000 		.word	UsbTxBuffer
 2149 0174 DC000000 		.word	.LC28
 2150 0178 00000000 		.word	Debug
 2151 017c E8000000 		.word	.LC29
 2152 0180 03000000 		.word	ComRxCmd+3
 2153 0184 00000000 		.word	LedTimer
 2154 0188 00000000 		.word	.LANCHOR1
 2155 018c 00000000 		.word	FREQ_ERROR
 2156 0190 404B4C00 		.word	5000000
 2157 0194 F4000000 		.word	.LC30
 2158              		.cfi_endproc
 2159              	.LFE78:
 2160              		.size	FactorySetup, .-FactorySetup
 2161              		.section	.text.ReadUSB,"ax",%progbits
 2162              		.align	2
 2163              		.global	ReadUSB
 2164              		.thumb
 2165              		.thumb_func
 2166              		.type	ReadUSB, %function
 2167              	ReadUSB:
 2168              	.LFB77:
 713:main.c        **** 	uint8 bCount, rx, i;
 2169              		.loc 1 713 0
 2170              		.cfi_startproc
 2171              		@ args = 0, pretend = 0, frame = 0
 2172              		@ frame_needed = 0, uses_anonymous_args = 0
 2173 0000 F8B5     		push	{r3, r4, r5, r6, r7, lr}
 2174              		.cfi_def_cfa_offset 24
 2175              		.cfi_offset 3, -24
 2176              		.cfi_offset 4, -20
 2177              		.cfi_offset 5, -16
 2178              		.cfi_offset 6, -12
 2179              		.cfi_offset 7, -8
 2180              		.cfi_offset 14, -4
 716:main.c        **** 	{
 2181              		.loc 1 716 0
 2182 0002 FFF7FEFF 		bl	USBUART_DataIsReady
 2183              	.LVL242:
ARM GAS  C:\Users\koseki\AppData\Local\Temp\ccT0XNG9.s 			page 61


 2184 0006 0028     		cmp	r0, #0
 2185 0008 4FD0     		beq	.L140
 718:main.c        ****         for (i = 0; i < MAX_CMD_LENGTH; i++)
 2186              		.loc 1 718 0
 2187 000a 2848     		ldr	r0, .L151
 2188 000c FFF7FEFF 		bl	USBUART_ReadAll
 2189              	.LVL243:
 719:main.c        ****         {
 2190              		.loc 1 719 0
 2191 0010 0025     		movs	r5, #0
 2192 0012 04E0     		b	.L142
 2193              	.LVL244:
 2194              	.L144:
 721:main.c        ****                 break;
 2195              		.loc 1 721 0
 2196 0014 254B     		ldr	r3, .L151
 2197 0016 5B5D     		ldrb	r3, [r3, r5]	@ zero_extendqisi2
 2198 0018 1BB1     		cbz	r3, .L143
 719:main.c        ****         {
 2199              		.loc 1 719 0 discriminator 2
 2200 001a 0135     		adds	r5, r5, #1
 2201              	.LVL245:
 2202 001c EDB2     		uxtb	r5, r5
 2203              	.LVL246:
 2204              	.L142:
 719:main.c        ****         {
 2205              		.loc 1 719 0 is_stmt 0 discriminator 1
 2206 001e 0F2D     		cmp	r5, #15
 2207 0020 F8D9     		bls	.L144
 2208              	.L143:
 2209              	.LVL247:
 733:main.c        **** 		{
 2210              		.loc 1 733 0 is_stmt 1
 2211 0022 0024     		movs	r4, #0
 2212 0024 3FE0     		b	.L145
 2213              	.LVL248:
 2214              	.L149:
 735:main.c        **** 			ComRxCmd [ComRxPtr++] = rx;	// save in command buffer
 2215              		.loc 1 735 0
 2216 0026 214B     		ldr	r3, .L151
 2217 0028 1A5D     		ldrb	r2, [r3, r4]	@ zero_extendqisi2
 2218              	.LVL249:
 736:main.c        **** 			if (rx == ';')				// command string terminator
 2219              		.loc 1 736 0
 2220 002a 2148     		ldr	r0, .L151+4
 2221 002c 0178     		ldrb	r1, [r0]	@ zero_extendqisi2
 2222 002e 4B1C     		adds	r3, r1, #1
 2223 0030 DBB2     		uxtb	r3, r3
 2224 0032 0370     		strb	r3, [r0]
 2225 0034 1F48     		ldr	r0, .L151+8
 2226 0036 4254     		strb	r2, [r0, r1]
 737:main.c        **** 			{
 2227              		.loc 1 737 0
 2228 0038 3B2A     		cmp	r2, #59
 2229 003a 2ED1     		bne	.L146
 740:main.c        ****     			{
 2230              		.loc 1 740 0
ARM GAS  C:\Users\koseki\AppData\Local\Temp\ccT0XNG9.s 			page 62


 2231 003c 0378     		ldrb	r3, [r0]	@ zero_extendqisi2
 2232 003e 242B     		cmp	r3, #36
 2233 0040 17D1     		bne	.L147
 740:main.c        ****     			{
 2234              		.loc 1 740 0 is_stmt 0 discriminator 1
 2235 0042 4378     		ldrb	r3, [r0, #1]	@ zero_extendqisi2
 2236 0044 2A2B     		cmp	r3, #42
 2237 0046 14D1     		bne	.L147
 742:main.c        ****                     xSemaphoreTake(xMutex_DDS, portMAX_DELAY);
 2238              		.loc 1 742 0 is_stmt 1
 2239 0048 0027     		movs	r7, #0
 2240 004a 0755     		strb	r7, [r0, r4]
 743:main.c        ****     				FactorySetup ();
 2241              		.loc 1 743 0
 2242 004c 1A4E     		ldr	r6, .L151+12
 2243 004e 3068     		ldr	r0, [r6]
 2244 0050 3946     		mov	r1, r7
 2245 0052 4FF0FF32 		mov	r2, #-1
 2246              	.LVL250:
 2247 0056 3B46     		mov	r3, r7
 2248 0058 FFF7FEFF 		bl	xQueueGenericReceive
 2249              	.LVL251:
 744:main.c        ****                     xSemaphoreGive(xMutex_DDS);
 2250              		.loc 1 744 0
 2251 005c FFF7FEFF 		bl	FactorySetup
 2252              	.LVL252:
 745:main.c        ****     				ComRxPtr = 0;
 2253              		.loc 1 745 0
 2254 0060 3068     		ldr	r0, [r6]
 2255 0062 3946     		mov	r1, r7
 2256 0064 3A46     		mov	r2, r7
 2257 0066 3B46     		mov	r3, r7
 2258 0068 FFF7FEFF 		bl	xQueueGenericSend
 2259              	.LVL253:
 746:main.c        ****     			}
 2260              		.loc 1 746 0
 2261 006c 104B     		ldr	r3, .L151+4
 2262 006e 1F70     		strb	r7, [r3]
 2263 0070 17E0     		b	.L148
 2264              	.LVL254:
 2265              	.L147:
 750:main.c        ****     				ProcessComRx ();
 2266              		.loc 1 750 0
 2267 0072 114E     		ldr	r6, .L151+12
 2268 0074 3068     		ldr	r0, [r6]
 2269 0076 0021     		movs	r1, #0
 2270 0078 4FF0FF32 		mov	r2, #-1
 2271              	.LVL255:
 2272 007c 0B46     		mov	r3, r1
 2273 007e FFF7FEFF 		bl	xQueueGenericReceive
 2274              	.LVL256:
 751:main.c        ****                     xSemaphoreGive(xMutex_DDS);
 2275              		.loc 1 751 0
 2276 0082 FFF7FEFF 		bl	ProcessComRx
 2277              	.LVL257:
 752:main.c        ****     				ComRxPtr = 0;
 2278              		.loc 1 752 0
ARM GAS  C:\Users\koseki\AppData\Local\Temp\ccT0XNG9.s 			page 63


 2279 0086 3068     		ldr	r0, [r6]
 2280 0088 0021     		movs	r1, #0
 2281 008a 0A46     		mov	r2, r1
 2282 008c 0B46     		mov	r3, r1
 2283 008e FFF7FEFF 		bl	xQueueGenericSend
 2284              	.LVL258:
 753:main.c        ****                 }
 2285              		.loc 1 753 0
 2286 0092 0022     		movs	r2, #0
 2287 0094 064B     		ldr	r3, .L151+4
 2288 0096 1A70     		strb	r2, [r3]
 2289 0098 03E0     		b	.L148
 2290              	.LVL259:
 2291              	.L146:
 757:main.c        **** 		}
 2292              		.loc 1 757 0
 2293 009a 03F01F03 		and	r3, r3, #31
 2294 009e 044A     		ldr	r2, .L151+4
 2295              	.LVL260:
 2296 00a0 1370     		strb	r3, [r2]
 2297              	.LVL261:
 2298              	.L148:
 733:main.c        **** 		{
 2299              		.loc 1 733 0 discriminator 2
 2300 00a2 0134     		adds	r4, r4, #1
 2301              	.LVL262:
 2302 00a4 E4B2     		uxtb	r4, r4
 2303              	.LVL263:
 2304              	.L145:
 733:main.c        **** 		{
 2305              		.loc 1 733 0 is_stmt 0 discriminator 1
 2306 00a6 AC42     		cmp	r4, r5
 2307 00a8 BDD3     		bcc	.L149
 2308              	.LVL264:
 2309              	.L140:
 2310 00aa F8BD     		pop	{r3, r4, r5, r6, r7, pc}
 2311              	.L152:
 2312              		.align	2
 2313              	.L151:
 2314 00ac 00000000 		.word	UsbRxBuffer
 2315 00b0 00000000 		.word	ComRxPtr
 2316 00b4 00000000 		.word	ComRxCmd
 2317 00b8 00000000 		.word	xMutex_DDS
 2318              		.cfi_endproc
 2319              	.LFE77:
 2320              		.size	ReadUSB, .-ReadUSB
 2321              		.section	.text.Task_USBUART,"ax",%progbits
 2322              		.align	2
 2323              		.global	Task_USBUART
 2324              		.thumb
 2325              		.thumb_func
 2326              		.type	Task_USBUART, %function
 2327              	Task_USBUART:
 2328              	.LFB76:
 660:main.c        ****     uint32 i;
 2329              		.loc 1 660 0 is_stmt 1
 2330              		.cfi_startproc
ARM GAS  C:\Users\koseki\AppData\Local\Temp\ccT0XNG9.s 			page 64


 2331              		@ args = 0, pretend = 0, frame = 0
 2332              		@ frame_needed = 0, uses_anonymous_args = 0
 2333              	.LVL265:
 2334 0000 38B5     		push	{r3, r4, r5, lr}
 2335              		.cfi_def_cfa_offset 16
 2336              		.cfi_offset 3, -16
 2337              		.cfi_offset 4, -12
 2338              		.cfi_offset 5, -8
 2339              		.cfi_offset 14, -4
 2340              	.LVL266:
 665:main.c        ****     for (i = 0; i < USBUART_TIMEOUT; i++)
 2341              		.loc 1 665 0
 2342 0002 0020     		movs	r0, #0
 2343              	.LVL267:
 2344 0004 0221     		movs	r1, #2
 2345 0006 FFF7FEFF 		bl	USBUART_Start
 2346              	.LVL268:
 666:main.c        ****     {
 2347              		.loc 1 666 0
 2348 000a 0024     		movs	r4, #0
 2349 000c 06E0     		b	.L154
 2350              	.LVL269:
 2351              	.L156:
 668:main.c        ****         if (gUSBUART_Ready) break;
 2352              		.loc 1 668 0
 2353 000e FFF7FEFF 		bl	USBUART_GetConfiguration
 2354              	.LVL270:
 2355 0012 214B     		ldr	r3, .L164
 2356 0014 1860     		str	r0, [r3]
 669:main.c        ****     }
 2357              		.loc 1 669 0
 2358 0016 1B68     		ldr	r3, [r3]
 2359 0018 1BB9     		cbnz	r3, .L155
 666:main.c        ****     {
 2360              		.loc 1 666 0 discriminator 2
 2361 001a 0134     		adds	r4, r4, #1
 2362              	.LVL271:
 2363              	.L154:
 666:main.c        ****     {
 2364              		.loc 1 666 0 is_stmt 0 discriminator 1
 2365 001c 1F4B     		ldr	r3, .L164+4
 2366 001e 9C42     		cmp	r4, r3
 2367 0020 F5D9     		bls	.L156
 2368              	.L155:
 672:main.c        ****         USBUART_CDC_Init();
 2369              		.loc 1 672 0 is_stmt 1
 2370 0022 1D4B     		ldr	r3, .L164
 2371 0024 1B68     		ldr	r3, [r3]
 2372 0026 1BB1     		cbz	r3, .L157
 673:main.c        ****     else
 2373              		.loc 1 673 0
 2374 0028 FFF7FEFF 		bl	USBUART_CDC_Init
 2375              	.LVL272:
 2376              	.L159:
 666:main.c        ****     {
 2377              		.loc 1 666 0
 2378 002c 0124     		movs	r4, #1
ARM GAS  C:\Users\koseki\AppData\Local\Temp\ccT0XNG9.s 			page 65


 2379              	.LVL273:
 2380 002e 2EE0     		b	.L160
 2381              	.LVL274:
 2382              	.L157:
 675:main.c        **** 
 2383              		.loc 1 675 0
 2384 0030 FFF7FEFF 		bl	USBUART_Stop
 2385              	.LVL275:
 2386 0034 FAE7     		b	.L159
 2387              	.LVL276:
 2388              	.L161:
 679:main.c        ****     	if (state & USBUART_LINE_CODING_CHANGED)
 2389              		.loc 1 679 0
 2390 0036 FFF7FEFF 		bl	USBUART_IsLineChanged
 2391              	.LVL277:
 680:main.c        ****     	{
 2392              		.loc 1 680 0
 2393 003a 10F0010F 		tst	r0, #1
 2394 003e 26D0     		beq	.L160
 682:main.c        **** 
 2395              		.loc 1 682 0
 2396 0040 1748     		ldr	r0, .L164+8
 2397              	.LVL278:
 2398 0042 FFF7FEFF 		bl	USBUART_Write
 2399              	.LVL279:
 685:main.c        ****             USBUART_Write((uint8*)"***********************************************************\r\n"
 2400              		.loc 1 685 0
 2401 0046 6420     		movs	r0, #100
 2402 0048 FFF7FEFF 		bl	CyDelay
 2403              	.LVL280:
 686:main.c        ****             USBUART_Write((uint8*)"*                                                         *\r\n"
 2404              		.loc 1 686 0
 2405 004c 154D     		ldr	r5, .L164+12
 2406 004e 2846     		mov	r0, r5
 2407 0050 FFF7FEFF 		bl	USBUART_Write
 2408              	.LVL281:
 687:main.c        ****             USBUART_Write((uint8*)"*                 Simple SDR Reciever                     *\r\n"
 2409              		.loc 1 687 0
 2410 0054 144C     		ldr	r4, .L164+16
 2411 0056 2046     		mov	r0, r4
 2412 0058 FFF7FEFF 		bl	USBUART_Write
 2413              	.LVL282:
 688:main.c        ****             USBUART_Write((uint8*)"*               for CY8KIT-059 (PSoC-5LP)                 *\r\n"
 2414              		.loc 1 688 0
 2415 005c 1348     		ldr	r0, .L164+20
 2416 005e FFF7FEFF 		bl	USBUART_Write
 2417              	.LVL283:
 689:main.c        ****             USBUART_Write((uint8*)"*                                                         *\r\n"
 2418              		.loc 1 689 0
 2419 0062 1348     		ldr	r0, .L164+24
 2420 0064 FFF7FEFF 		bl	USBUART_Write
 2421              	.LVL284:
 690:main.c        ****             USBUART_Write((uint8*)"*                     (ver.0.0.1)                         *\r\n"
 2422              		.loc 1 690 0
 2423 0068 2046     		mov	r0, r4
 2424 006a FFF7FEFF 		bl	USBUART_Write
 2425              	.LVL285:
ARM GAS  C:\Users\koseki\AppData\Local\Temp\ccT0XNG9.s 			page 66


 691:main.c        ****             USBUART_Write((uint8*)"*                                                         *\r\n"
 2426              		.loc 1 691 0
 2427 006e 1148     		ldr	r0, .L164+28
 2428 0070 FFF7FEFF 		bl	USBUART_Write
 2429              	.LVL286:
 692:main.c        ****             USBUART_Write((uint8*)"***********************************************************\r\n"
 2430              		.loc 1 692 0
 2431 0074 2046     		mov	r0, r4
 2432 0076 FFF7FEFF 		bl	USBUART_Write
 2433              	.LVL287:
 693:main.c        ****             USBUART_Write((uint8*)"""Ham Radio Deluxe"" equivalent commands are enabled.\r\n");
 2434              		.loc 1 693 0
 2435 007a 2846     		mov	r0, r5
 2436 007c FFF7FEFF 		bl	USBUART_Write
 2437              	.LVL288:
 694:main.c        ****             USBUART_Write((uint8*)"\r\n");
 2438              		.loc 1 694 0
 2439 0080 0D48     		ldr	r0, .L164+32
 2440 0082 FFF7FEFF 		bl	USBUART_Write
 2441              	.LVL289:
 695:main.c        ****         }
 2442              		.loc 1 695 0
 2443 0086 0D48     		ldr	r0, .L164+36
 2444 0088 FFF7FEFF 		bl	USBUART_Write
 2445              	.LVL290:
 684:main.c        ****             CyDelay(100);
 2446              		.loc 1 684 0
 2447 008c 0024     		movs	r4, #0
 2448              	.LVL291:
 2449              	.L160:
 677:main.c        ****     {  
 2450              		.loc 1 677 0
 2451 008e 002C     		cmp	r4, #0
 2452 0090 D1D1     		bne	.L161
 2453              	.L162:
 703:main.c        ****     }
 2454              		.loc 1 703 0 discriminator 1
 2455 0092 FFF7FEFF 		bl	ReadUSB
 2456              	.LVL292:
 704:main.c        **** }
 2457              		.loc 1 704 0 discriminator 1
 2458 0096 FCE7     		b	.L162
 2459              	.L165:
 2460              		.align	2
 2461              	.L164:
 2462 0098 00000000 		.word	gUSBUART_Ready
 2463 009c 7F841E00 		.word	1999999
 2464 00a0 F8000000 		.word	.LC31
 2465 00a4 0C010000 		.word	.LC32
 2466 00a8 4C010000 		.word	.LC33
 2467 00ac 8C010000 		.word	.LC34
 2468 00b0 CC010000 		.word	.LC35
 2469 00b4 0C020000 		.word	.LC36
 2470 00b8 4C020000 		.word	.LC37
 2471 00bc F4000000 		.word	.LC30
 2472              		.cfi_endproc
 2473              	.LFE76:
ARM GAS  C:\Users\koseki\AppData\Local\Temp\ccT0XNG9.s 			page 67


 2474              		.size	Task_USBUART, .-Task_USBUART
 2475              		.section	.text.AdjustAgc,"ax",%progbits
 2476              		.align	2
 2477              		.global	AdjustAgc
 2478              		.thumb
 2479              		.thumb_func
 2480              		.type	AdjustAgc, %function
 2481              	AdjustAgc:
 2482              	.LFB81:
 959:main.c        **** 	
 960:main.c        **** 	//CyPins_SetPin(TP2_OUT_0);		   
 961:main.c        **** 
 962:main.c        **** }
 963:main.c        **** 
 964:main.c        **** //
 965:main.c        **** //	Adjust AGC by monitoring ADC peak signal level
 966:main.c        **** //	Adjusts gain every 8 msec, rate of 32068 / 256 Hz
 967:main.c        **** //
 968:main.c        **** void AdjustAgc (void)
 969:main.c        **** {
 2483              		.loc 1 969 0
 2484              		.cfi_startproc
 2485              		@ args = 0, pretend = 0, frame = 0
 2486              		@ frame_needed = 0, uses_anonymous_args = 0
 2487 0000 08B5     		push	{r3, lr}
 2488              		.cfi_def_cfa_offset 8
 2489              		.cfi_offset 3, -8
 2490              		.cfi_offset 14, -4
 970:main.c        **** 	uint16 atten;
 971:main.c        **** 	
 972:main.c        **** 	if (!AdcTick)					// 8 msec tick
 2491              		.loc 1 972 0
 2492 0002 344B     		ldr	r3, .L177
 2493 0004 1B78     		ldrb	r3, [r3]	@ zero_extendqisi2
 2494 0006 002B     		cmp	r3, #0
 2495 0008 63D0     		beq	.L166
 973:main.c        **** 		return;
 974:main.c        **** 	AdcTick = FALSE;
 2496              		.loc 1 974 0
 2497 000a 0022     		movs	r2, #0
 2498 000c 314B     		ldr	r3, .L177
 2499 000e 1A70     		strb	r2, [r3]
 975:main.c        **** 	
 976:main.c        **** 	if (LedTimer)
 2500              		.loc 1 976 0
 2501 0010 314B     		ldr	r3, .L177+4
 2502 0012 1B78     		ldrb	r3, [r3]	@ zero_extendqisi2
 2503 0014 5BB1     		cbz	r3, .L168
 977:main.c        **** 	{
 978:main.c        **** 		if (--LedTimer == 0)
 2504              		.loc 1 978 0
 2505 0016 013B     		subs	r3, r3, #1
 2506 0018 DBB2     		uxtb	r3, r3
 2507 001a 2F4A     		ldr	r2, .L177+4
 2508 001c 1370     		strb	r3, [r2]
 2509 001e 1BB9     		cbnz	r3, .L169
 979:main.c        **** 			//CyPins_SetPin (REDLED_0);	// red led off
ARM GAS  C:\Users\koseki\AppData\Local\Temp\ccT0XNG9.s 			page 68


 980:main.c        ****             LED_Write(0u);
 2510              		.loc 1 980 0
 2511 0020 0020     		movs	r0, #0
 2512 0022 FFF7FEFF 		bl	LED_Write
 2513              	.LVL293:
 2514 0026 02E0     		b	.L168
 2515              	.L169:
 981:main.c        **** 		else
 982:main.c        **** 			//CyPins_ClearPin (REDLED_0);	// red led on
 983:main.c        ****             LED_Write(1u);
 2516              		.loc 1 983 0
 2517 0028 0120     		movs	r0, #1
 2518 002a FFF7FEFF 		bl	LED_Write
 2519              	.LVL294:
 2520              	.L168:
 984:main.c        **** 	}	
 985:main.c        **** 
 986:main.c        **** 	if (AgcDisable)
 2521              		.loc 1 986 0
 2522 002e 2B4B     		ldr	r3, .L177+8
 2523 0030 1B78     		ldrb	r3, [r3]	@ zero_extendqisi2
 2524 0032 1BB1     		cbz	r3, .L170
 987:main.c        **** 		AdcPeak = 0;				// disable AGC adjustments and go to max gain
 2525              		.loc 1 987 0
 2526 0034 0022     		movs	r2, #0
 2527 0036 2A4B     		ldr	r3, .L177+12
 2528 0038 1A80     		strh	r2, [r3]	@ movhi
 2529 003a 13E0     		b	.L171
 2530              	.L170:
 988:main.c        **** 	else if (AdcPeak > 0x3800)
 2531              		.loc 1 988 0
 2532 003c 284B     		ldr	r3, .L177+12
 2533 003e B3F90030 		ldrsh	r3, [r3]
 2534 0042 B3F5605F 		cmp	r3, #14336
 2535 0046 0DDD     		ble	.L171
 989:main.c        **** 	{
 990:main.c        **** 		AgcIntegrator = (AgcIntegrator >> 2) * 3;	// overloaded input, reduce gain to 75%
 2536              		.loc 1 990 0
 2537 0048 264A     		ldr	r2, .L177+16
 2538 004a 1378     		ldrb	r3, [r2]	@ zero_extendqisi2
 2539 004c 9B08     		lsrs	r3, r3, #2
 2540 004e 03EB4303 		add	r3, r3, r3, lsl #1
 2541 0052 DBB2     		uxtb	r3, r3
 2542 0054 1370     		strb	r3, [r2]
 991:main.c        **** 		AgcGain = 1 + (AgcIntegrator >> 2);	
 2543              		.loc 1 991 0
 2544 0056 9B08     		lsrs	r3, r3, #2
 2545 0058 0133     		adds	r3, r3, #1
 2546 005a 234A     		ldr	r2, .L177+20
 2547 005c 1370     		strb	r3, [r2]
 992:main.c        **** 		LedTimer = LED_SHORTBLINK;	// blink the LED for overload
 2548              		.loc 1 992 0
 2549 005e 0322     		movs	r2, #3
 2550 0060 1D4B     		ldr	r3, .L177+4
 2551 0062 1A70     		strb	r2, [r3]
 2552              	.L171:
 993:main.c        **** 	}
ARM GAS  C:\Users\koseki\AppData\Local\Temp\ccT0XNG9.s 			page 69


 994:main.c        **** 	AdcPeakAve = (AdcPeakAve + AdcPeak) / 2;		// compute average peak ADC value
 2553              		.loc 1 994 0
 2554 0064 2149     		ldr	r1, .L177+24
 2555 0066 B1F90000 		ldrsh	r0, [r1]
 2556 006a 1D4A     		ldr	r2, .L177+12
 2557 006c B2F90030 		ldrsh	r3, [r2]
 2558 0070 0344     		add	r3, r3, r0
 2559 0072 03EBD373 		add	r3, r3, r3, lsr #31
 2560 0076 C3F34F03 		ubfx	r3, r3, #1, #16
 2561 007a 0B80     		strh	r3, [r1]	@ movhi
 995:main.c        **** 	AdcPeak = 0;	
 2562              		.loc 1 995 0
 2563 007c 0021     		movs	r1, #0
 2564 007e 1180     		strh	r1, [r2]	@ movhi
 996:main.c        **** 	
 997:main.c        **** 	if (--AgcTimer)
 2565              		.loc 1 997 0
 2566 0080 1B49     		ldr	r1, .L177+28
 2567 0082 0A78     		ldrb	r2, [r1]	@ zero_extendqisi2
 2568 0084 013A     		subs	r2, r2, #1
 2569 0086 D2B2     		uxtb	r2, r2
 2570 0088 0A70     		strb	r2, [r1]
 2571 008a 12BB     		cbnz	r2, .L166
 998:main.c        **** 		return;
 999:main.c        **** 	//AgcTimer = 4;					// every 32 msec
1000:main.c        **** 	AgcTimer = AgcTimeConstant;		// controlled by GT command (AgcTimeConstant * 8 ms)
 2572              		.loc 1 1000 0
 2573 008c 194A     		ldr	r2, .L177+32
 2574 008e 1178     		ldrb	r1, [r2]	@ zero_extendqisi2
 2575 0090 174A     		ldr	r2, .L177+28
 2576 0092 1170     		strb	r1, [r2]
1001:main.c        **** 	
1002:main.c        **** 	atten = (AttenuatorOn) ? 0x1000 : 0x2800;
 2577              		.loc 1 1002 0
 2578 0094 184A     		ldr	r2, .L177+36
 2579 0096 1278     		ldrb	r2, [r2]	@ zero_extendqisi2
 2580 0098 12B1     		cbz	r2, .L175
 2581 009a 4FF48052 		mov	r2, #4096
 2582 009e 01E0     		b	.L172
 2583              	.L175:
 2584 00a0 4FF42052 		mov	r2, #10240
 2585              	.L172:
 2586              	.LVL295:
1003:main.c        **** 	if (AdcPeakAve < atten)			 // clips if higher than this number
 2587              		.loc 1 1003 0 discriminator 4
 2588 00a4 1BB2     		sxth	r3, r3
 2589 00a6 9342     		cmp	r3, r2
 2590 00a8 07DA     		bge	.L173
1004:main.c        **** 	{
1005:main.c        **** 		if (AgcIntegrator != 0xFF)
 2591              		.loc 1 1005 0
 2592 00aa 0E4B     		ldr	r3, .L177+16
 2593 00ac 1B78     		ldrb	r3, [r3]	@ zero_extendqisi2
 2594 00ae FF2B     		cmp	r3, #255
 2595 00b0 09D0     		beq	.L174
1006:main.c        **** 			AgcIntegrator++;		// increase gain
 2596              		.loc 1 1006 0
ARM GAS  C:\Users\koseki\AppData\Local\Temp\ccT0XNG9.s 			page 70


 2597 00b2 0133     		adds	r3, r3, #1
 2598 00b4 0B4A     		ldr	r2, .L177+16
 2599              	.LVL296:
 2600 00b6 1370     		strb	r3, [r2]
 2601 00b8 05E0     		b	.L174
 2602              	.LVL297:
 2603              	.L173:
1007:main.c        **** 	}
1008:main.c        **** 	else if (AgcIntegrator)
 2604              		.loc 1 1008 0
 2605 00ba 0A4B     		ldr	r3, .L177+16
 2606 00bc 1B78     		ldrb	r3, [r3]	@ zero_extendqisi2
 2607 00be 13B1     		cbz	r3, .L174
1009:main.c        **** 		AgcIntegrator--;			// decrease gain
 2608              		.loc 1 1009 0
 2609 00c0 013B     		subs	r3, r3, #1
 2610 00c2 084A     		ldr	r2, .L177+16
 2611              	.LVL298:
 2612 00c4 1370     		strb	r3, [r2]
 2613              	.L174:
1010:main.c        **** 		
1011:main.c        **** 	AgcGain = 1 + (AgcIntegrator >> 2);
 2614              		.loc 1 1011 0
 2615 00c6 074B     		ldr	r3, .L177+16
 2616 00c8 1B78     		ldrb	r3, [r3]	@ zero_extendqisi2
 2617 00ca 9B08     		lsrs	r3, r3, #2
 2618 00cc 0133     		adds	r3, r3, #1
 2619 00ce 064A     		ldr	r2, .L177+20
 2620 00d0 1370     		strb	r3, [r2]
 2621              	.L166:
 2622 00d2 08BD     		pop	{r3, pc}
 2623              	.L178:
 2624              		.align	2
 2625              	.L177:
 2626 00d4 00000000 		.word	AdcTick
 2627 00d8 00000000 		.word	LedTimer
 2628 00dc 00000000 		.word	AgcDisable
 2629 00e0 00000000 		.word	AdcPeak
 2630 00e4 00000000 		.word	AgcIntegrator
 2631 00e8 00000000 		.word	AgcGain
 2632 00ec 00000000 		.word	AdcPeakAve
 2633 00f0 00000000 		.word	AgcTimer
 2634 00f4 00000000 		.word	AgcTimeConstant
 2635 00f8 00000000 		.word	AttenuatorOn
 2636              		.cfi_endproc
 2637              	.LFE81:
 2638              		.size	AdjustAgc, .-AdjustAgc
 2639              		.section	.text.Task_RADIO,"ax",%progbits
 2640              		.align	2
 2641              		.global	Task_RADIO
 2642              		.thumb
 2643              		.thumb_func
 2644              		.type	Task_RADIO, %function
 2645              	Task_RADIO:
 2646              	.LFB79:
 847:main.c        ****     const portTickType xDelay = 1 / portTICK_RATE_MS;
 2647              		.loc 1 847 0
ARM GAS  C:\Users\koseki\AppData\Local\Temp\ccT0XNG9.s 			page 71


 2648              		.cfi_startproc
 2649              		@ args = 0, pretend = 0, frame = 0
 2650              		@ frame_needed = 0, uses_anonymous_args = 0
 2651              	.LVL299:
 2652 0000 08B5     		push	{r3, lr}
 2653              		.cfi_def_cfa_offset 8
 2654              		.cfi_offset 3, -8
 2655              		.cfi_offset 14, -4
 2656              	.LVL300:
 2657              	.L180:
 853:main.c        ****         
 2658              		.loc 1 853 0 discriminator 1
 2659 0002 FFF7FEFF 		bl	AdjustAgc
 2660              	.LVL301:
 855:main.c        ****     }
 2661              		.loc 1 855 0 discriminator 1
 2662 0006 0120     		movs	r0, #1
 2663 0008 FFF7FEFF 		bl	vTaskDelay
 2664              	.LVL302:
 856:main.c        **** }
 2665              		.loc 1 856 0 discriminator 1
 2666 000c F9E7     		b	.L180
 2667              		.cfi_endproc
 2668              	.LFE79:
 2669              		.size	Task_RADIO, .-Task_RADIO
 2670              		.comm	xQueue_FREQ,4,4
 2671              		.comm	xQueue_ROT,4,4
 2672              		.comm	xQueue_KEY,8,4
 2673              		.comm	xMutex_DDS,4,4
 2674              		.comm	IDelayPtr,1,1
 2675              		.comm	IDelay,128,4
 2676              		.comm	AdcState,1,1
 2677              		.comm	Ch,1,1
 2678              		.comm	Debug,1,1
 2679              		.comm	Squelch,1,1
 2680              		.comm	AttenuatorOn,1,1
 2681              		.comm	UpperSideBand,1,1
 2682              		.comm	Mode,1,1
 2683              		.comm	Filter,1,1
 2684              		.comm	DisplayIndex,1,1
 2685              		.comm	LedTimer,1,1
 2686              		.comm	AgcTimeConstant,1,1
 2687              		.comm	AgcIndicator,4,4
 2688              		.comm	AgcIntegrator,1,1
 2689              		.comm	AgcTimer,1,1
 2690              		.comm	AgcGain,1,1
 2691              		.comm	AgcDisable,1,1
 2692              		.comm	AdcPeakAve,2,2
 2693              		.comm	AdcPeak,2,2
 2694              		.comm	QDCOffset,2,2
 2695              		.comm	IDCOffset,2,2
 2696              		.comm	AdcTick,1,1
 2697              		.comm	UsbRxBuffer,256,4
 2698              		.comm	UsbTxBuffer,80,4
 2699              		.comm	ComRxPtr,1,1
 2700              		.comm	ComRxCmd,32,4
 2701              		.comm	FrequencyError,4,4
ARM GAS  C:\Users\koseki\AppData\Local\Temp\ccT0XNG9.s 			page 72


 2702              		.comm	Frequency,4,4
 2703              		.comm	LastFreq,8,4
 2704              		.comm	Freq,8,4
 2705              		.global	station
 2706              		.comm	gUSBUART_Ready,4,4
 2707              		.comm	SERIAL_NUM,8,4
 2708              		.comm	FREQ_ERROR,8,4
 2709              		.global	pSERIAL_NUM
 2710              		.global	pFREQ_ERROR
 2711              		.global	HEX2ASCII
 2712 000e 00BF     		.section	.rodata
 2713              		.align	2
 2714              		.set	.LANCHOR0,. + 0
 2715              	.LC0:
 2716 0000 F8       		.byte	-8
 2717 0001 08       		.byte	8
 2718 0002 4C       		.byte	76
 2719 0003 07       		.byte	7
 2720 0004 00       		.byte	0
 2721 0005 000000   		.space	3
 2722              		.type	HEX2ASCII, %object
 2723              		.size	HEX2ASCII, 17
 2724              	HEX2ASCII:
 2725 0008 30313233 		.ascii	"0123456789ABCDEF\000"
 2725      34353637 
 2725      38394142 
 2725      43444546 
 2725      00
 2726 0019 000000   		.data
 2727              		.align	2
 2728              		.set	.LANCHOR1,. + 0
 2729              		.type	station, %object
 2730              		.size	station, 168
 2731              	station:
 2732 0000 4E484B31 		.ascii	"NHK1 "
 2732      20
 2733 0005 000000   		.space	3
 2734 0008 78980D00 		.word	891000
 2735 000c 00000000 		.word	0
 2736 0010 01000000 		.word	1
 2737 0014 01       		.byte	1
 2738 0015 04       		.byte	4
 2739 0016 0000     		.space	2
 2740 0018 4E484B32 		.ascii	"NHK2 "
 2740      20
 2741 001d 000000   		.space	3
 2742 0020 E89D1000 		.word	1089000
 2743 0024 00000000 		.word	0
 2744 0028 01000000 		.word	1
 2745 002c 01       		.byte	1
 2746 002d 04       		.byte	4
 2747 002e 0000     		.space	2
 2748 0030 54424320 		.ascii	"TBC  "
 2748      20
 2749 0035 000000   		.space	3
 2750 0038 E0391300 		.word	1260000
 2751 003c 00000000 		.word	0
ARM GAS  C:\Users\koseki\AppData\Local\Temp\ccT0XNG9.s 			page 73


 2752 0040 01000000 		.word	1
 2753 0044 01       		.byte	1
 2754 0045 04       		.byte	4
 2755 0046 0000     		.space	2
 2756 0048 4E484B31 		.ascii	"NHK1 "
 2756      20
 2757 004d 000000   		.space	3
 2758 0050 78980D00 		.word	891000
 2759 0054 A00F0000 		.word	4000
 2760 0058 E8030000 		.word	1000
 2761 005c 03       		.byte	3
 2762 005d 04       		.byte	4
 2763 005e 0000     		.space	2
 2764 0060 4E484B32 		.ascii	"NHK2 "
 2764      20
 2765 0065 000000   		.space	3
 2766 0068 E89D1000 		.word	1089000
 2767 006c A00F0000 		.word	4000
 2768 0070 E8030000 		.word	1000
 2769 0074 03       		.byte	3
 2770 0075 04       		.byte	4
 2771 0076 0000     		.space	2
 2772 0078 54424320 		.ascii	"TBC  "
 2772      20
 2773 007d 000000   		.space	3
 2774 0080 E0391300 		.word	1260000
 2775 0084 A00F0000 		.word	4000
 2776 0088 E8030000 		.word	1000
 2777 008c 03       		.byte	3
 2778 008d 04       		.byte	4
 2779 008e 0000     		.space	2
 2780 0090 42434F4E 		.ascii	"BCON "
 2780      20
 2781 0095 000000   		.space	3
 2782 0098 28F90600 		.word	457000
 2783 009c 20030000 		.word	800
 2784 00a0 0A000000 		.word	10
 2785 00a4 02       		.byte	2
 2786 00a5 03       		.byte	3
 2787 00a6 0000     		.space	2
 2788              		.type	pSERIAL_NUM, %object
 2789              		.size	pSERIAL_NUM, 4
 2790              	pSERIAL_NUM:
 2791 00a8 00800040 		.word	1073774592
 2792              		.type	pFREQ_ERROR, %object
 2793              		.size	pFREQ_ERROR, 4
 2794              	pFREQ_ERROR:
 2795 00ac 10800040 		.word	1073774608
 2796              		.section	.rodata.str1.4,"aMS",%progbits,1
 2797              		.align	2
 2798              	.LC1:
 2799 0000 46573D32 		.ascii	"FW=2.5k\000"
 2799      2E356B00 
 2800              	.LC2:
 2801 0008 46573D32 		.ascii	"FW=2.0k\000"
 2801      2E306B00 
 2802              	.LC3:
ARM GAS  C:\Users\koseki\AppData\Local\Temp\ccT0XNG9.s 			page 74


 2803 0010 46573D31 		.ascii	"FW=1.5k\000"
 2803      2E356B00 
 2804              	.LC4:
 2805 0018 46573D30 		.ascii	"FW=0.4k\000"
 2805      2E346B00 
 2806              	.LC5:
 2807 0020 46573D34 		.ascii	"FW=4.0k\000"
 2807      2E306B00 
 2808              	.LC6:
 2809 0028 4C534220 		.ascii	"LSB  \000"
 2809      2000
 2810 002e 0000     		.space	2
 2811              	.LC7:
 2812 0030 55534220 		.ascii	"USB  \000"
 2812      2000
 2813 0036 0000     		.space	2
 2814              	.LC8:
 2815 0038 43572020 		.ascii	"CW   \000"
 2815      2000
 2816 003e 0000     		.space	2
 2817              	.LC9:
 2818 0040 414D2020 		.ascii	"AM   \000"
 2818      2000
 2819 0046 0000     		.space	2
 2820              	.LC10:
 2821 0048 2A2A2A20 		.ascii	"***  \000"
 2821      2000
 2822 004e 0000     		.space	2
 2823              	.LC11:
 2824 0050 25376C64 		.ascii	"%7ld[Hz]\000"
 2824      5B487A5D 
 2824      00
 2825 0059 000000   		.space	3
 2826              	.LC12:
 2827 005c 4572726F 		.ascii	"Error  [Hz]\000"
 2827      7220205B 
 2827      487A5D00 
 2828              	.LC13:
 2829 0068 2530386C 		.ascii	"%08ld\000"
 2829      6400
 2830 006e 0000     		.space	2
 2831              	.LC14:
 2832 0070 535F5F00 		.ascii	"S__\000"
 2833              	.LC15:
 2834 0074 53253032 		.ascii	"S%02d\000"
 2834      6400
 2835 007a 0000     		.space	2
 2836              	.LC16:
 2837 007c 30303030 		.ascii	"00000000\000"
 2837      30303030 
 2837      00
 2838 0085 000000   		.space	3
 2839              	.LC17:
 2840 0088 35303030 		.ascii	"5000000\000"
 2840      30303000 
 2841              	.LC18:
 2842 0090 30303839 		.ascii	"00891000\000"
ARM GAS  C:\Users\koseki\AppData\Local\Temp\ccT0XNG9.s 			page 75


 2842      31303030 
 2842      00
 2843 0099 000000   		.space	3
 2844              	.LC19:
 2845 009c 25357300 		.ascii	"%5s\000"
 2846              	.LC20:
 2847 00a0 4C454400 		.ascii	"LED\000"
 2848              	.LC21:
 2849 00a4 524F5400 		.ascii	"ROT\000"
 2850              	.LC22:
 2851 00a8 4B455900 		.ascii	"KEY\000"
 2852              	.LC23:
 2853 00ac 434C4344 		.ascii	"CLCD\000"
 2853      00
 2854 00b1 000000   		.space	3
 2855              	.LC24:
 2856 00b4 55534255 		.ascii	"USBUART\000"
 2856      41525400 
 2857              	.LC25:
 2858 00bc 52414449 		.ascii	"RADIO\000"
 2858      4F00
 2859 00c2 0000     		.space	2
 2860              	.LC26:
 2861 00c4 31323334 		.ascii	"12345678\000"
 2861      35363738 
 2861      00
 2862 00cd 000000   		.space	3
 2863              	.LC27:
 2864 00d0 30353030 		.ascii	"05000000\000"
 2864      30303030 
 2864      00
 2865 00d9 000000   		.space	3
 2866              	.LC28:
 2867 00dc 43616C69 		.ascii	"Calibrate\000"
 2867      62726174 
 2867      6500
 2868 00e6 0000     		.space	2
 2869              	.LC29:
 2870 00e8 44656275 		.ascii	"Debug Mode\000"
 2870      67204D6F 
 2870      646500
 2871 00f3 00       		.space	1
 2872              	.LC30:
 2873 00f4 0D0A00   		.ascii	"\015\012\000"
 2874 00f7 00       		.space	1
 2875              	.LC31:
 2876 00f8 50726F67 		.ascii	"Program starts\015\012\000"
 2876      72616D20 
 2876      73746172 
 2876      74730D0A 
 2876      00
 2877 0109 000000   		.space	3
 2878              	.LC32:
 2879 010c 2A2A2A2A 		.ascii	"***************************************************"
 2879      2A2A2A2A 
 2879      2A2A2A2A 
 2879      2A2A2A2A 
ARM GAS  C:\Users\koseki\AppData\Local\Temp\ccT0XNG9.s 			page 76


 2879      2A2A2A2A 
 2880 013f 2A2A2A2A 		.ascii	"********\015\012\000"
 2880      2A2A2A2A 
 2880      0D0A00
 2881 014a 0000     		.space	2
 2882              	.LC33:
 2883 014c 2A202020 		.ascii	"*                                                  "
 2883      20202020 
 2883      20202020 
 2883      20202020 
 2883      20202020 
 2884 017f 20202020 		.ascii	"       *\015\012\000"
 2884      2020202A 
 2884      0D0A00
 2885 018a 0000     		.space	2
 2886              	.LC34:
 2887 018c 2A202020 		.ascii	"*                 Simple SDR Reciever              "
 2887      20202020 
 2887      20202020 
 2887      20202020 
 2887      20205369 
 2888 01bf 20202020 		.ascii	"       *\015\012\000"
 2888      2020202A 
 2888      0D0A00
 2889 01ca 0000     		.space	2
 2890              	.LC35:
 2891 01cc 2A202020 		.ascii	"*               for CY8KIT-059 (PSoC-5LP)          "
 2891      20202020 
 2891      20202020 
 2891      20202020 
 2891      666F7220 
 2892 01ff 20202020 		.ascii	"       *\015\012\000"
 2892      2020202A 
 2892      0D0A00
 2893 020a 0000     		.space	2
 2894              	.LC36:
 2895 020c 2A202020 		.ascii	"*                     (ver.0.0.1)                  "
 2895      20202020 
 2895      20202020 
 2895      20202020 
 2895      20202020 
 2896 023f 20202020 		.ascii	"       *\015\012\000"
 2896      2020202A 
 2896      0D0A00
 2897 024a 0000     		.space	2
 2898              	.LC37:
 2899 024c 48616D20 		.ascii	"Ham Radio Deluxe equivalent commands are enabled.\015"
 2899      52616469 
 2899      6F204465 
 2899      6C757865 
 2899      20657175 
 2900 027e 0A00     		.ascii	"\012\000"
 2901              		.text
 2902              	.Letext0:
 2903              		.file 2 "c:\\program files (x86)\\cypress\\psoc creator\\4.0\\psoc creator\\import\\gnu\\arm\\4.9.
 2904              		.file 3 "c:\\program files (x86)\\cypress\\psoc creator\\4.0\\psoc creator\\import\\gnu\\arm\\4.9.
 2905              		.file 4 "c:\\program files (x86)\\cypress\\psoc creator\\4.0\\psoc creator\\import\\gnu\\arm\\4.9.
ARM GAS  C:\Users\koseki\AppData\Local\Temp\ccT0XNG9.s 			page 77


 2906              		.file 5 "Generated_Source\\PSoC5/cytypes.h"
 2907              		.file 6 "..\\FreeRTOS/projdefs.h"
 2908              		.file 7 "..\\FreeRTOS/portmacro.h"
 2909              		.file 8 "..\\FreeRTOS/task.h"
 2910              		.file 9 "..\\FreeRTOS/queue.h"
 2911              		.file 10 "..\\FreeRTOS/semphr.h"
 2912              		.file 11 "Generated_Source\\PSoC5/Filter_PVT.h"
 2913              		.file 12 "Generated_Source\\PSoC5/core_cm3.h"
 2914              		.file 13 "Generated_Source\\PSoC5/BLUELED.h"
 2915              		.file 14 "Generated_Source\\PSoC5/ADC.h"
 2916              		.file 15 "..\\API/I2C_CLCD.h"
 2917              		.file 16 "Generated_Source\\PSoC5/Filter.h"
 2918              		.file 17 "c:\\program files (x86)\\cypress\\psoc creator\\4.0\\psoc creator\\import\\gnu\\arm\\4.9
 2919              		.file 18 "Generated_Source\\PSoC5/SPIM.h"
 2920              		.file 19 "c:\\program files (x86)\\cypress\\psoc creator\\4.0\\psoc creator\\import\\gnu\\arm\\4.9
 2921              		.file 20 "Generated_Source\\PSoC5/CyLib.h"
 2922              		.file 21 "Generated_Source\\PSoC5/I2C_1.h"
 2923              		.file 22 "Generated_Source\\PSoC5/Comp_1.h"
 2924              		.file 23 "Generated_Source\\PSoC5/VDAC_1.h"
 2925              		.file 24 "Generated_Source\\PSoC5/VDAC.h"
 2926              		.file 25 "Generated_Source\\PSoC5/ADC_IRQ.h"
 2927              		.file 26 "Generated_Source\\PSoC5/isr_adc.h"
 2928              		.file 27 "Generated_Source\\PSoC5/EEPROM.h"
 2929              		.file 28 "Generated_Source\\PSoC5/CyFlash.h"
 2930              		.file 29 "USBUART_API.h"
 2931              		.file 30 "Generated_Source\\PSoC5/USBUART_cdc.h"
 2932              		.file 31 "main.h"
 2933              		.file 32 "Generated_Source\\PSoC5/USBUART.h"
 2934              		.file 33 "<built-in>"
 2935              		.file 34 "Generated_Source\\PSoC5/LED.h"