ARM GAS  C:\Users\koseki\AppData\Local\Temp\ccT0XNG9.s 			page 1


   1              		.syntax unified
   2              		.cpu cortex-m3
   3              		.fpu softvfp
   4              		.eabi_attribute 20, 1
   5              		.eabi_attribute 21, 1
   6              		.eabi_attribute 23, 3
   7              		.eabi_attribute 24, 1
   8              		.eabi_attribute 25, 1
   9              		.eabi_attribute 26, 1
  10              		.eabi_attribute 30, 1
  11              		.eabi_attribute 34, 1
  12              		.eabi_attribute 18, 4
  13              		.thumb
  14              		.file	"main.c"
  15              		.text
  16              	.Ltext0:
  17              		.cfi_sections	.debug_frame
  18              		.section	.text.Task_LED,"ax",%progbits
  19              		.align	2
  20              		.global	Task_LED
  21              		.thumb
  22              		.thumb_func
  23              		.type	Task_LED, %function
  24              	Task_LED:
  25              	.LFB69:
  26              		.file 1 "main.c"
   1:main.c        **** //----------------------------------------------------------------------------
   2:main.c        **** //
   3:main.c        **** //	SIMPLE SDR RECEIVER PSoC3 FIRMWARE for Hardware Rev -
   4:main.c        **** //
   5:main.c        **** //	Copyright 2011 Simple Circuits Inc.
   6:main.c        **** //
   7:main.c        **** //	06/03/2011	Original release.
   8:main.c        **** //
   9:main.c        **** //
  10:main.c        **** //
  11:main.c        **** //	ADC sample rate is 32068 sps total, or 16034 sps per channel
  12:main.c        **** //
  13:main.c        **** //----------------------------------------------------------------------------
  14:main.c        **** //
  15:main.c        **** // PSoC3 => PSoC5LP
  16:main.c        **** //
  17:main.c        **** //  Sumio Koseki (JA7RHK)
  18:main.c        **** //	05/28/2017
  19:main.c        **** //
  20:main.c        **** //----------------------------------------------------------------------------
  21:main.c        **** #include <string.h>
  22:main.c        **** #include <stdio.h>
  23:main.c        **** #include <math.h>
  24:main.c        **** #include "main.h"
  25:main.c        **** // FreeRTOS
  26:main.c        **** #include "FreeRTOS.h"
  27:main.c        **** #include "task.h"
  28:main.c        **** #include "queue.h"
  29:main.c        **** #include "semphr.h"
  30:main.c        **** // API
  31:main.c        **** #include "rot.h"
ARM GAS  C:\Users\koseki\AppData\Local\Temp\ccT0XNG9.s 			page 2


  32:main.c        **** #include "key.h"
  33:main.c        **** #include "I2C_CLCD.h"
  34:main.c        **** #include "USBUART_API.h"
  35:main.c        **** 
  36:main.c        **** //----------------------------------------------------------------------------
  37:main.c        **** //
  38:main.c        **** //	Constants
  39:main.c        **** //
  40:main.c        **** //----------------------------------------------------------------------------
  41:main.c        **** // PSoC3 => PSoC5LP
  42:main.c        **** #define	FREQ_START			"00891000"			// in ASCII BCD chars
  43:main.c        **** #define	FREQ_PLL_TEST		"00457000"			// pll lock test frequency
  44:main.c        **** #define	FREQ_LOW			100000              // 100kHz
  45:main.c        **** #define	FREQ_HIGH		    8000000             // 8MHz
  46:main.c        **** #define USBUART_TIMEOUT 2000000 // Timeout for USB Connection (adjustment might be required)
  47:main.c        **** //#define DEBUG_USBUART       // Debug Mode
  48:main.c        **** 
  49:main.c        **** const uint8 HEX2ASCII [] = {"0123456789ABCDEF"};
  50:main.c        **** extern const uint8 CYCODE Filter_data_b_2500[];	// FIR coefficients
  51:main.c        **** extern const uint8 CYCODE Filter_data_b_2000[];	// FIR coefficients
  52:main.c        **** extern const uint8 CYCODE Filter_data_b_1500[];	// FIR coefficients
  53:main.c        **** extern const uint8 CYCODE Filter_data_b_cw[];	// FIR coefficients
  54:main.c        **** extern const uint8 CYCODE Filter_data_b_am[];	// FIR coefficients
  55:main.c        **** extern const int32 CYCODE Hilbert [];			// Hilbert tranformer coefficients
  56:main.c        **** 
  57:main.c        **** // PSoC3 => PSoC5LP
  58:main.c        **** #define PARAM_MAX  8
  59:main.c        **** reg8 *pFREQ_ERROR = (reg8*)(CYDEV_EE_BASE + 16 * FQ_ROW);
  60:main.c        **** reg8 *pSERIAL_NUM = (reg8*)(CYDEV_EE_BASE + 16 * SN_ROW);
  61:main.c        **** uint8 FREQ_ERROR[PARAM_MAX];    // freq offset is 1st row of eeprom
  62:main.c        **** uint8 SERIAL_NUM[PARAM_MAX];    // serial number is 2nd row of eeprom
  63:main.c        **** 
  64:main.c        **** // PSoC3 => PSoC5LP
  65:main.c        **** volatile uint32 gUSBUART_Ready;
  66:main.c        **** 
  67:main.c        **** //----------------------------------------------------------------------------
  68:main.c        **** //
  69:main.c        **** // Channel Selecton
  70:main.c        **** //
  71:main.c        **** //----------------------------------------------------------------------------
  72:main.c        **** #define STATION_MAX 7
  73:main.c        **** 
  74:main.c        **** typedef struct
  75:main.c        **** {
  76:main.c        ****     char    Name[5];
  77:main.c        ****     uint32  Freq;
  78:main.c        ****     uint32  Offset;
  79:main.c        ****     uint32  Step;
  80:main.c        ****     uint8   Mode;
  81:main.c        ****     uint8   Filter;
  82:main.c        **** } Station;
  83:main.c        **** 
  84:main.c        **** Station station[STATION_MAX] = 
  85:main.c        **** {
  86:main.c        ****     {"NHK1 ", 891000, 0, 1, MODE_USB, FILTER_AM },
  87:main.c        ****     {"NHK2 ", 1089000, 0, 1, MODE_USB, FILTER_AM },
  88:main.c        ****     {"TBC  ", 1260000, 0, 1, MODE_USB, FILTER_AM },
ARM GAS  C:\Users\koseki\AppData\Local\Temp\ccT0XNG9.s 			page 3


  89:main.c        ****     {"NHK1 ", 891000, 4000, 1000, MODE_AM, FILTER_AM },       // AM IF = 4 kHz
  90:main.c        ****     {"NHK2 ", 1089000, 4000, 1000, MODE_AM, FILTER_AM },
  91:main.c        ****     {"TBC  ", 1260000, 4000, 1000, MODE_AM, FILTER_AM },
  92:main.c        ****     {"BCON ", 457000, 800, 10, MODE_CW, FILTER_FL4 },        // CW BFO = 800Hz
  93:main.c        **** };
  94:main.c        **** 
  95:main.c        **** //
  96:main.c        **** //----------------------------------------------------------------------------
  97:main.c        **** //
  98:main.c        **** //	Global variables
  99:main.c        **** //
 100:main.c        **** //----------------------------------------------------------------------------
 101:main.c        **** uint8	Freq [8];					// receive frequency in ASCII BCD
 102:main.c        **** uint8	LastFreq [8];				// copy of last tuned rx frequency
 103:main.c        **** int32	Frequency;					// receive frequency in binary
 104:main.c        **** int32	FrequencyError;				// frequency error at 10 MHz
 105:main.c        **** 
 106:main.c        **** uint8	ComRxCmd [32];				// remote command rx buffer
 107:main.c        **** uint8	ComRxPtr;					// pointer into com rx buffer
 108:main.c        **** //uint8	UsbTxBuffer [64];			// USB transmit buffer
 109:main.c        **** uint8	UsbTxBuffer [80];			// USB transmit buffer
 110:main.c        **** uint8	UsbRxBuffer [256];			// USB receive buffer
 111:main.c        **** 
 112:main.c        **** uint8	AdcTick;					// ADC interrupt flag every 6.521 msec
 113:main.c        **** int16	IDCOffset, QDCOffset;		// DC offset values for ADC input
 114:main.c        **** int16	AdcPeak, AdcPeakAve;		// ADC input peak value, and its average
 115:main.c        **** uint8	AgcDisable;					// Agc disable flag
 116:main.c        **** uint8	AgcGain;					// AGC for ADC input
 117:main.c        **** uint8	AgcTimer;					// AGC processing timer
 118:main.c        **** uint8	AgcIntegrator;				// AGC integrator
 119:main.c        **** uint32	AgcIndicator;				// AGC signal strength indicatior
 120:main.c        **** uint8	AgcTimeConstant;			// AGC time constant
 121:main.c        **** 
 122:main.c        **** uint8	LedTimer;					// LED on timer
 123:main.c        **** uint8	DisplayIndex;				// index for status display
 124:main.c        **** 
 125:main.c        **** uint8	Filter;						// audio filter bandwidth selection
 126:main.c        **** uint8	Mode;						// operating mode
 127:main.c        **** uint8	UpperSideBand;				// upper side band mode selection
 128:main.c        **** uint8	AttenuatorOn;				// rx attenuator on/off flag
 129:main.c        **** uint8	Squelch;					// squelch level, 0 - 250.
 130:main.c        **** uint8	Debug;						// debug mode flag, turns off boundary checks
 131:main.c        **** uint8   Ch;                         // channel number (2017.5.31)koseki
 132:main.c        **** 
 133:main.c        **** // ADC Interrupt Handler
 134:main.c        **** uint8	AdcState;					// IQ channel processing flag
 135:main.c        **** int16	IDelay [64];
 136:main.c        **** uint8	IDelayPtr;
 137:main.c        **** 
 138:main.c        **** //----------------------------------------------------------------------------
 139:main.c        **** //
 140:main.c        **** //	Resources for FreeRTOS
 141:main.c        **** //
 142:main.c        **** //----------------------------------------------------------------------------
 143:main.c        **** #define TASK_STACK_LED   128
 144:main.c        **** #define TASK_STACK_KEY   128
 145:main.c        **** #define TASK_STACK_ROT   128
ARM GAS  C:\Users\koseki\AppData\Local\Temp\ccT0XNG9.s 			page 4


 146:main.c        **** #define TASK_STACK_CLCD  512
 147:main.c        **** #define TASK_STACK_USBUART  512
 148:main.c        **** #define TASK_STACK_RADIO    512
 149:main.c        **** 
 150:main.c        **** #define TASK_PRIORITY_LED   (tskIDLE_PRIORITY + 3)
 151:main.c        **** #define TASK_PRIORITY_KEY   (tskIDLE_PRIORITY + 3)
 152:main.c        **** #define TASK_PRIORITY_ROT   (tskIDLE_PRIORITY + 3)
 153:main.c        **** #define TASK_PRIORITY_CLCD  (tskIDLE_PRIORITY + 2)
 154:main.c        **** #define TASK_PRIORITY_USBUART   (tskIDLE_PRIORITY + 2)
 155:main.c        **** #define TASK_PRIORITY_RADIO     (tskIDLE_PRIORITY + 2)
 156:main.c        **** 
 157:main.c        **** void Task_LED   (void *pvParameters);
 158:main.c        **** void Task_KEY   (void *pvParameters);   // .\Utility\key.c
 159:main.c        **** void Task_ROT   (void *pvParameters);   // .\Utility\rot.c
 160:main.c        **** void Task_CLCD  (void *pvParameters);
 161:main.c        **** void Task_USBUART   (void *pvParameters);
 162:main.c        **** void Task_RADIO     (void *pvParameters);
 163:main.c        **** 
 164:main.c        **** xSemaphoreHandle xMutex_DDS;    // Mutex for Parameter Control
 165:main.c        **** 
 166:main.c        **** xQueueHandle xQueue_KEY[2];     // Task_KEY -> Task_CCD
 167:main.c        **** xQueueHandle xQueue_ROT;        // Task_ROT -> Task_CCD
 168:main.c        **** xQueueHandle xQueue_FREQ;       // Task_USB -> Task_CCD
 169:main.c        **** 
 170:main.c        **** // Function Prototypes
 171:main.c        **** void prvHardwareSetup(void);
 172:main.c        **** void CORDIC(int32 x, int32 y, int32 *radius);
 173:main.c        **** 
 174:main.c        **** //----------------------------------------------------------------------------
 175:main.c        **** //
 176:main.c        **** //	MAIN
 177:main.c        **** //
 178:main.c        **** //----------------------------------------------------------------------------
 179:main.c        **** //void main()
 180:main.c        **** int main()
 181:main.c        **** {
 182:main.c        ****     prvHardwareSetup();
 183:main.c        **** 
 184:main.c        **** 	Initialize ();
 185:main.c        **** 
 186:main.c        ****     /* Create Tasks */
 187:main.c        ****     xMutex_DDS = xSemaphoreCreateMutex();
 188:main.c        ****     xQueue_ROT    = xQueueCreate(8, 1);     // 8 x 1byte
 189:main.c        ****     xQueue_KEY[0] = xQueueCreate(1, 1);     // 1 x 1byte
 190:main.c        ****     xQueue_KEY[1] = xQueueCreate(1, 1);     // 1 x 1byte
 191:main.c        ****     xQueue_FREQ  = xQueueCreate(1, 1);      // 1 x 1bytes
 192:main.c        **** 
 193:main.c        ****     CyDelay(1000u);
 194:main.c        **** 
 195:main.c        ****     xTaskCreate(Task_LED, "LED", TASK_STACK_LED, NULL, TASK_PRIORITY_LED, NULL);
 196:main.c        ****     xTaskCreate(Task_ROT, "ROT", TASK_STACK_ROT, NULL, TASK_PRIORITY_ROT, NULL);
 197:main.c        ****     xTaskCreate(Task_KEY, "KEY", TASK_STACK_KEY, NULL, TASK_PRIORITY_KEY, NULL);
 198:main.c        ****     xTaskCreate(Task_CLCD, "CLCD", TASK_STACK_CLCD, NULL, TASK_PRIORITY_CLCD, NULL);
 199:main.c        ****     xTaskCreate(Task_USBUART, "USBUART", TASK_STACK_USBUART, NULL, TASK_PRIORITY_USBUART, NULL);
 200:main.c        ****     xTaskCreate(Task_RADIO, "RADIO", TASK_STACK_RADIO, NULL, TASK_PRIORITY_RADIO, NULL);
 201:main.c        **** 
 202:main.c        ****     /* Start RTOS Kernel */
ARM GAS  C:\Users\koseki\AppData\Local\Temp\ccT0XNG9.s 			page 5


 203:main.c        ****     vTaskStartScheduler();
 204:main.c        ****     
 205:main.c        ****     for(;;)
 206:main.c        ****     {
 207:main.c        ****         /* Place your application code here. */
 208:main.c        ****     }
 209:main.c        **** }
 210:main.c        **** 
 211:main.c        **** //----------------------------------------------------------------------------
 212:main.c        **** //
 213:main.c        **** //	Initialize and configure hardware, initialize variables
 214:main.c        **** //
 215:main.c        **** //----------------------------------------------------------------------------
 216:main.c        **** void Initialize (void)
 217:main.c        **** {
 218:main.c        ****     uint32 i;
 219:main.c        ****     char str[20];
 220:main.c        ****     uint8  w[5] = {0u, 0u, 0u, 0u, 0u};
 221:main.c        ****     
 222:main.c        **** 	CyDelay (100);					// delay in msec
 223:main.c        ****     
 224:main.c        ****     // PSoC3 => DDS, I2C_CLCD
 225:main.c        ****     SPIM_Start();
 226:main.c        ****     I2C_1_Start();
 227:main.c        ****     I2C_CLCD_Start();
 228:main.c        **** 
 229:main.c        ****     // Start Input Comp
 230:main.c        ****     Comp_1_Start();
 231:main.c        **** 	VDAC_1_Start ();					// start DAC output
 232:main.c        **** 
 233:main.c        **** 	//CyPins_SetPin (TP2_OUT_0);
 234:main.c        **** 	//CyPins_SetPin (REDLED_0);		// red led off
 235:main.c        ****     
 236:main.c        **** 	Filter_Start ();				// start FIR filter
 237:main.c        **** 	VDAC_Start ();					// start DAC output
 238:main.c        **** 	
 239:main.c        **** 	ADC_Start ();					// power up and start 16 bit ADC
 240:main.c        **** 	ADC_IRQ_Enable ();
 241:main.c        ****     isr_adc_StartEx(ADC_ISR_Handler);
 242:main.c        **** 	ADC_StartConvert ();			// start conversions
 243:main.c        ****     
 244:main.c        **** 	CyDelay (100);					// delay in msec
 245:main.c        **** 
 246:main.c        ****     I2C_CLCD_ClearLine(0u);
 247:main.c        ****     I2C_CLCD_ClearLine(1u);
 248:main.c        **** 	
 249:main.c        **** 	// initialize vars
 250:main.c        **** 	Filter = FILTER_FL2;			// selects 2000 Hz LPF
 251:main.c        **** 	SetMode (MODE_USB);
 252:main.c        **** 	IDCOffset = QDCOffset = 0x500;	// preset offset for better settling time
 253:main.c        ****     AgcTimeConstant = 4;            // Default AGC Time constant
 254:main.c        **** 
 255:main.c        ****     // set DDS to default frequency
 256:main.c        ****     SPIM_WriteTxData(w[0]);
 257:main.c        ****     SPIM_WriteTxData(w[1]);
 258:main.c        ****     SPIM_WriteTxData(w[2]);
 259:main.c        ****     SPIM_WriteTxData(w[3]);
ARM GAS  C:\Users\koseki\AppData\Local\Temp\ccT0XNG9.s 			page 6


 260:main.c        ****     SPIM_WriteTxData(w[4]);
 261:main.c        **** 
 262:main.c        **** 	EEPROM_Start ();				// power up eeprom
 263:main.c        **** 
 264:main.c        **** 	CyDelay (100);					// delay in msec
 265:main.c        ****     
 266:main.c        ****     // PSoC3 => PSoC5LP
 267:main.c        ****     for (i = 0; i < PARAM_MAX; i++)
 268:main.c        ****         SERIAL_NUM[i] = pSERIAL_NUM[i];
 269:main.c        **** 
 270:main.c        ****     if (SERIAL_NUM [0] != '0')
 271:main.c        **** 	{
 272:main.c        **** 		CySetTemp ();				// acquire die temperature before writing eeprom
 273:main.c        **** 		EEPROM_Write ((uint8*)"00000000", SN_ROW);	// write and wait for completion
 274:main.c        ****         // AD9850_DDS
 275:main.c        **** 		EEPROM_Write ((uint8*)"5000000", FQ_ROW);	// write and wait for completion
 276:main.c        **** 	}
 277:main.c        **** 
 278:main.c        **** 	FrequencyError = 0;
 279:main.c        **** 	//memcpy (Freq, FREQ_PLL_TEST, 8);// initialize the clock generator output frequency
 280:main.c        **** 	//SetFrequency ();
 281:main.c        **** 
 282:main.c        **** 	CyDelay (200);					// delay in msec
 283:main.c        **** 	CYGlobalIntEnable;
 284:main.c        **** 	
 285:main.c        ****     // PSoC3 => PSoC5LP
 286:main.c        ****     for (i = 0; i < PARAM_MAX; i++)
 287:main.c        ****         FREQ_ERROR[i] = pFREQ_ERROR[i];
 288:main.c        ****         
 289:main.c        ****     // AD9850 DDS
 290:main.c        **** 	FrequencyError = 5000000 - BinaryFrequency (FREQ_ERROR);	// 5MHz
 291:main.c        ****     if ((FrequencyError > 1000) || (FrequencyError < -1000))	// bounds checking
 292:main.c        **** 		FrequencyError = 0;
 293:main.c        **** 	memcpy (Freq, FREQ_START, 8);			// initialize the clock generator output frequency
 294:main.c        **** 	SetFrequency ();
 295:main.c        **** 
 296:main.c        ****     // CLCD display station
 297:main.c        ****     sprintf(str, "%5s", station[Ch].Name);
 298:main.c        ****     I2C_CLCD_Position(0u, 0u);
 299:main.c        ****     I2C_CLCD_PrintString(str);
 300:main.c        **** }
 301:main.c        **** 
 302:main.c        **** //----------------------------------------------------------------------------
 303:main.c        **** void prvHardwareSetup( void )
 304:main.c        **** {
 305:main.c        ****     /* Port layer functions that need to be copied into the vector table. */
 306:main.c        ****     extern void xPortPendSVHandler( void );
 307:main.c        ****     extern void xPortSysTickHandler( void );
 308:main.c        ****     extern void vPortSVCHandler( void );
 309:main.c        ****     extern cyisraddress CyRamVectors[];
 310:main.c        **** 
 311:main.c        **** 	/* Install the OS Interrupt Handlers. */
 312:main.c        **** 	CyRamVectors[ 11 ] = ( cyisraddress ) vPortSVCHandler;
 313:main.c        **** 	CyRamVectors[ 14 ] = ( cyisraddress ) xPortPendSVHandler;
 314:main.c        **** 	CyRamVectors[ 15 ] = ( cyisraddress ) xPortSysTickHandler;
 315:main.c        ****     
 316:main.c        **** }
ARM GAS  C:\Users\koseki\AppData\Local\Temp\ccT0XNG9.s 			page 7


 317:main.c        **** //----------------------------------------------------------------------------
 318:main.c        **** 
 319:main.c        **** void vApplicationStackOverflowHook( TaskHandle_t pxTask, char *pcTaskName )
 320:main.c        **** {
 321:main.c        **** 	/* The stack space has been execeeded for a task, considering allocating more. */
 322:main.c        **** 	taskDISABLE_INTERRUPTS();
 323:main.c        **** 	for( ;; );
 324:main.c        **** }
 325:main.c        **** //----------------------------------------------------------------------------
 326:main.c        **** 
 327:main.c        **** void vApplicationMallocFailedHook( void )
 328:main.c        **** {
 329:main.c        **** 	/* The heap space has been execeeded. */
 330:main.c        **** 	taskDISABLE_INTERRUPTS();
 331:main.c        **** 	for( ;; );
 332:main.c        **** }
 333:main.c        **** //----------------------------------------------------------------------------
 334:main.c        **** 
 335:main.c        **** 
 336:main.c        **** //============================================================================
 337:main.c        **** //
 338:main.c        **** //	Task_LED
 339:main.c        **** //
 340:main.c        **** //============================================================================
 341:main.c        **** void Task_LED(void *pvParameters)
 342:main.c        **** {
  27              		.loc 1 342 0
  28              		.cfi_startproc
  29              		@ args = 0, pretend = 0, frame = 0
  30              		@ frame_needed = 0, uses_anonymous_args = 0
  31              	.LVL0:
  32 0000 08B5     		push	{r3, lr}
  33              		.cfi_def_cfa_offset 8
  34              		.cfi_offset 3, -8
  35              		.cfi_offset 14, -4
  36              	.LVL1:
  37              	.L2:
 343:main.c        ****     /* Block time in (ms) */
 344:main.c        ****     const portTickType OnDelay = 100 / portTICK_RATE_MS;
 345:main.c        ****     const portTickType OffDelay = 900 / portTICK_RATE_MS;
 346:main.c        **** 
 347:main.c        ****     while(1)
 348:main.c        ****     {
 349:main.c        ****         BLUELED_Write(1u);
  38              		.loc 1 349 0 discriminator 1
  39 0002 0120     		movs	r0, #1
  40 0004 FFF7FEFF 		bl	BLUELED_Write
  41              	.LVL2:
 350:main.c        ****         vTaskDelay(OnDelay);
  42              		.loc 1 350 0 discriminator 1
  43 0008 6420     		movs	r0, #100
  44 000a FFF7FEFF 		bl	vTaskDelay
  45              	.LVL3:
 351:main.c        ****         
 352:main.c        ****         BLUELED_Write(0u);
  46              		.loc 1 352 0 discriminator 1
  47 000e 0020     		movs	r0, #0
ARM GAS  C:\Users\koseki\AppData\Local\Temp\ccT0XNG9.s 			page 8


  48 0010 FFF7FEFF 		bl	BLUELED_Write
  49              	.LVL4:
 353:main.c        ****         vTaskDelay(OffDelay);
  50              		.loc 1 353 0 discriminator 1
  51 0014 4FF46170 		mov	r0, #900
  52 0018 FFF7FEFF 		bl	vTaskDelay
  53              	.LVL5:
 354:main.c        ****     }
  54              		.loc 1 354 0 discriminator 1
  55 001c F1E7     		b	.L2
  56              		.cfi_endproc
  57              	.LFE69:
  58              		.size	Task_LED, .-Task_LED
  59 001e 00BF     		.section	.text.ADC_ISR_Handler,"ax",%progbits
  60              		.align	2
  61              		.global	ADC_ISR_Handler
  62              		.thumb
  63              		.thumb_func
  64              		.type	ADC_ISR_Handler, %function
  65              	ADC_ISR_Handler:
  66              	.LFB80:
 355:main.c        **** }
 356:main.c        **** 
 357:main.c        **** 
 358:main.c        **** //============================================================================
 359:main.c        **** //
 360:main.c        **** //	Task_CLCD
 361:main.c        **** //
 362:main.c        **** //============================================================================
 363:main.c        **** // CLCD Display
 364:main.c        **** //  0123456789012345
 365:main.c        **** // ------------------
 366:main.c        **** // |NHK1 _891000[Hz]|
 367:main.c        **** // |USB  FW=4.0k S46|
 368:main.c        **** //
 369:main.c        **** #define cNAME  0u
 370:main.c        **** #define cFREQ  5u
 371:main.c        **** #define cMD  0u
 372:main.c        **** #define cFW  5u
 373:main.c        **** #define cAGC 13u
 374:main.c        **** 
 375:main.c        **** void Task_CLCD(void *pvParameters)
 376:main.c        **** {
 377:main.c        ****     int8   click;
 378:main.c        ****     uint8  qmsg;
 379:main.c        ****     uint32 step_freq;
 380:main.c        ****     uint8 cnt = 0x20;
 381:main.c        ****     char str[20];
 382:main.c        ****     const portTickType xDelay = 100 / portTICK_RATE_MS;
 383:main.c        **** 
 384:main.c        ****     AgcIndicator = 0;
 385:main.c        ****     I2C_CLCD_Position(1u, cAGC);
 386:main.c        ****     I2C_CLCD_PrintString("S__");
 387:main.c        **** 
 388:main.c        ****     // Default channel set
 389:main.c        ****     Ch = 0;
 390:main.c        ****     ChannelSet(Ch);
ARM GAS  C:\Users\koseki\AppData\Local\Temp\ccT0XNG9.s 			page 9


 391:main.c        ****     
 392:main.c        ****     // Main Loop
 393:main.c        ****  	while (1)
 394:main.c        **** 	{
 395:main.c        ****         xSemaphoreTake(xMutex_DDS, portMAX_DELAY);
 396:main.c        ****         
 397:main.c        ****         // Get click count of ROT
 398:main.c        ****         if (uxQueueMessagesWaiting(xQueue_ROT) > 0)
 399:main.c        ****         {
 400:main.c        ****             xQueueReceive(xQueue_ROT, &click, 0);
 401:main.c        ****             // target frequency
 402:main.c        ****             step_freq = station[Ch].Step;
 403:main.c        ****             sprintf((char*)Freq, "%08ld", Frequency + (click * step_freq));
 404:main.c        ****             SetFrequency();
 405:main.c        ****         }
 406:main.c        ****         if (xQueueReceive(xQueue_KEY[0], &qmsg, 0))
 407:main.c        ****         {
 408:main.c        ****             Ch++;
 409:main.c        ****             if (Ch >= STATION_MAX)
 410:main.c        ****                 Ch = 0;
 411:main.c        ****             ChannelSet(Ch);
 412:main.c        ****         }
 413:main.c        ****         if (xQueueReceive(xQueue_KEY[1], &qmsg, 0))
 414:main.c        ****         {
 415:main.c        ****             if (Ch == 0)
 416:main.c        ****                 Ch = STATION_MAX - 1;
 417:main.c        ****             else
 418:main.c        ****                 Ch--;
 419:main.c        ****             ChannelSet(Ch);
 420:main.c        ****         }
 421:main.c        **** 
 422:main.c        ****         cnt--;
 423:main.c        ****         if ((cnt & 0x07) == 0)
 424:main.c        ****             AgcIndicator += (64 - AgcGain);
 425:main.c        ****         if (cnt == 0)
 426:main.c        ****         {
 427:main.c        ****             sprintf(str, "S%02d", (uint8)(AgcIndicator >> 2));
 428:main.c        ****             I2C_CLCD_Position(1u, cAGC);
 429:main.c        ****             I2C_CLCD_PrintString(str);
 430:main.c        ****             cnt = 0x20;
 431:main.c        ****             AgcIndicator = 0;
 432:main.c        ****         }
 433:main.c        ****         xSemaphoreGive(xMutex_DDS);
 434:main.c        **** 
 435:main.c        ****         vTaskDelay(xDelay);
 436:main.c        ****     }
 437:main.c        **** }
 438:main.c        **** 
 439:main.c        **** //
 440:main.c        **** //	Update the selected channel
 441:main.c        **** //
 442:main.c        **** void ChannelSet(uint8 ch)
 443:main.c        **** {
 444:main.c        ****     char str[20];
 445:main.c        **** 
 446:main.c        ****     // setup the new station
 447:main.c        ****     sprintf((char*)Freq, "%08ld", station[Ch].Freq);
ARM GAS  C:\Users\koseki\AppData\Local\Temp\ccT0XNG9.s 			page 10


 448:main.c        ****     SetFrequency();
 449:main.c        ****     Mode = station[ch].Mode;
 450:main.c        **** 	SetMode(Mode);
 451:main.c        ****     Filter = station[ch].Filter;
 452:main.c        ****     LoadFilter(Filter);
 453:main.c        ****     
 454:main.c        ****     sprintf(str, "%s", station[ch].Name);
 455:main.c        ****     I2C_CLCD_Position(0u, cNAME);
 456:main.c        ****     I2C_CLCD_PrintString(str);
 457:main.c        ****     
 458:main.c        ****     AgcIndicator = 0;   // reset signal strength indicatior
 459:main.c        **** }
 460:main.c        **** 
 461:main.c        **** //
 462:main.c        **** //	Load DFB filter data into coefficient RAM
 463:main.c        **** //
 464:main.c        **** void LoadFilter (uint8 fltr)
 465:main.c        **** {
 466:main.c        **** 	uint8 i, j;
 467:main.c        **** 	int32 x;
 468:main.c        **** 	uint8 xbuf [256];
 469:main.c        **** 
 470:main.c        **** 	// Put DFB RAM on the bus
 471:main.c        ****     Filter_RAM_DIR_REG = Filter_RAM_DIR_BUS;
 472:main.c        **** 
 473:main.c        **** 	if (fltr == FILTER_FL1)
 474:main.c        ****         cymemcpy(Filter_DB_RAM, Filter_data_b_2500, Filter_DB_RAM_SIZE);
 475:main.c        **** 	else if (fltr == FILTER_FL2)
 476:main.c        ****         cymemcpy(Filter_DB_RAM, Filter_data_b_2000, Filter_DB_RAM_SIZE);
 477:main.c        **** 	else if (fltr == FILTER_FL3)
 478:main.c        ****         cymemcpy(Filter_DB_RAM, Filter_data_b_1500, Filter_DB_RAM_SIZE);
 479:main.c        **** 	else if (fltr == FILTER_FL4)
 480:main.c        ****         cymemcpy(Filter_DB_RAM, Filter_data_b_cw, Filter_DB_RAM_SIZE);
 481:main.c        **** 	else if (fltr == FILTER_AM)
 482:main.c        ****         cymemcpy(Filter_DB_RAM, Filter_data_b_am, Filter_DB_RAM_SIZE);
 483:main.c        **** 	else if (fltr == FILTER_RST)
 484:main.c        ****         cymemcpy(Filter_DB_RAM, Filter_data_b, Filter_DB_RAM_SIZE);
 485:main.c        **** 
 486:main.c        ****     // copy Hilbert filter coefficients into filter channel B ram
 487:main.c        **** 	j = 0;
 488:main.c        **** 	for (i = 0; i < 64; i++) 
 489:main.c        **** 	{
 490:main.c        **** 		x = Hilbert [i];
 491:main.c        **** 		xbuf [j++] = x & 0xFF;
 492:main.c        **** 		xbuf [j++] = (x >> 8) & 0xFF;
 493:main.c        **** 		xbuf [j++] = (x >> 16) & 0xFF;
 494:main.c        **** 		xbuf [j++] = 0;
 495:main.c        **** 	}
 496:main.c        **** 	cymemcpy(Filter_DB_RAM + 256, xbuf, Filter_DB_RAM_SIZE / 2);
 497:main.c        **** 		
 498:main.c        **** 	// Take DFB RAM off the bus
 499:main.c        **** 	Filter_RAM_DIR_REG = Filter_RAM_DIR_DFB;
 500:main.c        ****     
 501:main.c        ****     // CLCD Display "filter band width"
 502:main.c        ****     char str[20];
 503:main.c        ****     switch(fltr)
 504:main.c        ****     {
ARM GAS  C:\Users\koseki\AppData\Local\Temp\ccT0XNG9.s 			page 11


 505:main.c        ****         case FILTER_FL1:
 506:main.c        ****             sprintf(str,"FW=2.5k");
 507:main.c        ****             break;
 508:main.c        ****         case FILTER_FL2:
 509:main.c        ****             sprintf(str,"FW=2.0k");
 510:main.c        ****             break;
 511:main.c        ****         case FILTER_FL3:
 512:main.c        ****             sprintf(str,"FW=1.5k");
 513:main.c        ****             break;
 514:main.c        ****         case FILTER_FL4:
 515:main.c        ****             sprintf(str,"FW=0.4k");
 516:main.c        ****             break;
 517:main.c        ****         case FILTER_AM:
 518:main.c        ****             sprintf(str,"FW=4.0k");
 519:main.c        ****             break;
 520:main.c        ****         default:
 521:main.c        ****             break;
 522:main.c        ****     }
 523:main.c        ****     I2C_CLCD_Position(1u, cFW);
 524:main.c        ****     I2C_CLCD_PrintString(str);
 525:main.c        **** 
 526:main.c        **** }
 527:main.c        **** 
 528:main.c        **** //
 529:main.c        **** //	Frequency synthesizer set frequency
 530:main.c        **** //	Freq (MHz)  = (24/9) * (N + Frac/16384) / (4 * IQDividerRatio)
 531:main.c        **** //				= 2 * (N + Frac/16384) / (3 * IQDividerRatio)
 532:main.c        **** //
 533:main.c        **** void SetFrequency (void)
 534:main.c        **** {
 535:main.c        **** 	//uint8 pllN, iqDivider, fracLo, fracHi;
 536:main.c        **** 	uint32 frq;
 537:main.c        ****     // PSoC3 => DSS/CLCD control
 538:main.c        **** 	uint32 newfreq;
 539:main.c        ****     uint64 wdata;       // DDS set value for AD9850 using 125MHz X-tal */
 540:main.c        ****     uint8 w[5] = {0xf8u, 0x08u, 0x4cu, 0x07u, 0x00u};
 541:main.c        ****     uint8 i;
 542:main.c        ****     char str[20];
 543:main.c        **** 	
 544:main.c        **** 	if (!memcmp (Freq, LastFreq, 8))	// check if already tuned to that frequency
 545:main.c        **** 		return;							// ignore set frequency command and return
 546:main.c        **** 
 547:main.c        **** 	frq = BinaryFrequency (Freq);		// compute binary value from string
 548:main.c        **** 
 549:main.c        **** 	if ((!Debug) && ((frq < FREQ_LOW) || (frq > FREQ_HIGH))) // ignore frequencies outside tuning rang
 550:main.c        **** 	{
 551:main.c        **** 		memcpy (Freq, LastFreq, 8);	// restore last frequency allowed
 552:main.c        **** 		return;
 553:main.c        **** 	}
 554:main.c        **** 	memcpy (LastFreq, Freq, 8);
 555:main.c        **** 	Frequency = frq;				// save new receive frequency (binary form)
 556:main.c        ****     
 557:main.c        ****     // PSoC3 PLL => DSS/CLCD control
 558:main.c        **** 
 559:main.c        ****     // offset by frequency error (factory adjusted)
 560:main.c        **** 	frq += (( (int32) frq / 100) * FrequencyError) / 50000;
 561:main.c        ****     // (2017.5.31)koseki
ARM GAS  C:\Users\koseki\AppData\Local\Temp\ccT0XNG9.s 			page 12


 562:main.c        ****     frq += station[Ch].Offset;
 563:main.c        ****     // DDS frequency is quadruple of Rx frequency 
 564:main.c        ****     newfreq = frq * 4;
 565:main.c        ****     wdata = newfreq * 0x100000000u;
 566:main.c        ****     wdata /= 125000000;
 567:main.c        **** 
 568:main.c        ****     for (i = 0; i < 4; i++)
 569:main.c        ****         w[i] = (uint8)((wdata >> i * 8) & 0x000000FFu);
 570:main.c        ****     if ((frq < 40000000) && (frq > 0))
 571:main.c        ****     {
 572:main.c        ****         // mute the input signal during frequency changes
 573:main.c        ****     	AgcGain = 0;
 574:main.c        ****         // writing data to the SPIM software buffer
 575:main.c        ****         SPIM_WriteTxData(w[0]);
 576:main.c        ****         SPIM_WriteTxData(w[1]);
 577:main.c        ****         SPIM_WriteTxData(w[2]);
 578:main.c        ****         SPIM_WriteTxData(w[3]);
 579:main.c        ****         SPIM_WriteTxData(w[4]);
 580:main.c        ****         // We need to know the moment when SPI communication is complete
 581:main.c        ****         // to display received data. SPIS_SPI_DONE status should be polled. 
 582:main.c        ****         while(!(SPIM_ReadTxStatus() & SPIM_STS_SPI_DONE));
 583:main.c        ****         sprintf(str, "%7ld[Hz]", Frequency);
 584:main.c        ****     }
 585:main.c        ****     else
 586:main.c        ****         sprintf(str, "Error  [Hz]");
 587:main.c        ****         
 588:main.c        ****     I2C_CLCD_Position(0u, cFREQ);
 589:main.c        ****     I2C_CLCD_PrintString(str);
 590:main.c        **** 
 591:main.c        ****     CyDelay (1);
 592:main.c        **** }
 593:main.c        **** 
 594:main.c        **** //
 595:main.c        **** //	Set operating mode
 596:main.c        **** //
 597:main.c        **** void SetMode (uint8 md)
 598:main.c        **** {
 599:main.c        **** 	Mode = md;					// save operating mode
 600:main.c        ****     
 601:main.c        **** 	UpperSideBand = ((Mode == MODE_USB) || (Mode == MODE_CW) || (Mode == MODE_RTTY));
 602:main.c        **** 		
 603:main.c        **** 	if ((Mode == MODE_CW) || (Mode == MODE_CWREV))
 604:main.c        **** 		Filter = FILTER_FL4;
 605:main.c        **** 	//else if ((Mode <= MODE_USB) && (Filter == FILTER_FL4))
 606:main.c        **** 	else if ((Mode == MODE_USB) || (Mode == MODE_LSB))
 607:main.c        **** 		Filter = FILTER_FL2;
 608:main.c        ****     // (2017.6.1)koseki
 609:main.c        **** 	//LoadFilter (Filter);
 610:main.c        ****     
 611:main.c        ****     // CLCD Display "mode"
 612:main.c        ****     char str[20];
 613:main.c        ****     switch(Mode)
 614:main.c        ****     {
 615:main.c        ****         case MODE_LSB:
 616:main.c        ****             sprintf(str,"LSB  ");
 617:main.c        ****             break;
 618:main.c        ****         case MODE_USB:
ARM GAS  C:\Users\koseki\AppData\Local\Temp\ccT0XNG9.s 			page 13


 619:main.c        ****             sprintf(str,"USB  ");
 620:main.c        ****             break;
 621:main.c        ****         case MODE_CW:
 622:main.c        ****             sprintf(str,"CW   ");
 623:main.c        ****             break;
 624:main.c        ****         case MODE_AM:               // (2017.6.24)koseki
 625:main.c        ****             sprintf(str,"AM   ");
 626:main.c        ****             break;
 627:main.c        ****         default:
 628:main.c        ****             sprintf(str,"***  ");
 629:main.c        ****             break;
 630:main.c        ****     }
 631:main.c        ****     I2C_CLCD_Position(1u, cMD);
 632:main.c        ****     I2C_CLCD_PrintString(str);
 633:main.c        **** }
 634:main.c        **** 
 635:main.c        **** //
 636:main.c        **** //	Compute binary frequency value from ASCII character string
 637:main.c        **** //
 638:main.c        **** uint32 BinaryFrequency (uint8 *ptr)
 639:main.c        **** {
 640:main.c        **** 	uint8 i;
 641:main.c        **** 	uint32 frq, dec;
 642:main.c        **** 	
 643:main.c        **** 	frq = 0;
 644:main.c        **** 	dec = 10000000;					// 10's of MHz
 645:main.c        **** 	for (i = 0; i < 8; i++)
 646:main.c        **** 	{
 647:main.c        **** 		frq += (*ptr++ - '0') * dec;
 648:main.c        **** 		dec /= 10;
 649:main.c        **** 	}
 650:main.c        **** 	return (frq);
 651:main.c        **** }
 652:main.c        **** 
 653:main.c        **** 			
 654:main.c        **** //============================================================================
 655:main.c        **** //
 656:main.c        **** //	Task_USBUART
 657:main.c        **** //
 658:main.c        **** //============================================================================
 659:main.c        **** void Task_USBUART(void *pvParameters)
 660:main.c        **** {
 661:main.c        ****     uint32 i;
 662:main.c        ****     uint8 Flag = 1;
 663:main.c        ****     uint8 state;
 664:main.c        ****     
 665:main.c        ****     USBUART_Start(0, USBUART_DWR_VDDD_OPERATION);
 666:main.c        ****     for (i = 0; i < USBUART_TIMEOUT; i++)
 667:main.c        ****     {
 668:main.c        ****         gUSBUART_Ready = USBUART_bGetConfiguration();
 669:main.c        ****         if (gUSBUART_Ready) break;
 670:main.c        ****     }
 671:main.c        ****     // Initiaize UABUART
 672:main.c        ****     if (gUSBUART_Ready)
 673:main.c        ****         USBUART_CDC_Init();
 674:main.c        ****     else
 675:main.c        ****         USBUART_Stop();
ARM GAS  C:\Users\koseki\AppData\Local\Temp\ccT0XNG9.s 			page 14


 676:main.c        **** 
 677:main.c        ****     while(Flag)
 678:main.c        ****     {  
 679:main.c        ****     	state = USBUART_IsLineChanged();
 680:main.c        ****     	if (state & USBUART_LINE_CODING_CHANGED)
 681:main.c        ****     	{
 682:main.c        ****             USBUART_Write((uint8*)"Program starts\r\n");
 683:main.c        **** 
 684:main.c        ****             Flag = 0;
 685:main.c        ****             CyDelay(100);
 686:main.c        ****             USBUART_Write((uint8*)"***********************************************************\r\n"
 687:main.c        ****             USBUART_Write((uint8*)"*                                                         *\r\n"
 688:main.c        ****             USBUART_Write((uint8*)"*                 Simple SDR Reciever                     *\r\n"
 689:main.c        ****             USBUART_Write((uint8*)"*               for CY8KIT-059 (PSoC-5LP)                 *\r\n"
 690:main.c        ****             USBUART_Write((uint8*)"*                                                         *\r\n"
 691:main.c        ****             USBUART_Write((uint8*)"*                     (ver.0.0.1)                         *\r\n"
 692:main.c        ****             USBUART_Write((uint8*)"*                                                         *\r\n"
 693:main.c        ****             USBUART_Write((uint8*)"***********************************************************\r\n"
 694:main.c        ****             USBUART_Write((uint8*)"""Ham Radio Deluxe"" equivalent commands are enabled.\r\n");
 695:main.c        ****             USBUART_Write((uint8*)"\r\n");
 696:main.c        ****         }
 697:main.c        ****     }
 698:main.c        ****     // Main Loop
 699:main.c        ****  	while (1)
 700:main.c        **** 	{
 701:main.c        **** 		//AdjustAgc ();				// AGC adjustment		
 702:main.c        **** 
 703:main.c        **** 		ReadUSB ();					// read the USB port for command data
 704:main.c        ****     }
 705:main.c        **** }
 706:main.c        **** 
 707:main.c        **** // maximum command length (FA00000891000;) while ComRxCmd size is 32B
 708:main.c        **** #define MAX_CMD_LENGTH  16
 709:main.c        **** //
 710:main.c        **** //	Read USB port for COM data
 711:main.c        **** //
 712:main.c        **** void ReadUSB (void)
 713:main.c        **** {
 714:main.c        **** 	uint8 bCount, rx, i;
 715:main.c        **** 
 716:main.c        ****     if(USBUART_DataIsReady() > 0)       // check the USB Rx data ready
 717:main.c        **** 	{
 718:main.c        **** 		USBUART_ReadAll(UsbRxBuffer);	// read usb rx data
 719:main.c        ****         for (i = 0; i < MAX_CMD_LENGTH; i++)
 720:main.c        ****         {
 721:main.c        ****             if(UsbRxBuffer[i] == '\0')
 722:main.c        ****                 break;
 723:main.c        ****         }
 724:main.c        ****         bCount = i;
 725:main.c        **** 
 726:main.c        **** #ifdef DEBUG_USBUART
 727:main.c        ****         char str[20];
 728:main.c        ****         I2C_CLCD_ClearLine(1u);
 729:main.c        ****         sprintf(str, "%s", UsbRxBuffer);
 730:main.c        ****         I2C_CLCD_Position(1u,0u);
 731:main.c        ****         I2C_CLCD_PrintString(str);
 732:main.c        **** #endif
ARM GAS  C:\Users\koseki\AppData\Local\Temp\ccT0XNG9.s 			page 15


 733:main.c        **** 		for (i = 0; i < bCount; i++)
 734:main.c        **** 		{
 735:main.c        **** 			rx = UsbRxBuffer [i];
 736:main.c        **** 			ComRxCmd [ComRxPtr++] = rx;	// save in command buffer
 737:main.c        **** 			if (rx == ';')				// command string terminator
 738:main.c        **** 			{
 739:main.c        ****                 // PSoC5LP requires ';' for FactorySetup
 740:main.c        ****     			if ((ComRxCmd [0] == '$') && (ComRxCmd [1] == '*'))
 741:main.c        ****     			{
 742:main.c        ****                     ComRxCmd[i] = '\0';     // '@' -> '\0'
 743:main.c        ****                     xSemaphoreTake(xMutex_DDS, portMAX_DELAY);
 744:main.c        ****     				FactorySetup ();
 745:main.c        ****                     xSemaphoreGive(xMutex_DDS);
 746:main.c        ****     				ComRxPtr = 0;
 747:main.c        ****     			}
 748:main.c        ****                 else
 749:main.c        ****                 {
 750:main.c        ****                     xSemaphoreTake(xMutex_DDS, portMAX_DELAY);
 751:main.c        ****     				ProcessComRx ();
 752:main.c        ****                     xSemaphoreGive(xMutex_DDS);
 753:main.c        ****     				ComRxPtr = 0;
 754:main.c        ****                 }
 755:main.c        **** 			}
 756:main.c        **** 			else
 757:main.c        **** 				ComRxPtr &= sizeof(ComRxCmd) - 1;
 758:main.c        **** 		}
 759:main.c        **** 	}
 760:main.c        **** }
 761:main.c        **** 
 762:main.c        **** //
 763:main.c        **** //	Factory setup commands
 764:main.c        **** //
 765:main.c        **** void FactorySetup (void)
 766:main.c        **** {
 767:main.c        **** 	uint8 sendUsb = FALSE;
 768:main.c        ****     uint8 i;
 769:main.c        **** 	
 770:main.c        **** 	switch (ComRxCmd [2])
 771:main.c        **** 	{
 772:main.c        **** 		//case 'b':						// bootloader mode
 773:main.c        **** 		//	CyBtldr_Load();				// enter USB boot loader mode
 774:main.c        **** 		//	break;
 775:main.c        **** 			
 776:main.c        **** 		case 'c':						// calibrate frequency mode
 777:main.c        **** 			memcpy (LastFreq, "12345678", 8);	// force frequency change
 778:main.c        ****             // AD9850_DDS
 779:main.c        ****     		memcpy (Freq, "05000000", 8);		// set frequency to 5MHz
 780:main.c        **** 			FrequencyError = 0;
 781:main.c        **** 			SetFrequency ();
 782:main.c        **** 			memcpy (UsbTxBuffer, "Calibrate", 9);
 783:main.c        **** 			sendUsb = 9;
 784:main.c        **** 			break;
 785:main.c        **** 			
 786:main.c        **** 		case 'd':						// debug mode
 787:main.c        **** 			Debug = TRUE;
 788:main.c        **** 			memcpy (UsbTxBuffer, "Debug Mode", 10);
 789:main.c        **** 			sendUsb = 10;
ARM GAS  C:\Users\koseki\AppData\Local\Temp\ccT0XNG9.s 			page 16


 790:main.c        **** 			break;
 791:main.c        **** 			
 792:main.c        **** 		case 'n':						// store serial number in eeprom
 793:main.c        **** 			CySetTemp ();				// acquire die temperature before writing eeprom
 794:main.c        **** 			if (EEPROM_Write (&ComRxCmd [3], SN_ROW) == CYRET_SUCCESS)
 795:main.c        **** 				LedTimer = LED_BLINK;	// if successful write, blink the LED
 796:main.c        **** 			break;
 797:main.c        **** 			
 798:main.c        **** 		case 'f':						// store frequency offset in eeprom
 799:main.c        **** 			CySetTemp ();				// acquire die temperature before writing eeprom
 800:main.c        **** 			if (EEPROM_Write (&ComRxCmd [3], FQ_ROW) == CYRET_SUCCESS)
 801:main.c        **** 			{
 802:main.c        **** 				LedTimer = LED_BLINK;	// if successful write, blink the LED
 803:main.c        **** 				memcpy (LastFreq, "12345678", 8);	// force frequency change
 804:main.c        ****                 //AD9850_DDS
 805:main.c        **** 				memcpy (Freq, "05000000", 8);		// set frequency to 5MHz
 806:main.c        ****                 // PSoC3 => PSoC5LP
 807:main.c        ****                 for (i = 0; i < PARAM_MAX; i++)
 808:main.c        ****                     FREQ_ERROR[i] = pFREQ_ERROR[i];
 809:main.c        ****                 // AD9850_DDS
 810:main.c        **** 				FrequencyError = 5000000 - BinaryFrequency (FREQ_ERROR);	// compute binary value from string
 811:main.c        **** 				SetFrequency ();
 812:main.c        **** 			}
 813:main.c        **** //			break;
 814:main.c        **** 
 815:main.c        **** 		case '?':						// status command, reply with eeprom data
 816:main.c        ****             // PSoC3 => PSoC5LP
 817:main.c        **** 			//memcpy (UsbTxBuffer, SERIAL_NUM, 8);		// serial number
 818:main.c        ****             for (i = 0; i < PARAM_MAX; i++)
 819:main.c        ****                 UsbTxBuffer[i] = pSERIAL_NUM[i];
 820:main.c        **** 			UsbTxBuffer [8] = ' ';
 821:main.c        **** 			//memcpy (&UsbTxBuffer [9], FREQ_ERROR, 8);	// frequency offset at 10MHz
 822:main.c        ****             for (i = 0; i < PARAM_MAX; i++)
 823:main.c        ****                 UsbTxBuffer[9 + i] = pFREQ_ERROR[i];
 824:main.c        **** 			sendUsb = 17;
 825:main.c        **** 			break;
 826:main.c        **** 	}
 827:main.c        **** 
 828:main.c        **** 	if (sendUsb)
 829:main.c        **** 	{
 830:main.c        ****         // PSoC3 => PSoC5LP
 831:main.c        **** 		//USBUART_Write(UsbTxBuffer, sendUsb);	// send response
 832:main.c        ****         UsbTxBuffer[sendUsb] = '\0';
 833:main.c        **** 		USBUART_Write(UsbTxBuffer);	// send response
 834:main.c        **** 		USBUART_Write((uint8*)"\r\n");	// send response
 835:main.c        **** 		while(!USBUART_bTxIsReady()) ;
 836:main.c        **** 	}
 837:main.c        **** }
 838:main.c        **** 
 839:main.c        **** 
 840:main.c        **** 
 841:main.c        **** //============================================================================
 842:main.c        **** //
 843:main.c        **** //	Task_RADIO
 844:main.c        **** //
 845:main.c        **** //============================================================================
 846:main.c        **** void Task_RADIO(void *pvParameters)
ARM GAS  C:\Users\koseki\AppData\Local\Temp\ccT0XNG9.s 			page 17


 847:main.c        **** {
 848:main.c        ****     const portTickType xDelay = 1 / portTICK_RATE_MS;
 849:main.c        **** 
 850:main.c        ****     // Main Loop
 851:main.c        ****  	while (1)
 852:main.c        **** 	{
 853:main.c        **** 		AdjustAgc ();				// AGC adjustment		
 854:main.c        ****         
 855:main.c        ****         vTaskDelay(xDelay);
 856:main.c        ****     }
 857:main.c        **** }
 858:main.c        **** 
 859:main.c        **** //----------------------------------------------------------------------------
 860:main.c        **** //
 861:main.c        **** //	ADC interrupt processing
 862:main.c        **** //
 863:main.c        **** //	Interrupts every 31.18 usec, 32068 sps, 16034 sps per channel
 864:main.c        **** //	TP2 is low for 8.5 to 11 usec (optimization 5), freq = 14.070 MHz = Fvco = 56.28 MHz
 865:main.c        **** //----------------------------------------------------------------------------
 866:main.c        **** // added AM mode (2017.6.24)koseki
 867:main.c        **** #define MLT_A 10    // magnification for CORDIC
 868:main.c        **** 
 869:main.c        **** CY_ISR(ADC_ISR_Handler)
 870:main.c        **** {
  67              		.loc 1 870 0
  68              		.cfi_startproc
  69              		@ args = 0, pretend = 0, frame = 0
  70              		@ frame_needed = 0, uses_anonymous_args = 0
  71 0000 70B5     		push	{r4, r5, r6, lr}
  72              		.cfi_def_cfa_offset 16
  73              		.cfi_offset 4, -16
  74              		.cfi_offset 5, -12
  75              		.cfi_offset 6, -8
  76              		.cfi_offset 14, -4
  77              	.LVL6:
 871:main.c        **** 	int16  rxRaw;		// must be signed int
 872:main.c        **** 	uint16 sample;		// less compiled code when using unsigned int
 873:main.c        **** 	int32  I_chan = 0, Ikn;		// must be signed int
 874:main.c        **** 	int32  Q_chan = 0, Qkn;		// must be signed int
 875:main.c        ****     uint8  i;
 876:main.c        ****         
 877:main.c        **** 	//CyPins_ClearPin(TP2_OUT_0);
 878:main.c        **** 
 879:main.c        **** 	if (AdcState & 1)			// I channel input processing
  78              		.loc 1 879 0
  79 0002 574B     		ldr	r3, .L22
  80 0004 1B78     		ldrb	r3, [r3]	@ zero_extendqisi2
  81 0006 13F0010F 		tst	r3, #1
  82 000a 2DD0     		beq	.L5
 880:main.c        **** 	{
 881:main.c        **** 		IQMUX_Control = 2;		// selects I channel of IQMUX, IQMUX_Write (2);
  83              		.loc 1 881 0
  84 000c 0222     		movs	r2, #2
  85 000e 554B     		ldr	r3, .L22+4
  86 0010 1A70     		strb	r2, [r3]
 882:main.c        **** 		
 883:main.c        **** 		// read ADC, subtract out DC offset, and multiply by gain
ARM GAS  C:\Users\koseki\AppData\Local\Temp\ccT0XNG9.s 			page 18


 884:main.c        **** 		rxRaw = ADC_GetResult16 () - IDCOffset;
  87              		.loc 1 884 0
  88 0012 FFF7FEFF 		bl	ADC_GetResult16
  89              	.LVL7:
  90 0016 544B     		ldr	r3, .L22+8
  91 0018 1B88     		ldrh	r3, [r3]
  92 001a C01A     		subs	r0, r0, r3
  93 001c 80B2     		uxth	r0, r0
  94              	.LVL8:
 885:main.c        **** 		IDCOffset += (rxRaw & 0x8000) ? -1 : 1;	// calc new DC offset
  95              		.loc 1 885 0
  96 001e 10F4004F 		tst	r0, #32768
  97 0022 02D0     		beq	.L19
  98 0024 4FF6FF72 		movw	r2, #65535
  99 0028 00E0     		b	.L6
 100              	.L19:
 101 002a 0122     		movs	r2, #1
 102              	.L6:
 103              		.loc 1 885 0 is_stmt 0 discriminator 4
 104 002c 1344     		add	r3, r3, r2
 105 002e 4E4A     		ldr	r2, .L22+8
 106 0030 1380     		strh	r3, [r2]	@ movhi
 886:main.c        **** 		rxRaw = rxRaw * AgcGain;
 107              		.loc 1 886 0 is_stmt 1 discriminator 4
 108 0032 4E4B     		ldr	r3, .L22+12
 109 0034 1B78     		ldrb	r3, [r3]	@ zero_extendqisi2
 110 0036 03FB00F3 		mul	r3, r3, r0
 111 003a 9BB2     		uxth	r3, r3
 112 003c 9CB2     		uxth	r4, r3
 113              	.LVL9:
 887:main.c        ****         IDelay [IDelayPtr++] = rxRaw;			// store I channel in delay line
 114              		.loc 1 887 0 discriminator 4
 115 003e 4C49     		ldr	r1, .L22+16
 116 0040 0878     		ldrb	r0, [r1]	@ zero_extendqisi2
 117 0042 421C     		adds	r2, r0, #1
 118 0044 4B4D     		ldr	r5, .L22+20
 119 0046 25F81040 		strh	r4, [r5, r0, lsl #1]	@ movhi
 888:main.c        **** 		IDelayPtr &= 31;
 120              		.loc 1 888 0 discriminator 4
 121 004a 02F01F02 		and	r2, r2, #31
 122 004e 0A70     		strb	r2, [r1]
 889:main.c        ****    		// Write Filter A output to PRS DAC
 890:main.c        **** 		VDAC_Data = Filter_HOLDAH_REG ^ 0x80;
 123              		.loc 1 890 0 discriminator 4
 124 0050 494A     		ldr	r2, .L22+24
 125 0052 1278     		ldrb	r2, [r2]	@ zero_extendqisi2
 126 0054 82F08002 		eor	r2, r2, #128
 127 0058 4849     		ldr	r1, .L22+28
 128 005a 0A70     		strb	r2, [r1]
 891:main.c        **** 
 892:main.c        ****         // (2017.6.24)koseki
 893:main.c        ****         if (rxRaw < 0)
 129              		.loc 1 893 0 discriminator 4
 130 005c 14F4004F 		tst	r4, #32768
 131 0060 70D0     		beq	.L7
 894:main.c        ****             rxRaw = -rxRaw;
 132              		.loc 1 894 0
ARM GAS  C:\Users\koseki\AppData\Local\Temp\ccT0XNG9.s 			page 19


 133 0062 5C42     		negs	r4, r3
 134              	.LVL10:
 135 0064 A4B2     		uxth	r4, r4
 136              	.LVL11:
 137 0066 6DE0     		b	.L7
 138              	.LVL12:
 139              	.L5:
 895:main.c        ****         I_chan = (int32)rxRaw << MLT_A;
 896:main.c        ****     }
 897:main.c        **** 	else						// Q channel input processing
 898:main.c        **** 	{
 899:main.c        **** 		IQMUX_Control = 1;		// selects Q channel of IQMUX, IQMUX_Write (1);
 140              		.loc 1 899 0
 141 0068 0122     		movs	r2, #1
 142 006a 3E4B     		ldr	r3, .L22+4
 143 006c 1A70     		strb	r2, [r3]
 900:main.c        **** 
 901:main.c        **** 		// read ADC, subtract out DC offset, and multiply by gain
 902:main.c        **** 		rxRaw = ADC_GetResult16 () - QDCOffset;
 144              		.loc 1 902 0
 145 006e FFF7FEFF 		bl	ADC_GetResult16
 146              	.LVL13:
 147 0072 434B     		ldr	r3, .L22+32
 148 0074 1B88     		ldrh	r3, [r3]
 149 0076 C01A     		subs	r0, r0, r3
 150 0078 80B2     		uxth	r0, r0
 151              	.LVL14:
 903:main.c        **** 		QDCOffset += (rxRaw & 0x8000) ? -1 : 1;	// calc new DC offset before any gain adjust
 152              		.loc 1 903 0
 153 007a 10F4004F 		tst	r0, #32768
 154 007e 02D0     		beq	.L20
 155 0080 4FF6FF72 		movw	r2, #65535
 156 0084 00E0     		b	.L8
 157              	.L20:
 158 0086 0122     		movs	r2, #1
 159              	.L8:
 160              		.loc 1 903 0 is_stmt 0 discriminator 4
 161 0088 1344     		add	r3, r3, r2
 162 008a 3D4A     		ldr	r2, .L22+32
 163 008c 1380     		strh	r3, [r2]	@ movhi
 904:main.c        **** 		rxRaw = rxRaw * AgcGain;
 164              		.loc 1 904 0 is_stmt 1 discriminator 4
 165 008e 374B     		ldr	r3, .L22+12
 166 0090 1D78     		ldrb	r5, [r3]	@ zero_extendqisi2
 167 0092 05FB00F0 		mul	r0, r5, r0
 168              	.LVL15:
 169 0096 85B2     		uxth	r5, r0
 170 0098 ACB2     		uxth	r4, r5
 171              	.LVL16:
 905:main.c        **** 
 906:main.c        ****         // (2017.6.24)koseki
 907:main.c        ****         if (Mode != MODE_AM)
 172              		.loc 1 907 0 discriminator 4
 173 009a 3A4B     		ldr	r3, .L22+36
 174 009c 1B78     		ldrb	r3, [r3]	@ zero_extendqisi2
 175 009e 032B     		cmp	r3, #3
 176 00a0 24D0     		beq	.L9
ARM GAS  C:\Users\koseki\AppData\Local\Temp\ccT0XNG9.s 			page 20


 908:main.c        ****         {
 909:main.c        ****             if (UpperSideBand)
 177              		.loc 1 909 0
 178 00a2 394B     		ldr	r3, .L22+40
 179 00a4 1B78     		ldrb	r3, [r3]	@ zero_extendqisi2
 180 00a6 53B1     		cbz	r3, .L10
 910:main.c        ****     			sample = IDelay [IDelayPtr] - Filter_Read16 (Filter_CHANNEL_B);
 181              		.loc 1 910 0
 182 00a8 314B     		ldr	r3, .L22+16
 183 00aa 1A78     		ldrb	r2, [r3]	@ zero_extendqisi2
 184 00ac 314B     		ldr	r3, .L22+20
 185 00ae 33F81260 		ldrh	r6, [r3, r2, lsl #1]
 186 00b2 0120     		movs	r0, #1
 187 00b4 FFF7FEFF 		bl	Filter_Read16
 188              	.LVL17:
 189 00b8 301A     		subs	r0, r6, r0
 190 00ba 80B2     		uxth	r0, r0
 191              	.LVL18:
 192 00bc 09E0     		b	.L11
 193              	.LVL19:
 194              	.L10:
 911:main.c        ****     		else
 912:main.c        ****     			sample = IDelay [IDelayPtr] + Filter_Read16 (Filter_CHANNEL_B);
 195              		.loc 1 912 0
 196 00be 2C4B     		ldr	r3, .L22+16
 197 00c0 1A78     		ldrb	r2, [r3]	@ zero_extendqisi2
 198 00c2 2C4B     		ldr	r3, .L22+20
 199 00c4 33F81260 		ldrh	r6, [r3, r2, lsl #1]
 200 00c8 0120     		movs	r0, #1
 201 00ca FFF7FEFF 		bl	Filter_Read16
 202              	.LVL20:
 203 00ce 3044     		add	r0, r0, r6
 204 00d0 80B2     		uxth	r0, r0
 205              	.LVL21:
 206              	.L11:
 913:main.c        **** 
 914:main.c        ****             // Filter_Write16 (Filter_CHANNEL_A, IDelay [IDelayPtr] +/- Filter_Read16 (Filter_CHANN
 915:main.c        ****     		Filter_STAGEAM_REG = (uint8)(sample);
 207              		.loc 1 915 0
 208 00d2 C2B2     		uxtb	r2, r0
 209 00d4 2D4B     		ldr	r3, .L22+44
 210 00d6 1A70     		strb	r2, [r3]
 916:main.c        ****             Filter_STAGEAH_REG = (uint8)(sample >> 8);
 211              		.loc 1 916 0
 212 00d8 000A     		lsrs	r0, r0, #8
 213              	.LVL22:
 214 00da 0133     		adds	r3, r3, #1
 215 00dc 1870     		strb	r0, [r3]
 917:main.c        **** 
 918:main.c        ****     		//  replace Filter_Write16 (Filter_CHANNEL_B, rxRaw);
 919:main.c        ****             Filter_STAGEBM_REG = (uint8)(rxRaw);
 216              		.loc 1 919 0
 217 00de EDB2     		uxtb	r5, r5
 218 00e0 0333     		adds	r3, r3, #3
 219 00e2 1D70     		strb	r5, [r3]
 920:main.c        ****             Filter_STAGEBH_REG = (uint8)(rxRaw >> 8);
 220              		.loc 1 920 0
ARM GAS  C:\Users\koseki\AppData\Local\Temp\ccT0XNG9.s 			page 21


 221 00e4 230A     		lsrs	r3, r4, #8
 222 00e6 2A4A     		ldr	r2, .L22+48
 223 00e8 1370     		strb	r3, [r2]
 224 00ea 25E0     		b	.L12
 225              	.L9:
 921:main.c        ****         }
 922:main.c        ****         else // Mode == MODE_AM
 923:main.c        ****         {
 924:main.c        ****             if (rxRaw < 0)
 226              		.loc 1 924 0
 227 00ec 14F4004F 		tst	r4, #32768
 228 00f0 01D0     		beq	.L13
 925:main.c        ****                 rxRaw = -rxRaw;
 229              		.loc 1 925 0
 230 00f2 6C42     		negs	r4, r5
 231              	.LVL23:
 232 00f4 A4B2     		uxth	r4, r4
 233              	.LVL24:
 234              	.L13:
 926:main.c        ****             Q_chan = (int32)rxRaw << MLT_A;
 235              		.loc 1 926 0
 236 00f6 22B2     		sxth	r2, r4
 237 00f8 9202     		lsls	r2, r2, #10
 238              	.LVL25:
 927:main.c        ****             //CORDIC Routine (16 bits)
 928:main.c        ****             for (i = 0; i < 16; i++)
 239              		.loc 1 928 0
 240 00fa 0023     		movs	r3, #0
 873:main.c        **** 	int32  Q_chan = 0, Qkn;		// must be signed int
 241              		.loc 1 873 0
 242 00fc 1946     		mov	r1, r3
 243              		.loc 1 928 0
 244 00fe 11E0     		b	.L14
 245              	.LVL26:
 246              	.L17:
 929:main.c        ****             {
 930:main.c        ****                 if (Q_chan >= 0) 
 247              		.loc 1 930 0
 248 0100 002A     		cmp	r2, #0
 249 0102 06DB     		blt	.L15
 931:main.c        ****                 {
 932:main.c        ****                     Ikn = I_chan + (Q_chan >> i);
 250              		.loc 1 932 0
 251 0104 42FA03F0 		asr	r0, r2, r3
 252              	.LVL27:
 933:main.c        ****                     Qkn = Q_chan - (I_chan >> i);
 253              		.loc 1 933 0
 254 0108 41FA03F5 		asr	r5, r1, r3
 255 010c 521B     		subs	r2, r2, r5
 256              	.LVL28:
 932:main.c        ****                     Qkn = Q_chan - (I_chan >> i);
 257              		.loc 1 932 0
 258 010e 0144     		add	r1, r1, r0
 259              	.LVL29:
 260 0110 05E0     		b	.L16
 261              	.LVL30:
 262              	.L15:
ARM GAS  C:\Users\koseki\AppData\Local\Temp\ccT0XNG9.s 			page 22


 934:main.c        ****                 }
 935:main.c        ****                 else        
 936:main.c        ****                 {
 937:main.c        ****                     Ikn = I_chan - (Q_chan >> i);
 263              		.loc 1 937 0
 264 0112 42FA03F0 		asr	r0, r2, r3
 265              	.LVL31:
 938:main.c        ****                     Qkn = Q_chan + (I_chan >> i);
 266              		.loc 1 938 0
 267 0116 41FA03F5 		asr	r5, r1, r3
 268 011a 2A44     		add	r2, r2, r5
 269              	.LVL32:
 937:main.c        ****                     Qkn = Q_chan + (I_chan >> i);
 270              		.loc 1 937 0
 271 011c 091A     		subs	r1, r1, r0
 272              	.LVL33:
 273              	.L16:
 928:main.c        ****             {
 274              		.loc 1 928 0 discriminator 2
 275 011e 0133     		adds	r3, r3, #1
 276              	.LVL34:
 277 0120 DBB2     		uxtb	r3, r3
 278              	.LVL35:
 279 0122 0E46     		mov	r6, r1
 280              	.LVL36:
 281              	.L14:
 928:main.c        ****             {
 282              		.loc 1 928 0 is_stmt 0 discriminator 1
 283 0124 0F2B     		cmp	r3, #15
 284 0126 EBD9     		bls	.L17
 939:main.c        ****                 }
 940:main.c        ****                 I_chan = Ikn;
 941:main.c        ****                 Q_chan = Qkn;
 942:main.c        ****             }
 943:main.c        ****             // Ikn = 1.6467602 * xqrt(I^2 + Q^2)
 944:main.c        ****             sample = (uint16)(Ikn >> MLT_A);
 285              		.loc 1 944 0 is_stmt 1
 286 0128 B612     		asrs	r6, r6, #10
 287              	.LVL37:
 945:main.c        **** 
 946:main.c        ****             // Filter_Write16 (Filter_CHANNEL_A, sample);
 947:main.c        ****             Filter_STAGEAM_REG = (uint8)(sample);
 288              		.loc 1 947 0
 289 012a F2B2     		uxtb	r2, r6
 290              	.LVL38:
 291 012c 174B     		ldr	r3, .L22+44
 292              	.LVL39:
 293 012e 1A70     		strb	r2, [r3]
 948:main.c        ****             Filter_STAGEAH_REG = (uint8)(sample >> 8);
 294              		.loc 1 948 0
 295 0130 C6F30726 		ubfx	r6, r6, #8, #8
 296              	.LVL40:
 297 0134 0133     		adds	r3, r3, #1
 298 0136 1E70     		strb	r6, [r3]
 299              	.LVL41:
 300              	.L12:
 949:main.c        ****         }
ARM GAS  C:\Users\koseki\AppData\Local\Temp\ccT0XNG9.s 			page 23


 950:main.c        **** 
 951:main.c        ****         // AdcState == 0 ; 32086 / 256 = 125.33(Hz)= 7.98(ms)
 952:main.c        **** 		if (!AdcState)
 301              		.loc 1 952 0
 302 0138 094B     		ldr	r3, .L22
 303 013a 1B78     		ldrb	r3, [r3]	@ zero_extendqisi2
 304 013c 13B9     		cbnz	r3, .L7
 953:main.c        **** 			AdcTick = TRUE;
 305              		.loc 1 953 0
 306 013e 0122     		movs	r2, #1
 307 0140 144B     		ldr	r3, .L22+52
 308 0142 1A70     		strb	r2, [r3]
 309              	.L7:
 954:main.c        ****     }
 955:main.c        **** 	AdcState++;
 310              		.loc 1 955 0
 311 0144 064A     		ldr	r2, .L22
 312 0146 1378     		ldrb	r3, [r2]	@ zero_extendqisi2
 313 0148 0133     		adds	r3, r3, #1
 314 014a 1370     		strb	r3, [r2]
 956:main.c        **** 	
 957:main.c        **** 	if (rxRaw > AdcPeak)
 315              		.loc 1 957 0
 316 014c 23B2     		sxth	r3, r4
 317 014e 124A     		ldr	r2, .L22+56
 318 0150 B2F90020 		ldrsh	r2, [r2]
 319 0154 9342     		cmp	r3, r2
 320 0156 01DD     		ble	.L4
 958:main.c        **** 		AdcPeak = rxRaw;
 321              		.loc 1 958 0
 322 0158 0F4B     		ldr	r3, .L22+56
 323 015a 1C80     		strh	r4, [r3]	@ movhi
 324              	.L4:
 325 015c 70BD     		pop	{r4, r5, r6, pc}
 326              	.LVL42:
 327              	.L23:
 328 015e 00BF     		.align	2
 329              	.L22:
 330 0160 00000000 		.word	AdcState
 331 0164 78650040 		.word	1073767800
 332 0168 00000000 		.word	IDCOffset
 333 016c 00000000 		.word	AgcGain
 334 0170 00000000 		.word	IDelayPtr
 335 0174 00000000 		.word	IDelay
 336 0178 AAC70040 		.word	1073792938
 337 017c 805B0040 		.word	1073765248
 338 0180 00000000 		.word	QDCOffset
 339 0184 00000000 		.word	Mode
 340 0188 00000000 		.word	UpperSideBand
 341 018c A1C70040 		.word	1073792929
 342 0190 A6C70040 		.word	1073792934
 343 0194 00000000 		.word	AdcTick
 344 0198 00000000 		.word	AdcPeak
 345              		.cfi_endproc
 346              	.LFE80:
 347              		.size	ADC_ISR_Handler, .-ADC_ISR_Handler
 348              		.section	.text.prvHardwareSetup,"ax",%progbits
ARM GAS  C:\Users\koseki\AppData\Local\Temp\ccT0XNG9.s 			page 24


 349              		.align	2
 350              		.global	prvHardwareSetup
 351              		.thumb
 352              		.thumb_func
 353              		.type	prvHardwareSetup, %function
 354              	prvHardwareSetup:
 355              	.LFB66:
 304:main.c        ****     /* Port layer functions that need to be copied into the vector table. */
 356              		.loc 1 304 0
 357              		.cfi_startproc
 358              		@ args = 0, pretend = 0, frame = 0
 359              		@ frame_needed = 0, uses_anonymous_args = 0
 360              		@ link register save eliminated.
 312:main.c        **** 	CyRamVectors[ 14 ] = ( cyisraddress ) xPortPendSVHandler;
 361              		.loc 1 312 0
 362 0000 034B     		ldr	r3, .L25
 363 0002 044A     		ldr	r2, .L25+4
 364 0004 DA62     		str	r2, [r3, #44]
 313:main.c        **** 	CyRamVectors[ 15 ] = ( cyisraddress ) xPortSysTickHandler;
 365              		.loc 1 313 0
 366 0006 044A     		ldr	r2, .L25+8
 367 0008 9A63     		str	r2, [r3, #56]
 314:main.c        ****     
 368              		.loc 1 314 0
 369 000a 044A     		ldr	r2, .L25+12
 370 000c DA63     		str	r2, [r3, #60]
 371 000e 7047     		bx	lr
 372              	.L26:
 373              		.align	2
 374              	.L25:
 375 0010 00000000 		.word	CyRamVectors
 376 0014 00000000 		.word	vPortSVCHandler
 377 0018 00000000 		.word	xPortPendSVHandler
 378 001c 00000000 		.word	xPortSysTickHandler
 379              		.cfi_endproc
 380              	.LFE66:
 381              		.size	prvHardwareSetup, .-prvHardwareSetup
 382              		.section	.text.vApplicationStackOverflowHook,"ax",%progbits
 383              		.align	2
 384              		.global	vApplicationStackOverflowHook
 385              		.thumb
 386              		.thumb_func
 387              		.type	vApplicationStackOverflowHook, %function
 388              	vApplicationStackOverflowHook:
 389              	.LFB67:
 320:main.c        **** 	/* The stack space has been execeeded for a task, considering allocating more. */
 390              		.loc 1 320 0
 391              		.cfi_startproc
 392              		@ Volatile: function does not return.
 393              		@ args = 0, pretend = 0, frame = 0
 394              		@ frame_needed = 0, uses_anonymous_args = 0
 395              	.LVL43:
 396 0000 08B5     		push	{r3, lr}
 397              		.cfi_def_cfa_offset 8
 398              		.cfi_offset 3, -8
 399              		.cfi_offset 14, -4
 322:main.c        **** 	for( ;; );
ARM GAS  C:\Users\koseki\AppData\Local\Temp\ccT0XNG9.s 			page 25


 400              		.loc 1 322 0
 401 0002 FFF7FEFF 		bl	ulPortSetInterruptMask
 402              	.LVL44:
 403              	.L28:
 323:main.c        **** }
 404              		.loc 1 323 0 discriminator 1
 405 0006 FEE7     		b	.L28
 406              		.cfi_endproc
 407              	.LFE67:
 408              		.size	vApplicationStackOverflowHook, .-vApplicationStackOverflowHook
 409              		.section	.text.vApplicationMallocFailedHook,"ax",%progbits
 410              		.align	2
 411              		.global	vApplicationMallocFailedHook
 412              		.thumb
 413              		.thumb_func
 414              		.type	vApplicationMallocFailedHook, %function
 415              	vApplicationMallocFailedHook:
 416              	.LFB68:
 328:main.c        **** 	/* The heap space has been execeeded. */
 417              		.loc 1 328 0
 418              		.cfi_startproc
 419              		@ Volatile: function does not return.
 420              		@ args = 0, pretend = 0, frame = 0
 421              		@ frame_needed = 0, uses_anonymous_args = 0
 422 0000 08B5     		push	{r3, lr}
 423              		.cfi_def_cfa_offset 8
 424              		.cfi_offset 3, -8
 425              		.cfi_offset 14, -4
 330:main.c        **** 	for( ;; );
 426              		.loc 1 330 0
 427 0002 FFF7FEFF 		bl	ulPortSetInterruptMask
 428              	.LVL45:
 429              	.L31:
 331:main.c        **** }
 430              		.loc 1 331 0 discriminator 1
 431 0006 FEE7     		b	.L31
 432              		.cfi_endproc
 433              	.LFE68:
 434              		.size	vApplicationMallocFailedHook, .-vApplicationMallocFailedHook
 435              		.section	.text.LoadFilter,"ax",%progbits
 436              		.align	2
 437              		.global	LoadFilter
 438              		.thumb
 439              		.thumb_func
 440              		.type	LoadFilter, %function
 441              	LoadFilter:
 442              	.LFB72:
 465:main.c        **** 	uint8 i, j;
 443              		.loc 1 465 0
 444              		.cfi_startproc
 445              		@ args = 0, pretend = 0, frame = 280
 446              		@ frame_needed = 0, uses_anonymous_args = 0
 447              	.LVL46:
 448 0000 70B5     		push	{r4, r5, r6, lr}
 449              		.cfi_def_cfa_offset 16
 450              		.cfi_offset 4, -16
 451              		.cfi_offset 5, -12
ARM GAS  C:\Users\koseki\AppData\Local\Temp\ccT0XNG9.s 			page 26


 452              		.cfi_offset 6, -8
 453              		.cfi_offset 14, -4
 454 0002 C6B0     		sub	sp, sp, #280
 455              		.cfi_def_cfa_offset 296
 471:main.c        **** 
 456              		.loc 1 471 0
 457 0004 3F22     		movs	r2, #63
 458 0006 464B     		ldr	r3, .L50
 459 0008 1A70     		strb	r2, [r3]
 473:main.c        ****         cymemcpy(Filter_DB_RAM, Filter_data_b_2500, Filter_DB_RAM_SIZE);
 460              		.loc 1 473 0
 461 000a 0446     		mov	r4, r0
 462 000c 30B9     		cbnz	r0, .L34
 474:main.c        **** 	else if (fltr == FILTER_FL2)
 463              		.loc 1 474 0
 464 000e 4548     		ldr	r0, .L50+4
 465              	.LVL47:
 466 0010 4549     		ldr	r1, .L50+8
 467 0012 4FF40072 		mov	r2, #512
 468 0016 FFF7FEFF 		bl	memcpy
 469              	.LVL48:
 470 001a 10E0     		b	.L35
 471              	.LVL49:
 472              	.L34:
 475:main.c        ****         cymemcpy(Filter_DB_RAM, Filter_data_b_2000, Filter_DB_RAM_SIZE);
 473              		.loc 1 475 0
 474 001c 0128     		cmp	r0, #1
 475 001e 06D1     		bne	.L36
 476:main.c        **** 	else if (fltr == FILTER_FL3)
 476              		.loc 1 476 0
 477 0020 4048     		ldr	r0, .L50+4
 478              	.LVL50:
 479 0022 4249     		ldr	r1, .L50+12
 480 0024 4FF40072 		mov	r2, #512
 481 0028 FFF7FEFF 		bl	memcpy
 482              	.LVL51:
 483 002c 07E0     		b	.L35
 484              	.LVL52:
 485              	.L36:
 477:main.c        ****         cymemcpy(Filter_DB_RAM, Filter_data_b_1500, Filter_DB_RAM_SIZE);
 486              		.loc 1 477 0
 487 002e 0228     		cmp	r0, #2
 488 0030 08D1     		bne	.L37
 478:main.c        **** 	else if (fltr == FILTER_FL4)
 489              		.loc 1 478 0
 490 0032 3C48     		ldr	r0, .L50+4
 491              	.LVL53:
 492 0034 3E49     		ldr	r1, .L50+16
 493 0036 4FF40072 		mov	r2, #512
 494 003a FFF7FEFF 		bl	memcpy
 495              	.LVL54:
 496              	.L35:
 465:main.c        **** 	uint8 i, j;
 497              		.loc 1 465 0 discriminator 1
 498 003e 0021     		movs	r1, #0
 499 0040 0B46     		mov	r3, r1
 500 0042 2FE0     		b	.L38
ARM GAS  C:\Users\koseki\AppData\Local\Temp\ccT0XNG9.s 			page 27


 501              	.LVL55:
 502              	.L37:
 479:main.c        ****         cymemcpy(Filter_DB_RAM, Filter_data_b_cw, Filter_DB_RAM_SIZE);
 503              		.loc 1 479 0
 504 0044 0328     		cmp	r0, #3
 505 0046 06D1     		bne	.L39
 480:main.c        **** 	else if (fltr == FILTER_AM)
 506              		.loc 1 480 0
 507 0048 3648     		ldr	r0, .L50+4
 508              	.LVL56:
 509 004a 3A49     		ldr	r1, .L50+20
 510 004c 4FF40072 		mov	r2, #512
 511 0050 FFF7FEFF 		bl	memcpy
 512              	.LVL57:
 513 0054 F3E7     		b	.L35
 514              	.LVL58:
 515              	.L39:
 481:main.c        ****         cymemcpy(Filter_DB_RAM, Filter_data_b_am, Filter_DB_RAM_SIZE);
 516              		.loc 1 481 0
 517 0056 0428     		cmp	r0, #4
 518 0058 06D1     		bne	.L40
 482:main.c        **** 	else if (fltr == FILTER_RST)
 519              		.loc 1 482 0
 520 005a 3248     		ldr	r0, .L50+4
 521              	.LVL59:
 522 005c 3649     		ldr	r1, .L50+24
 523 005e 4FF40072 		mov	r2, #512
 524 0062 FFF7FEFF 		bl	memcpy
 525              	.LVL60:
 526 0066 EAE7     		b	.L35
 527              	.LVL61:
 528              	.L40:
 483:main.c        ****         cymemcpy(Filter_DB_RAM, Filter_data_b, Filter_DB_RAM_SIZE);
 529              		.loc 1 483 0
 530 0068 0528     		cmp	r0, #5
 531 006a E8D1     		bne	.L35
 484:main.c        **** 
 532              		.loc 1 484 0
 533 006c 2D48     		ldr	r0, .L50+4
 534              	.LVL62:
 535 006e 3349     		ldr	r1, .L50+28
 536 0070 4FF40072 		mov	r2, #512
 537 0074 FFF7FEFF 		bl	memcpy
 538              	.LVL63:
 539 0078 E1E7     		b	.L35
 540              	.LVL64:
 541              	.L41:
 490:main.c        **** 		xbuf [j++] = x & 0xFF;
 542              		.loc 1 490 0 discriminator 3
 543 007a 314A     		ldr	r2, .L50+32
 544 007c 52F82320 		ldr	r2, [r2, r3, lsl #2]
 545              	.LVL65:
 491:main.c        **** 		xbuf [j++] = (x >> 8) & 0xFF;
 546              		.loc 1 491 0 discriminator 3
 547 0080 481C     		adds	r0, r1, #1
 548 0082 C0B2     		uxtb	r0, r0
 549              	.LVL66:
ARM GAS  C:\Users\koseki\AppData\Local\Temp\ccT0XNG9.s 			page 28


 550 0084 06AD     		add	r5, sp, #24
 551 0086 6A54     		strb	r2, [r5, r1]
 492:main.c        **** 		xbuf [j++] = (x >> 16) & 0xFF;
 552              		.loc 1 492 0 discriminator 3
 553 0088 411C     		adds	r1, r0, #1
 554 008a C9B2     		uxtb	r1, r1
 555              	.LVL67:
 556 008c 1612     		asrs	r6, r2, #8
 557 008e 2E54     		strb	r6, [r5, r0]
 493:main.c        **** 		xbuf [j++] = 0;
 558              		.loc 1 493 0 discriminator 3
 559 0090 481C     		adds	r0, r1, #1
 560 0092 C0B2     		uxtb	r0, r0
 561              	.LVL68:
 562 0094 1214     		asrs	r2, r2, #16
 563              	.LVL69:
 564 0096 6A54     		strb	r2, [r5, r1]
 494:main.c        **** 	}
 565              		.loc 1 494 0 discriminator 3
 566 0098 411C     		adds	r1, r0, #1
 567 009a C9B2     		uxtb	r1, r1
 568              	.LVL70:
 569 009c 0022     		movs	r2, #0
 570 009e 2A54     		strb	r2, [r5, r0]
 488:main.c        **** 	{
 571              		.loc 1 488 0 discriminator 3
 572 00a0 0133     		adds	r3, r3, #1
 573              	.LVL71:
 574 00a2 DBB2     		uxtb	r3, r3
 575              	.LVL72:
 576              	.L38:
 488:main.c        **** 	{
 577              		.loc 1 488 0 is_stmt 0 discriminator 1
 578 00a4 3F2B     		cmp	r3, #63
 579 00a6 E8D9     		bls	.L41
 496:main.c        **** 		
 580              		.loc 1 496 0 is_stmt 1
 581 00a8 2648     		ldr	r0, .L50+36
 582 00aa 06A9     		add	r1, sp, #24
 583              	.LVL73:
 584 00ac 4FF48072 		mov	r2, #256
 585 00b0 FFF7FEFF 		bl	memcpy
 586              	.LVL74:
 499:main.c        ****     
 587              		.loc 1 499 0
 588 00b4 0022     		movs	r2, #0
 589 00b6 1A4B     		ldr	r3, .L50
 590 00b8 1A70     		strb	r2, [r3]
 503:main.c        ****     {
 591              		.loc 1 503 0
 592 00ba 042C     		cmp	r4, #4
 593 00bc 26D8     		bhi	.L42
 594 00be DFE804F0 		tbb	[pc, r4]
 595              	.L44:
 596 00c2 03       		.byte	(.L43-.L44)/2
 597 00c3 0A       		.byte	(.L45-.L44)/2
 598 00c4 11       		.byte	(.L46-.L44)/2
ARM GAS  C:\Users\koseki\AppData\Local\Temp\ccT0XNG9.s 			page 29


 599 00c5 18       		.byte	(.L47-.L44)/2
 600 00c6 1F       		.byte	(.L48-.L44)/2
 601 00c7 00       		.p2align 1
 602              	.L43:
 506:main.c        ****             break;
 603              		.loc 1 506 0
 604 00c8 01AB     		add	r3, sp, #4
 605 00ca 1F4A     		ldr	r2, .L50+40
 606 00cc 92E80300 		ldmia	r2, {r0, r1}
 607 00d0 83E80300 		stmia	r3, {r0, r1}
 507:main.c        ****         case FILTER_FL2:
 608              		.loc 1 507 0
 609 00d4 1AE0     		b	.L42
 610              	.L45:
 509:main.c        ****             break;
 611              		.loc 1 509 0
 612 00d6 01AB     		add	r3, sp, #4
 613 00d8 1C4A     		ldr	r2, .L50+44
 614 00da 92E80300 		ldmia	r2, {r0, r1}
 615 00de 83E80300 		stmia	r3, {r0, r1}
 510:main.c        ****         case FILTER_FL3:
 616              		.loc 1 510 0
 617 00e2 13E0     		b	.L42
 618              	.L46:
 512:main.c        ****             break;
 619              		.loc 1 512 0
 620 00e4 01AB     		add	r3, sp, #4
 621 00e6 1A4A     		ldr	r2, .L50+48
 622 00e8 92E80300 		ldmia	r2, {r0, r1}
 623 00ec 83E80300 		stmia	r3, {r0, r1}
 513:main.c        ****         case FILTER_FL4:
 624              		.loc 1 513 0
 625 00f0 0CE0     		b	.L42
 626              	.L47:
 515:main.c        ****             break;
 627              		.loc 1 515 0
 628 00f2 01AB     		add	r3, sp, #4
 629 00f4 174A     		ldr	r2, .L50+52
 630 00f6 92E80300 		ldmia	r2, {r0, r1}
 631 00fa 83E80300 		stmia	r3, {r0, r1}
 516:main.c        ****         case FILTER_AM:
 632              		.loc 1 516 0
 633 00fe 05E0     		b	.L42
 634              	.L48:
 518:main.c        ****             break;
 635              		.loc 1 518 0
 636 0100 01AB     		add	r3, sp, #4
 637 0102 154A     		ldr	r2, .L50+56
 638 0104 92E80300 		ldmia	r2, {r0, r1}
 639 0108 83E80300 		stmia	r3, {r0, r1}
 640              	.L42:
 523:main.c        ****     I2C_CLCD_PrintString(str);
 641              		.loc 1 523 0
 642 010c 0120     		movs	r0, #1
 643 010e 0521     		movs	r1, #5
 644 0110 FFF7FEFF 		bl	I2C_CLCD_Position
 645              	.LVL75:
ARM GAS  C:\Users\koseki\AppData\Local\Temp\ccT0XNG9.s 			page 30


 524:main.c        **** 
 646              		.loc 1 524 0
 647 0114 01A8     		add	r0, sp, #4
 648 0116 FFF7FEFF 		bl	I2C_CLCD_PrintString
 649              	.LVL76:
 526:main.c        **** 
 650              		.loc 1 526 0
 651 011a 46B0     		add	sp, sp, #280
 652              		.cfi_def_cfa_offset 16
 653              		@ sp needed
 654 011c 70BD     		pop	{r4, r5, r6, pc}
 655              	.L51:
 656 011e 00BF     		.align	2
 657              	.L50:
 658 0120 8CC70040 		.word	1073792908
 659 0124 00C20040 		.word	1073791488
 660 0128 00000000 		.word	Filter_data_b_2500
 661 012c 00000000 		.word	Filter_data_b_2000
 662 0130 00000000 		.word	Filter_data_b_1500
 663 0134 00000000 		.word	Filter_data_b_cw
 664 0138 00000000 		.word	Filter_data_b_am
 665 013c 00000000 		.word	Filter_data_b
 666 0140 00000000 		.word	Hilbert
 667 0144 00C30040 		.word	1073791744
 668 0148 00000000 		.word	.LC1
 669 014c 08000000 		.word	.LC2
 670 0150 10000000 		.word	.LC3
 671 0154 18000000 		.word	.LC4
 672 0158 20000000 		.word	.LC5
 673              		.cfi_endproc
 674              	.LFE72:
 675              		.size	LoadFilter, .-LoadFilter
 676              		.section	.text.SetMode,"ax",%progbits
 677              		.align	2
 678              		.global	SetMode
 679              		.thumb
 680              		.thumb_func
 681              		.type	SetMode, %function
 682              	SetMode:
 683              	.LFB74:
 598:main.c        **** 	Mode = md;					// save operating mode
 684              		.loc 1 598 0
 685              		.cfi_startproc
 686              		@ args = 0, pretend = 0, frame = 24
 687              		@ frame_needed = 0, uses_anonymous_args = 0
 688              	.LVL77:
 689 0000 00B5     		push	{lr}
 690              		.cfi_def_cfa_offset 4
 691              		.cfi_offset 14, -4
 692 0002 87B0     		sub	sp, sp, #28
 693              		.cfi_def_cfa_offset 32
 599:main.c        ****     
 694              		.loc 1 599 0
 695 0004 264B     		ldr	r3, .L67
 696 0006 1870     		strb	r0, [r3]
 601:main.c        **** 		
 697              		.loc 1 601 0
ARM GAS  C:\Users\koseki\AppData\Local\Temp\ccT0XNG9.s 			page 31


 698 0008 431E     		subs	r3, r0, #1
 699 000a DBB2     		uxtb	r3, r3
 700 000c 012B     		cmp	r3, #1
 701 000e 03D9     		bls	.L64
 601:main.c        **** 		
 702              		.loc 1 601 0 is_stmt 0 discriminator 2
 703 0010 0528     		cmp	r0, #5
 704 0012 03D1     		bne	.L65
 601:main.c        **** 		
 705              		.loc 1 601 0
 706 0014 0122     		movs	r2, #1
 707 0016 02E0     		b	.L53
 708              	.L64:
 709 0018 0122     		movs	r2, #1
 710 001a 00E0     		b	.L53
 711              	.L65:
 712 001c 0022     		movs	r2, #0
 713              	.L53:
 601:main.c        **** 		
 714              		.loc 1 601 0 discriminator 6
 715 001e 214B     		ldr	r3, .L67+4
 716 0020 1A70     		strb	r2, [r3]
 603:main.c        **** 		Filter = FILTER_FL4;
 717              		.loc 1 603 0 is_stmt 1 discriminator 6
 718 0022 0228     		cmp	r0, #2
 719 0024 01D0     		beq	.L54
 603:main.c        **** 		Filter = FILTER_FL4;
 720              		.loc 1 603 0 is_stmt 0 discriminator 1
 721 0026 0628     		cmp	r0, #6
 722 0028 03D1     		bne	.L55
 723              	.L54:
 604:main.c        **** 	//else if ((Mode <= MODE_USB) && (Filter == FILTER_FL4))
 724              		.loc 1 604 0 is_stmt 1
 725 002a 0322     		movs	r2, #3
 726 002c 1E4B     		ldr	r3, .L67+8
 727 002e 1A70     		strb	r2, [r3]
 728 0030 04E0     		b	.L56
 729              	.L55:
 606:main.c        **** 		Filter = FILTER_FL2;
 730              		.loc 1 606 0
 731 0032 0128     		cmp	r0, #1
 732 0034 02D8     		bhi	.L56
 607:main.c        ****     // (2017.6.1)koseki
 733              		.loc 1 607 0
 734 0036 0122     		movs	r2, #1
 735 0038 1B4B     		ldr	r3, .L67+8
 736 003a 1A70     		strb	r2, [r3]
 737              	.L56:
 613:main.c        ****     {
 738              		.loc 1 613 0
 739 003c 0328     		cmp	r0, #3
 740 003e 1FD8     		bhi	.L57
 741 0040 DFE800F0 		tbb	[pc, r0]
 742              	.L59:
 743 0044 02       		.byte	(.L58-.L59)/2
 744 0045 09       		.byte	(.L60-.L59)/2
 745 0046 10       		.byte	(.L61-.L59)/2
ARM GAS  C:\Users\koseki\AppData\Local\Temp\ccT0XNG9.s 			page 32


 746 0047 17       		.byte	(.L62-.L59)/2
 747              		.p2align 1
 748              	.L58:
 616:main.c        ****             break;
 749              		.loc 1 616 0
 750 0048 184B     		ldr	r3, .L67+12
 751 004a 93E80300 		ldmia	r3, {r0, r1}
 752              	.LVL78:
 753 004e 0190     		str	r0, [sp, #4]
 754 0050 ADF80810 		strh	r1, [sp, #8]	@ movhi
 617:main.c        ****         case MODE_USB:
 755              		.loc 1 617 0
 756 0054 1AE0     		b	.L63
 757              	.LVL79:
 758              	.L60:
 619:main.c        ****             break;
 759              		.loc 1 619 0
 760 0056 164B     		ldr	r3, .L67+16
 761 0058 93E80300 		ldmia	r3, {r0, r1}
 762              	.LVL80:
 763 005c 0190     		str	r0, [sp, #4]
 764 005e ADF80810 		strh	r1, [sp, #8]	@ movhi
 620:main.c        ****         case MODE_CW:
 765              		.loc 1 620 0
 766 0062 13E0     		b	.L63
 767              	.LVL81:
 768              	.L61:
 622:main.c        ****             break;
 769              		.loc 1 622 0
 770 0064 134B     		ldr	r3, .L67+20
 771 0066 93E80300 		ldmia	r3, {r0, r1}
 772              	.LVL82:
 773 006a 0190     		str	r0, [sp, #4]
 774 006c ADF80810 		strh	r1, [sp, #8]	@ movhi
 623:main.c        ****         case MODE_AM:               // (2017.6.24)koseki
 775              		.loc 1 623 0
 776 0070 0CE0     		b	.L63
 777              	.LVL83:
 778              	.L62:
 625:main.c        ****             break;
 779              		.loc 1 625 0
 780 0072 114B     		ldr	r3, .L67+24
 781 0074 93E80300 		ldmia	r3, {r0, r1}
 782              	.LVL84:
 783 0078 0190     		str	r0, [sp, #4]
 784 007a ADF80810 		strh	r1, [sp, #8]	@ movhi
 626:main.c        ****         default:
 785              		.loc 1 626 0
 786 007e 05E0     		b	.L63
 787              	.LVL85:
 788              	.L57:
 628:main.c        ****             break;
 789              		.loc 1 628 0
 790 0080 0E4B     		ldr	r3, .L67+28
 791 0082 93E80300 		ldmia	r3, {r0, r1}
 792              	.LVL86:
 793 0086 0190     		str	r0, [sp, #4]
ARM GAS  C:\Users\koseki\AppData\Local\Temp\ccT0XNG9.s 			page 33


 794 0088 ADF80810 		strh	r1, [sp, #8]	@ movhi
 795              	.L63:
 631:main.c        ****     I2C_CLCD_PrintString(str);
 796              		.loc 1 631 0
 797 008c 0120     		movs	r0, #1
 798 008e 0021     		movs	r1, #0
 799 0090 FFF7FEFF 		bl	I2C_CLCD_Position
 800              	.LVL87:
 632:main.c        **** }
 801              		.loc 1 632 0
 802 0094 01A8     		add	r0, sp, #4
 803 0096 FFF7FEFF 		bl	I2C_CLCD_PrintString
 804              	.LVL88:
 633:main.c        **** 
 805              		.loc 1 633 0
 806 009a 07B0     		add	sp, sp, #28
 807              		.cfi_def_cfa_offset 4
 808              		@ sp needed
 809 009c 5DF804FB 		ldr	pc, [sp], #4
 810              	.L68:
 811              		.align	2
 812              	.L67:
 813 00a0 00000000 		.word	Mode
 814 00a4 00000000 		.word	UpperSideBand
 815 00a8 00000000 		.word	Filter
 816 00ac 28000000 		.word	.LC6
 817 00b0 30000000 		.word	.LC7
 818 00b4 38000000 		.word	.LC8
 819 00b8 40000000 		.word	.LC9
 820 00bc 48000000 		.word	.LC10
 821              		.cfi_endproc
 822              	.LFE74:
 823              		.size	SetMode, .-SetMode
 824              		.section	.text.BinaryFrequency,"ax",%progbits
 825              		.align	2
 826              		.global	BinaryFrequency
 827              		.thumb
 828              		.thumb_func
 829              		.type	BinaryFrequency, %function
 830              	BinaryFrequency:
 831              	.LFB75:
 639:main.c        **** 	uint8 i;
 832              		.loc 1 639 0
 833              		.cfi_startproc
 834              		@ args = 0, pretend = 0, frame = 0
 835              		@ frame_needed = 0, uses_anonymous_args = 0
 836              		@ link register save eliminated.
 837              	.LVL89:
 838 0000 10B4     		push	{r4}
 839              		.cfi_def_cfa_offset 4
 840              		.cfi_offset 4, -4
 841              	.LVL90:
 644:main.c        **** 	for (i = 0; i < 8; i++)
 842              		.loc 1 644 0
 843 0002 0A4A     		ldr	r2, .L73
 643:main.c        **** 	dec = 10000000;					// 10's of MHz
 844              		.loc 1 643 0
ARM GAS  C:\Users\koseki\AppData\Local\Temp\ccT0XNG9.s 			page 34


 845 0004 0024     		movs	r4, #0
 645:main.c        **** 	{
 846              		.loc 1 645 0
 847 0006 2346     		mov	r3, r4
 848 0008 0AE0     		b	.L70
 849              	.LVL91:
 850              	.L71:
 647:main.c        **** 		dec /= 10;
 851              		.loc 1 647 0 discriminator 3
 852 000a 0178     		ldrb	r1, [r0]	@ zero_extendqisi2
 853 000c 3039     		subs	r1, r1, #48
 854 000e 02FB0144 		mla	r4, r2, r1, r4
 855              	.LVL92:
 648:main.c        **** 	}
 856              		.loc 1 648 0 discriminator 3
 857 0012 0749     		ldr	r1, .L73+4
 858 0014 A1FB0212 		umull	r1, r2, r1, r2
 859              	.LVL93:
 860 0018 D208     		lsrs	r2, r2, #3
 861              	.LVL94:
 645:main.c        **** 	{
 862              		.loc 1 645 0 discriminator 3
 863 001a 0133     		adds	r3, r3, #1
 864              	.LVL95:
 865 001c DBB2     		uxtb	r3, r3
 866              	.LVL96:
 647:main.c        **** 		dec /= 10;
 867              		.loc 1 647 0 discriminator 3
 868 001e 0130     		adds	r0, r0, #1
 869              	.LVL97:
 870              	.L70:
 645:main.c        **** 	{
 871              		.loc 1 645 0 discriminator 1
 872 0020 072B     		cmp	r3, #7
 873 0022 F2D9     		bls	.L71
 651:main.c        **** 
 874              		.loc 1 651 0
 875 0024 2046     		mov	r0, r4
 876              	.LVL98:
 877 0026 5DF8044B 		ldr	r4, [sp], #4
 878              		.cfi_restore 4
 879              		.cfi_def_cfa_offset 0
 880              	.LVL99:
 881 002a 7047     		bx	lr
 882              	.L74:
 883              		.align	2
 884              	.L73:
 885 002c 80969800 		.word	10000000
 886 0030 CDCCCCCC 		.word	-858993459
 887              		.cfi_endproc
 888              	.LFE75:
 889              		.size	BinaryFrequency, .-BinaryFrequency
 890              		.global	__aeabi_uldivmod
 891              		.section	.text.SetFrequency,"ax",%progbits
 892              		.align	2
 893              		.global	SetFrequency
 894              		.thumb
ARM GAS  C:\Users\koseki\AppData\Local\Temp\ccT0XNG9.s 			page 35


 895              		.thumb_func
 896              		.type	SetFrequency, %function
 897              	SetFrequency:
 898              	.LFB73:
 534:main.c        **** 	//uint8 pllN, iqDivider, fracLo, fracHi;
 899              		.loc 1 534 0
 900              		.cfi_startproc
 901              		@ args = 0, pretend = 0, frame = 32
 902              		@ frame_needed = 0, uses_anonymous_args = 0
 903 0000 70B5     		push	{r4, r5, r6, lr}
 904              		.cfi_def_cfa_offset 16
 905              		.cfi_offset 4, -16
 906              		.cfi_offset 5, -12
 907              		.cfi_offset 6, -8
 908              		.cfi_offset 14, -4
 909 0002 88B0     		sub	sp, sp, #32
 910              		.cfi_def_cfa_offset 48
 540:main.c        ****     uint8 i;
 911              		.loc 1 540 0
 912 0004 4E4B     		ldr	r3, .L85+8
 913 0006 1868     		ldr	r0, [r3]	@ unaligned
 914 0008 0690     		str	r0, [sp, #24]	@ unaligned
 915 000a 1B79     		ldrb	r3, [r3, #4]	@ zero_extendqisi2
 916 000c 8DF81C30 		strb	r3, [sp, #28]
 544:main.c        **** 		return;							// ignore set frequency command and return
 917              		.loc 1 544 0
 918 0010 4C48     		ldr	r0, .L85+12
 919 0012 4D49     		ldr	r1, .L85+16
 920 0014 0822     		movs	r2, #8
 921 0016 FFF7FEFF 		bl	memcmp
 922              	.LVL100:
 923 001a 0028     		cmp	r0, #0
 924 001c 00F08A80 		beq	.L75
 547:main.c        **** 
 925              		.loc 1 547 0
 926 0020 4848     		ldr	r0, .L85+12
 927 0022 FFF7FEFF 		bl	BinaryFrequency
 928              	.LVL101:
 549:main.c        **** 	{
 929              		.loc 1 549 0
 930 0026 494B     		ldr	r3, .L85+20
 931 0028 1B78     		ldrb	r3, [r3]	@ zero_extendqisi2
 932 002a 63B9     		cbnz	r3, .L77
 549:main.c        **** 	{
 933              		.loc 1 549 0 is_stmt 0 discriminator 1
 934 002c A0F5C333 		sub	r3, r0, #99840
 935 0030 A03B     		subs	r3, r3, #160
 936 0032 474A     		ldr	r2, .L85+24
 937 0034 9342     		cmp	r3, r2
 938 0036 06D9     		bls	.L77
 551:main.c        **** 		return;
 939              		.loc 1 551 0 is_stmt 1
 940 0038 424B     		ldr	r3, .L85+12
 941 003a 434A     		ldr	r2, .L85+16
 942 003c 1168     		ldr	r1, [r2]	@ unaligned
 943 003e 5268     		ldr	r2, [r2, #4]	@ unaligned
 944 0040 1960     		str	r1, [r3]	@ unaligned
ARM GAS  C:\Users\koseki\AppData\Local\Temp\ccT0XNG9.s 			page 36


 945 0042 5A60     		str	r2, [r3, #4]	@ unaligned
 552:main.c        **** 	}
 946              		.loc 1 552 0
 947 0044 76E0     		b	.L75
 948              	.L77:
 554:main.c        **** 	Frequency = frq;				// save new receive frequency (binary form)
 949              		.loc 1 554 0
 950 0046 404B     		ldr	r3, .L85+16
 951 0048 3E4A     		ldr	r2, .L85+12
 952 004a 1168     		ldr	r1, [r2]	@ unaligned
 953 004c 5268     		ldr	r2, [r2, #4]	@ unaligned
 954 004e 1960     		str	r1, [r3]	@ unaligned
 955 0050 5A60     		str	r2, [r3, #4]	@ unaligned
 555:main.c        ****     
 956              		.loc 1 555 0
 957 0052 404B     		ldr	r3, .L85+28
 958 0054 1860     		str	r0, [r3]
 560:main.c        ****     // (2017.5.31)koseki
 959              		.loc 1 560 0
 960 0056 404B     		ldr	r3, .L85+32
 961 0058 83FB0032 		smull	r3, r2, r3, r0
 962 005c C317     		asrs	r3, r0, #31
 963 005e C3EB6213 		rsb	r3, r3, r2, asr #5
 964 0062 3E4A     		ldr	r2, .L85+36
 965 0064 1268     		ldr	r2, [r2]
 966 0066 02FB03F3 		mul	r3, r2, r3
 967 006a 3D4E     		ldr	r6, .L85+40
 968 006c 86FB0326 		smull	r2, r6, r6, r3
 969 0070 DB17     		asrs	r3, r3, #31
 970 0072 C3EB2633 		rsb	r3, r3, r6, asr #12
 971 0076 0344     		add	r3, r3, r0
 972              	.LVL102:
 562:main.c        ****     // DDS frequency is quadruple of Rx frequency 
 973              		.loc 1 562 0
 974 0078 3A4A     		ldr	r2, .L85+44
 975 007a 1278     		ldrb	r2, [r2]	@ zero_extendqisi2
 976 007c 02EB4202 		add	r2, r2, r2, lsl #1
 977 0080 D200     		lsls	r2, r2, #3
 978 0082 3949     		ldr	r1, .L85+48
 979 0084 0A44     		add	r2, r2, r1
 980 0086 5668     		ldr	r6, [r2, #4]
 981 0088 1E44     		add	r6, r6, r3
 982              	.LVL103:
 565:main.c        ****     wdata /= 125000000;
 983              		.loc 1 565 0
 984 008a 0024     		movs	r4, #0
 985              	.LVL104:
 566:main.c        **** 
 986              		.loc 1 566 0
 987 008c 2046     		mov	r0, r4
 988 008e B100     		lsls	r1, r6, #2
 989              	.LVL105:
 990 0090 29A3     		adr	r3, .L85
 991 0092 D3E90023 		ldrd	r2, [r3]
 992 0096 FFF7FEFF 		bl	__aeabi_uldivmod
 993              	.LVL106:
 568:main.c        ****         w[i] = (uint8)((wdata >> i * 8) & 0x000000FFu);
ARM GAS  C:\Users\koseki\AppData\Local\Temp\ccT0XNG9.s 			page 37


 994              		.loc 1 568 0
 995 009a 2346     		mov	r3, r4
 996 009c 12E0     		b	.L78
 997              	.LVL107:
 998              	.L79:
 569:main.c        ****     if ((frq < 40000000) && (frq > 0))
 999              		.loc 1 569 0 discriminator 3
 1000 009e DA00     		lsls	r2, r3, #3
 1001 00a0 C2F12005 		rsb	r5, r2, #32
 1002 00a4 A2F12004 		sub	r4, r2, #32
 1003 00a8 20FA02F2 		lsr	r2, r0, r2
 1004 00ac 01FA05F5 		lsl	r5, r1, r5
 1005 00b0 2A43     		orrs	r2, r2, r5
 1006 00b2 21FA04F4 		lsr	r4, r1, r4
 1007 00b6 2243     		orrs	r2, r2, r4
 1008 00b8 08AC     		add	r4, sp, #32
 1009 00ba 1C44     		add	r4, r4, r3
 1010 00bc 04F8082C 		strb	r2, [r4, #-8]
 568:main.c        ****         w[i] = (uint8)((wdata >> i * 8) & 0x000000FFu);
 1011              		.loc 1 568 0 discriminator 3
 1012 00c0 0133     		adds	r3, r3, #1
 1013              	.LVL108:
 1014 00c2 DBB2     		uxtb	r3, r3
 1015              	.LVL109:
 1016              	.L78:
 568:main.c        ****         w[i] = (uint8)((wdata >> i * 8) & 0x000000FFu);
 1017              		.loc 1 568 0 is_stmt 0 discriminator 1
 1018 00c4 032B     		cmp	r3, #3
 1019 00c6 EAD9     		bls	.L79
 570:main.c        ****     {
 1020              		.loc 1 570 0 is_stmt 1
 1021 00c8 013E     		subs	r6, r6, #1
 1022              	.LVL110:
 1023 00ca 284B     		ldr	r3, .L85+52
 1024              	.LVL111:
 1025 00cc 9E42     		cmp	r6, r3
 1026 00ce 22D8     		bhi	.L80
 573:main.c        ****         // writing data to the SPIM software buffer
 1027              		.loc 1 573 0
 1028 00d0 0022     		movs	r2, #0
 1029 00d2 274B     		ldr	r3, .L85+56
 1030 00d4 1A70     		strb	r2, [r3]
 575:main.c        ****         SPIM_WriteTxData(w[1]);
 1031              		.loc 1 575 0
 1032 00d6 9DF81800 		ldrb	r0, [sp, #24]	@ zero_extendqisi2
 1033              	.LVL112:
 1034 00da FFF7FEFF 		bl	SPIM_WriteTxData
 1035              	.LVL113:
 576:main.c        ****         SPIM_WriteTxData(w[2]);
 1036              		.loc 1 576 0
 1037 00de 9DF81900 		ldrb	r0, [sp, #25]	@ zero_extendqisi2
 1038 00e2 FFF7FEFF 		bl	SPIM_WriteTxData
 1039              	.LVL114:
 577:main.c        ****         SPIM_WriteTxData(w[3]);
 1040              		.loc 1 577 0
 1041 00e6 9DF81A00 		ldrb	r0, [sp, #26]	@ zero_extendqisi2
 1042 00ea FFF7FEFF 		bl	SPIM_WriteTxData
ARM GAS  C:\Users\koseki\AppData\Local\Temp\ccT0XNG9.s 			page 38


 1043              	.LVL115:
 578:main.c        ****         SPIM_WriteTxData(w[4]);
 1044              		.loc 1 578 0
 1045 00ee 9DF81B00 		ldrb	r0, [sp, #27]	@ zero_extendqisi2
 1046 00f2 FFF7FEFF 		bl	SPIM_WriteTxData
 1047              	.LVL116:
 579:main.c        ****         // We need to know the moment when SPI communication is complete
 1048              		.loc 1 579 0
 1049 00f6 9DF81C00 		ldrb	r0, [sp, #28]	@ zero_extendqisi2
 1050 00fa FFF7FEFF 		bl	SPIM_WriteTxData
 1051              	.LVL117:
 1052              	.L81:
 582:main.c        ****         sprintf(str, "%7ld[Hz]", Frequency);
 1053              		.loc 1 582 0 discriminator 1
 1054 00fe FFF7FEFF 		bl	SPIM_ReadTxStatus
 1055              	.LVL118:
 1056 0102 10F0010F 		tst	r0, #1
 1057 0106 FAD0     		beq	.L81
 583:main.c        ****     }
 1058              		.loc 1 583 0
 1059 0108 01A8     		add	r0, sp, #4
 1060 010a 1A49     		ldr	r1, .L85+60
 1061 010c 114B     		ldr	r3, .L85+28
 1062 010e 1A68     		ldr	r2, [r3]
 1063 0110 FFF7FEFF 		bl	sprintf
 1064              	.LVL119:
 1065 0114 04E0     		b	.L82
 1066              	.LVL120:
 1067              	.L80:
 586:main.c        ****         
 1068              		.loc 1 586 0
 1069 0116 01AB     		add	r3, sp, #4
 1070 0118 174A     		ldr	r2, .L85+64
 1071 011a 07CA     		ldmia	r2, {r0, r1, r2}
 1072              	.LVL121:
 1073 011c 83E80700 		stmia	r3, {r0, r1, r2}
 1074              	.L82:
 588:main.c        ****     I2C_CLCD_PrintString(str);
 1075              		.loc 1 588 0
 1076 0120 0020     		movs	r0, #0
 1077 0122 0521     		movs	r1, #5
 1078 0124 FFF7FEFF 		bl	I2C_CLCD_Position
 1079              	.LVL122:
 589:main.c        **** 
 1080              		.loc 1 589 0
 1081 0128 01A8     		add	r0, sp, #4
 1082 012a FFF7FEFF 		bl	I2C_CLCD_PrintString
 1083              	.LVL123:
 591:main.c        **** }
 1084              		.loc 1 591 0
 1085 012e 0120     		movs	r0, #1
 1086 0130 FFF7FEFF 		bl	CyDelay
 1087              	.LVL124:
 1088              	.L75:
 592:main.c        **** 
 1089              		.loc 1 592 0
 1090 0134 08B0     		add	sp, sp, #32
ARM GAS  C:\Users\koseki\AppData\Local\Temp\ccT0XNG9.s 			page 39


 1091              		.cfi_def_cfa_offset 16
 1092              		@ sp needed
 1093 0136 70BD     		pop	{r4, r5, r6, pc}
 1094              	.L86:
 1095              		.align	3
 1096              	.L85:
 1097 0138 40597307 		.word	125000000
 1098 013c 00000000 		.word	0
 1099 0140 00000000 		.word	.LANCHOR0
 1100 0144 00000000 		.word	Freq
 1101 0148 00000000 		.word	LastFreq
 1102 014c 00000000 		.word	Debug
 1103 0150 608B7800 		.word	7900000
 1104 0154 00000000 		.word	Frequency
 1105 0158 1F85EB51 		.word	1374389535
 1106 015c 00000000 		.word	FrequencyError
 1107 0160 89B5F814 		.word	351843721
 1108 0164 00000000 		.word	Ch
 1109 0168 08000000 		.word	.LANCHOR1+8
 1110 016c FE596202 		.word	39999998
 1111 0170 00000000 		.word	AgcGain
 1112 0174 50000000 		.word	.LC11
 1113 0178 5C000000 		.word	.LC12
 1114              		.cfi_endproc
 1115              	.LFE73:
 1116              		.size	SetFrequency, .-SetFrequency
 1117 017c AFF30080 		.section	.text.ChannelSet,"ax",%progbits
 1118              		.align	2
 1119              		.global	ChannelSet
 1120              		.thumb
 1121              		.thumb_func
 1122              		.type	ChannelSet, %function
 1123              	ChannelSet:
 1124              	.LFB71:
 443:main.c        ****     char str[20];
 1125              		.loc 1 443 0
 1126              		.cfi_startproc
 1127              		@ args = 0, pretend = 0, frame = 24
 1128              		@ frame_needed = 0, uses_anonymous_args = 0
 1129              	.LVL125:
 1130 0000 F0B5     		push	{r4, r5, r6, r7, lr}
 1131              		.cfi_def_cfa_offset 20
 1132              		.cfi_offset 4, -20
 1133              		.cfi_offset 5, -16
 1134              		.cfi_offset 6, -12
 1135              		.cfi_offset 7, -8
 1136              		.cfi_offset 14, -4
 1137 0002 87B0     		sub	sp, sp, #28
 1138              		.cfi_def_cfa_offset 48
 1139 0004 0546     		mov	r5, r0
 447:main.c        ****     SetFrequency();
 1140              		.loc 1 447 0
 1141 0006 184E     		ldr	r6, .L89
 1142 0008 184B     		ldr	r3, .L89+4
 1143 000a 1B78     		ldrb	r3, [r3]	@ zero_extendqisi2
 1144 000c 03EB4303 		add	r3, r3, r3, lsl #1
 1145 0010 DB00     		lsls	r3, r3, #3
ARM GAS  C:\Users\koseki\AppData\Local\Temp\ccT0XNG9.s 			page 40


 1146 0012 3344     		add	r3, r3, r6
 1147 0014 1648     		ldr	r0, .L89+8
 1148              	.LVL126:
 1149 0016 1749     		ldr	r1, .L89+12
 1150 0018 9A68     		ldr	r2, [r3, #8]
 1151 001a FFF7FEFF 		bl	sprintf
 1152              	.LVL127:
 448:main.c        ****     Mode = station[ch].Mode;
 1153              		.loc 1 448 0
 1154 001e FFF7FEFF 		bl	SetFrequency
 1155              	.LVL128:
 449:main.c        **** 	SetMode(Mode);
 1156              		.loc 1 449 0
 1157 0022 6F00     		lsls	r7, r5, #1
 1158 0024 7B19     		adds	r3, r7, r5
 1159 0026 DB00     		lsls	r3, r3, #3
 1160 0028 3344     		add	r3, r3, r6
 1161 002a 03F11004 		add	r4, r3, #16
 1162 002e 187D     		ldrb	r0, [r3, #20]	@ zero_extendqisi2
 1163 0030 114B     		ldr	r3, .L89+16
 1164 0032 1870     		strb	r0, [r3]
 450:main.c        ****     Filter = station[ch].Filter;
 1165              		.loc 1 450 0
 1166 0034 FFF7FEFF 		bl	SetMode
 1167              	.LVL129:
 451:main.c        ****     LoadFilter(Filter);
 1168              		.loc 1 451 0
 1169 0038 6079     		ldrb	r0, [r4, #5]	@ zero_extendqisi2
 1170 003a 104B     		ldr	r3, .L89+20
 1171 003c 1870     		strb	r0, [r3]
 452:main.c        ****     
 1172              		.loc 1 452 0
 1173 003e FFF7FEFF 		bl	LoadFilter
 1174              	.LVL130:
 454:main.c        ****     I2C_CLCD_Position(0u, cNAME);
 1175              		.loc 1 454 0
 1176 0042 7919     		adds	r1, r7, r5
 1177 0044 C900     		lsls	r1, r1, #3
 1178 0046 01A8     		add	r0, sp, #4
 1179 0048 3144     		add	r1, r1, r6
 1180 004a FFF7FEFF 		bl	strcpy
 1181              	.LVL131:
 455:main.c        ****     I2C_CLCD_PrintString(str);
 1182              		.loc 1 455 0
 1183 004e 0020     		movs	r0, #0
 1184 0050 0146     		mov	r1, r0
 1185 0052 FFF7FEFF 		bl	I2C_CLCD_Position
 1186              	.LVL132:
 456:main.c        ****     
 1187              		.loc 1 456 0
 1188 0056 01A8     		add	r0, sp, #4
 1189 0058 FFF7FEFF 		bl	I2C_CLCD_PrintString
 1190              	.LVL133:
 458:main.c        **** }
 1191              		.loc 1 458 0
 1192 005c 0022     		movs	r2, #0
 1193 005e 084B     		ldr	r3, .L89+24
ARM GAS  C:\Users\koseki\AppData\Local\Temp\ccT0XNG9.s 			page 41


 1194 0060 1A60     		str	r2, [r3]
 459:main.c        **** 
 1195              		.loc 1 459 0
 1196 0062 07B0     		add	sp, sp, #28
 1197              		.cfi_def_cfa_offset 20
 1198              		@ sp needed
 1199 0064 F0BD     		pop	{r4, r5, r6, r7, pc}
 1200              	.L90:
 1201 0066 00BF     		.align	2
 1202              	.L89:
 1203 0068 00000000 		.word	.LANCHOR1
 1204 006c 00000000 		.word	Ch
 1205 0070 00000000 		.word	Freq
 1206 0074 68000000 		.word	.LC13
 1207 0078 00000000 		.word	Mode
 1208 007c 00000000 		.word	Filter
 1209 0080 00000000 		.word	AgcIndicator
 1210              		.cfi_endproc
 1211              	.LFE71:
 1212              		.size	ChannelSet, .-ChannelSet
 1213              		.section	.text.Task_CLCD,"ax",%progbits
 1214              		.align	2
 1215              		.global	Task_CLCD
 1216              		.thumb
 1217              		.thumb_func
 1218              		.type	Task_CLCD, %function
 1219              	Task_CLCD:
 1220              	.LFB70:
 376:main.c        ****     int8   click;
 1221              		.loc 1 376 0
 1222              		.cfi_startproc
 1223              		@ args = 0, pretend = 0, frame = 24
 1224              		@ frame_needed = 0, uses_anonymous_args = 0
 1225              	.LVL134:
 1226 0000 30B5     		push	{r4, r5, lr}
 1227              		.cfi_def_cfa_offset 12
 1228              		.cfi_offset 4, -12
 1229              		.cfi_offset 5, -8
 1230              		.cfi_offset 14, -4
 1231 0002 87B0     		sub	sp, sp, #28
 1232              		.cfi_def_cfa_offset 40
 1233              	.LVL135:
 384:main.c        ****     I2C_CLCD_Position(1u, cAGC);
 1234              		.loc 1 384 0
 1235 0004 0024     		movs	r4, #0
 1236 0006 484B     		ldr	r3, .L102
 1237 0008 1C60     		str	r4, [r3]
 385:main.c        ****     I2C_CLCD_PrintString("S__");
 1238              		.loc 1 385 0
 1239 000a 0120     		movs	r0, #1
 1240              	.LVL136:
 1241 000c 0D21     		movs	r1, #13
 1242 000e FFF7FEFF 		bl	I2C_CLCD_Position
 1243              	.LVL137:
 386:main.c        **** 
 1244              		.loc 1 386 0
 1245 0012 4648     		ldr	r0, .L102+4
ARM GAS  C:\Users\koseki\AppData\Local\Temp\ccT0XNG9.s 			page 42


 1246 0014 FFF7FEFF 		bl	I2C_CLCD_PrintString
 1247              	.LVL138:
 389:main.c        ****     ChannelSet(Ch);
 1248              		.loc 1 389 0
 1249 0018 454B     		ldr	r3, .L102+8
 1250 001a 1C70     		strb	r4, [r3]
 390:main.c        ****     
 1251              		.loc 1 390 0
 1252 001c 2046     		mov	r0, r4
 1253 001e FFF7FEFF 		bl	ChannelSet
 1254              	.LVL139:
 380:main.c        ****     char str[20];
 1255              		.loc 1 380 0
 1256 0022 2024     		movs	r4, #32
 1257              	.LVL140:
 1258              	.L100:
 395:main.c        ****         
 1259              		.loc 1 395 0
 1260 0024 434B     		ldr	r3, .L102+12
 1261 0026 1868     		ldr	r0, [r3]
 1262 0028 0021     		movs	r1, #0
 1263 002a 4FF0FF32 		mov	r2, #-1
 1264 002e 0B46     		mov	r3, r1
 1265 0030 FFF7FEFF 		bl	xQueueGenericReceive
 1266              	.LVL141:
 398:main.c        ****         {
 1267              		.loc 1 398 0
 1268 0034 404B     		ldr	r3, .L102+16
 1269 0036 1868     		ldr	r0, [r3]
 1270 0038 FFF7FEFF 		bl	uxQueueMessagesWaiting
 1271              	.LVL142:
 1272 003c D8B1     		cbz	r0, .L92
 400:main.c        ****             // target frequency
 1273              		.loc 1 400 0
 1274 003e 3E4B     		ldr	r3, .L102+16
 1275 0040 1868     		ldr	r0, [r3]
 1276 0042 0DF11701 		add	r1, sp, #23
 1277 0046 0022     		movs	r2, #0
 1278 0048 1346     		mov	r3, r2
 1279 004a FFF7FEFF 		bl	xQueueGenericReceive
 1280              	.LVL143:
 402:main.c        ****             sprintf((char*)Freq, "%08ld", Frequency + (click * step_freq));
 1281              		.loc 1 402 0
 1282 004e 384B     		ldr	r3, .L102+8
 1283 0050 1B78     		ldrb	r3, [r3]	@ zero_extendqisi2
 1284 0052 03EB4303 		add	r3, r3, r3, lsl #1
 1285 0056 DB00     		lsls	r3, r3, #3
 1286 0058 384A     		ldr	r2, .L102+20
 1287 005a 1344     		add	r3, r3, r2
 1288 005c 1D69     		ldr	r5, [r3, #16]
 1289              	.LVL144:
 403:main.c        ****             SetFrequency();
 1290              		.loc 1 403 0
 1291 005e 9DF91720 		ldrsb	r2, [sp, #23]
 1292 0062 374B     		ldr	r3, .L102+24
 1293 0064 1B68     		ldr	r3, [r3]
 1294 0066 3748     		ldr	r0, .L102+28
ARM GAS  C:\Users\koseki\AppData\Local\Temp\ccT0XNG9.s 			page 43


 1295 0068 3749     		ldr	r1, .L102+32
 1296 006a 05FB0232 		mla	r2, r5, r2, r3
 1297 006e FFF7FEFF 		bl	sprintf
 1298              	.LVL145:
 404:main.c        ****         }
 1299              		.loc 1 404 0
 1300 0072 FFF7FEFF 		bl	SetFrequency
 1301              	.LVL146:
 1302              	.L92:
 406:main.c        ****         {
 1303              		.loc 1 406 0
 1304 0076 354B     		ldr	r3, .L102+36
 1305 0078 1868     		ldr	r0, [r3]
 1306 007a 0DF11601 		add	r1, sp, #22
 1307 007e 0022     		movs	r2, #0
 1308 0080 1346     		mov	r3, r2
 1309 0082 FFF7FEFF 		bl	xQueueGenericReceive
 1310              	.LVL147:
 1311 0086 68B1     		cbz	r0, .L93
 408:main.c        ****             if (Ch >= STATION_MAX)
 1312              		.loc 1 408 0
 1313 0088 294A     		ldr	r2, .L102+8
 1314 008a 1378     		ldrb	r3, [r2]	@ zero_extendqisi2
 1315 008c 0133     		adds	r3, r3, #1
 1316 008e DBB2     		uxtb	r3, r3
 1317 0090 1370     		strb	r3, [r2]
 409:main.c        ****                 Ch = 0;
 1318              		.loc 1 409 0
 1319 0092 062B     		cmp	r3, #6
 1320 0094 02D9     		bls	.L94
 410:main.c        ****             ChannelSet(Ch);
 1321              		.loc 1 410 0
 1322 0096 0022     		movs	r2, #0
 1323 0098 254B     		ldr	r3, .L102+8
 1324 009a 1A70     		strb	r2, [r3]
 1325              	.L94:
 411:main.c        ****         }
 1326              		.loc 1 411 0
 1327 009c 244B     		ldr	r3, .L102+8
 1328 009e 1878     		ldrb	r0, [r3]	@ zero_extendqisi2
 1329 00a0 FFF7FEFF 		bl	ChannelSet
 1330              	.LVL148:
 1331              	.L93:
 413:main.c        ****         {
 1332              		.loc 1 413 0
 1333 00a4 294B     		ldr	r3, .L102+36
 1334 00a6 5868     		ldr	r0, [r3, #4]
 1335 00a8 0DF11601 		add	r1, sp, #22
 1336 00ac 0022     		movs	r2, #0
 1337 00ae 1346     		mov	r3, r2
 1338 00b0 FFF7FEFF 		bl	xQueueGenericReceive
 1339              	.LVL149:
 1340 00b4 68B1     		cbz	r0, .L95
 415:main.c        ****                 Ch = STATION_MAX - 1;
 1341              		.loc 1 415 0
 1342 00b6 1E4B     		ldr	r3, .L102+8
 1343 00b8 1B78     		ldrb	r3, [r3]	@ zero_extendqisi2
ARM GAS  C:\Users\koseki\AppData\Local\Temp\ccT0XNG9.s 			page 44


 1344 00ba 1BB9     		cbnz	r3, .L96
 416:main.c        ****             else
 1345              		.loc 1 416 0
 1346 00bc 0622     		movs	r2, #6
 1347 00be 1C4B     		ldr	r3, .L102+8
 1348 00c0 1A70     		strb	r2, [r3]
 1349 00c2 02E0     		b	.L97
 1350              	.L96:
 418:main.c        ****             ChannelSet(Ch);
 1351              		.loc 1 418 0
 1352 00c4 013B     		subs	r3, r3, #1
 1353 00c6 1A4A     		ldr	r2, .L102+8
 1354 00c8 1370     		strb	r3, [r2]
 1355              	.L97:
 419:main.c        ****         }
 1356              		.loc 1 419 0
 1357 00ca 194B     		ldr	r3, .L102+8
 1358 00cc 1878     		ldrb	r0, [r3]	@ zero_extendqisi2
 1359 00ce FFF7FEFF 		bl	ChannelSet
 1360              	.LVL150:
 1361              	.L95:
 422:main.c        ****         if ((cnt & 0x07) == 0)
 1362              		.loc 1 422 0
 1363 00d2 013C     		subs	r4, r4, #1
 1364              	.LVL151:
 1365 00d4 E4B2     		uxtb	r4, r4
 1366              	.LVL152:
 423:main.c        ****             AgcIndicator += (64 - AgcGain);
 1367              		.loc 1 423 0
 1368 00d6 14F0070F 		tst	r4, #7
 1369 00da 06D1     		bne	.L98
 424:main.c        ****         if (cnt == 0)
 1370              		.loc 1 424 0
 1371 00dc 124A     		ldr	r2, .L102
 1372 00de 1C4B     		ldr	r3, .L102+40
 1373 00e0 1978     		ldrb	r1, [r3]	@ zero_extendqisi2
 1374 00e2 1368     		ldr	r3, [r2]
 1375 00e4 5B1A     		subs	r3, r3, r1
 1376 00e6 4033     		adds	r3, r3, #64
 1377 00e8 1360     		str	r3, [r2]
 1378              	.L98:
 425:main.c        ****         {
 1379              		.loc 1 425 0
 1380 00ea 8CB9     		cbnz	r4, .L99
 427:main.c        ****             I2C_CLCD_Position(1u, cAGC);
 1381              		.loc 1 427 0
 1382 00ec 0E4C     		ldr	r4, .L102
 1383              	.LVL153:
 1384 00ee 2268     		ldr	r2, [r4]
 1385 00f0 6846     		mov	r0, sp
 1386 00f2 1849     		ldr	r1, .L102+44
 1387 00f4 C2F38702 		ubfx	r2, r2, #2, #8
 1388 00f8 FFF7FEFF 		bl	sprintf
 1389              	.LVL154:
 428:main.c        ****             I2C_CLCD_PrintString(str);
 1390              		.loc 1 428 0
 1391 00fc 0120     		movs	r0, #1
ARM GAS  C:\Users\koseki\AppData\Local\Temp\ccT0XNG9.s 			page 45


 1392 00fe 0D21     		movs	r1, #13
 1393 0100 FFF7FEFF 		bl	I2C_CLCD_Position
 1394              	.LVL155:
 429:main.c        ****             cnt = 0x20;
 1395              		.loc 1 429 0
 1396 0104 6846     		mov	r0, sp
 1397 0106 FFF7FEFF 		bl	I2C_CLCD_PrintString
 1398              	.LVL156:
 431:main.c        ****         }
 1399              		.loc 1 431 0
 1400 010a 0023     		movs	r3, #0
 1401 010c 2360     		str	r3, [r4]
 430:main.c        ****             AgcIndicator = 0;
 1402              		.loc 1 430 0
 1403 010e 2024     		movs	r4, #32
 1404              	.LVL157:
 1405              	.L99:
 433:main.c        **** 
 1406              		.loc 1 433 0
 1407 0110 084B     		ldr	r3, .L102+12
 1408 0112 1868     		ldr	r0, [r3]
 1409 0114 0021     		movs	r1, #0
 1410 0116 0A46     		mov	r2, r1
 1411 0118 0B46     		mov	r3, r1
 1412 011a FFF7FEFF 		bl	xQueueGenericSend
 1413              	.LVL158:
 435:main.c        ****     }
 1414              		.loc 1 435 0
 1415 011e 6420     		movs	r0, #100
 1416 0120 FFF7FEFF 		bl	vTaskDelay
 1417              	.LVL159:
 436:main.c        **** }
 1418              		.loc 1 436 0
 1419 0124 7EE7     		b	.L100
 1420              	.L103:
 1421 0126 00BF     		.align	2
 1422              	.L102:
 1423 0128 00000000 		.word	AgcIndicator
 1424 012c 70000000 		.word	.LC14
 1425 0130 00000000 		.word	Ch
 1426 0134 00000000 		.word	xMutex_DDS
 1427 0138 00000000 		.word	xQueue_ROT
 1428 013c 00000000 		.word	.LANCHOR1
 1429 0140 00000000 		.word	Frequency
 1430 0144 00000000 		.word	Freq
 1431 0148 68000000 		.word	.LC13
 1432 014c 00000000 		.word	xQueue_KEY
 1433 0150 00000000 		.word	AgcGain
 1434 0154 74000000 		.word	.LC15
 1435              		.cfi_endproc
 1436              	.LFE70:
 1437              		.size	Task_CLCD, .-Task_CLCD
 1438              		.section	.text.Initialize,"ax",%progbits
 1439              		.align	2
 1440              		.global	Initialize
 1441              		.thumb
 1442              		.thumb_func
ARM GAS  C:\Users\koseki\AppData\Local\Temp\ccT0XNG9.s 			page 46


 1443              		.type	Initialize, %function
 1444              	Initialize:
 1445              	.LFB65:
 217:main.c        ****     uint32 i;
 1446              		.loc 1 217 0
 1447              		.cfi_startproc
 1448              		@ args = 0, pretend = 0, frame = 24
 1449              		@ frame_needed = 0, uses_anonymous_args = 0
 1450 0000 10B5     		push	{r4, lr}
 1451              		.cfi_def_cfa_offset 8
 1452              		.cfi_offset 4, -8
 1453              		.cfi_offset 14, -4
 1454 0002 86B0     		sub	sp, sp, #24
 1455              		.cfi_def_cfa_offset 32
 222:main.c        ****     
 1456              		.loc 1 222 0
 1457 0004 6420     		movs	r0, #100
 1458 0006 FFF7FEFF 		bl	CyDelay
 1459              	.LVL160:
 225:main.c        ****     I2C_1_Start();
 1460              		.loc 1 225 0
 1461 000a FFF7FEFF 		bl	SPIM_Start
 1462              	.LVL161:
 226:main.c        ****     I2C_CLCD_Start();
 1463              		.loc 1 226 0
 1464 000e FFF7FEFF 		bl	I2C_1_Start
 1465              	.LVL162:
 227:main.c        **** 
 1466              		.loc 1 227 0
 1467 0012 FFF7FEFF 		bl	I2C_CLCD_Start
 1468              	.LVL163:
 230:main.c        **** 	VDAC_1_Start ();					// start DAC output
 1469              		.loc 1 230 0
 1470 0016 FFF7FEFF 		bl	Comp_1_Start
 1471              	.LVL164:
 231:main.c        **** 
 1472              		.loc 1 231 0
 1473 001a FFF7FEFF 		bl	VDAC_1_Start
 1474              	.LVL165:
 236:main.c        **** 	VDAC_Start ();					// start DAC output
 1475              		.loc 1 236 0
 1476 001e FFF7FEFF 		bl	Filter_Start
 1477              	.LVL166:
 237:main.c        **** 	
 1478              		.loc 1 237 0
 1479 0022 FFF7FEFF 		bl	VDAC_Start
 1480              	.LVL167:
 239:main.c        **** 	ADC_IRQ_Enable ();
 1481              		.loc 1 239 0
 1482 0026 FFF7FEFF 		bl	ADC_Start
 1483              	.LVL168:
 240:main.c        ****     isr_adc_StartEx(ADC_ISR_Handler);
 1484              		.loc 1 240 0
 1485 002a FFF7FEFF 		bl	ADC_IRQ_Enable
 1486              	.LVL169:
 241:main.c        **** 	ADC_StartConvert ();			// start conversions
 1487              		.loc 1 241 0
ARM GAS  C:\Users\koseki\AppData\Local\Temp\ccT0XNG9.s 			page 47


 1488 002e 4248     		ldr	r0, .L112
 1489 0030 FFF7FEFF 		bl	isr_adc_StartEx
 1490              	.LVL170:
 242:main.c        ****     
 1491              		.loc 1 242 0
 1492 0034 FFF7FEFF 		bl	ADC_StartConvert
 1493              	.LVL171:
 244:main.c        **** 
 1494              		.loc 1 244 0
 1495 0038 6420     		movs	r0, #100
 1496 003a FFF7FEFF 		bl	CyDelay
 1497              	.LVL172:
 246:main.c        ****     I2C_CLCD_ClearLine(1u);
 1498              		.loc 1 246 0
 1499 003e 0020     		movs	r0, #0
 1500 0040 FFF7FEFF 		bl	I2C_CLCD_ClearLine
 1501              	.LVL173:
 247:main.c        **** 	
 1502              		.loc 1 247 0
 1503 0044 0120     		movs	r0, #1
 1504 0046 FFF7FEFF 		bl	I2C_CLCD_ClearLine
 1505              	.LVL174:
 250:main.c        **** 	SetMode (MODE_USB);
 1506              		.loc 1 250 0
 1507 004a 0120     		movs	r0, #1
 1508 004c 3B4B     		ldr	r3, .L112+4
 1509 004e 1870     		strb	r0, [r3]
 251:main.c        **** 	IDCOffset = QDCOffset = 0x500;	// preset offset for better settling time
 1510              		.loc 1 251 0
 1511 0050 FFF7FEFF 		bl	SetMode
 1512              	.LVL175:
 252:main.c        ****     AgcTimeConstant = 4;            // Default AGC Time constant
 1513              		.loc 1 252 0
 1514 0054 4FF4A063 		mov	r3, #1280
 1515 0058 394A     		ldr	r2, .L112+8
 1516 005a 1380     		strh	r3, [r2]	@ movhi
 1517 005c 394A     		ldr	r2, .L112+12
 1518 005e 1380     		strh	r3, [r2]	@ movhi
 253:main.c        **** 
 1519              		.loc 1 253 0
 1520 0060 0422     		movs	r2, #4
 1521 0062 394B     		ldr	r3, .L112+16
 1522 0064 1A70     		strb	r2, [r3]
 256:main.c        ****     SPIM_WriteTxData(w[1]);
 1523              		.loc 1 256 0
 1524 0066 0020     		movs	r0, #0
 1525 0068 FFF7FEFF 		bl	SPIM_WriteTxData
 1526              	.LVL176:
 257:main.c        ****     SPIM_WriteTxData(w[2]);
 1527              		.loc 1 257 0
 1528 006c 0020     		movs	r0, #0
 1529 006e FFF7FEFF 		bl	SPIM_WriteTxData
 1530              	.LVL177:
 258:main.c        ****     SPIM_WriteTxData(w[3]);
 1531              		.loc 1 258 0
 1532 0072 0020     		movs	r0, #0
 1533 0074 FFF7FEFF 		bl	SPIM_WriteTxData
ARM GAS  C:\Users\koseki\AppData\Local\Temp\ccT0XNG9.s 			page 48


 1534              	.LVL178:
 259:main.c        ****     SPIM_WriteTxData(w[4]);
 1535              		.loc 1 259 0
 1536 0078 0020     		movs	r0, #0
 1537 007a FFF7FEFF 		bl	SPIM_WriteTxData
 1538              	.LVL179:
 260:main.c        **** 
 1539              		.loc 1 260 0
 1540 007e 0020     		movs	r0, #0
 1541 0080 FFF7FEFF 		bl	SPIM_WriteTxData
 1542              	.LVL180:
 262:main.c        **** 
 1543              		.loc 1 262 0
 1544 0084 FFF7FEFF 		bl	EEPROM_Start
 1545              	.LVL181:
 264:main.c        ****     
 1546              		.loc 1 264 0
 1547 0088 6420     		movs	r0, #100
 1548 008a FFF7FEFF 		bl	CyDelay
 1549              	.LVL182:
 267:main.c        ****         SERIAL_NUM[i] = pSERIAL_NUM[i];
 1550              		.loc 1 267 0
 1551 008e 0023     		movs	r3, #0
 1552 0090 06E0     		b	.L105
 1553              	.LVL183:
 1554              	.L106:
 268:main.c        **** 
 1555              		.loc 1 268 0 discriminator 3
 1556 0092 2E4A     		ldr	r2, .L112+20
 1557 0094 D2F8A820 		ldr	r2, [r2, #168]
 1558 0098 D15C     		ldrb	r1, [r2, r3]	@ zero_extendqisi2
 1559 009a 2D4A     		ldr	r2, .L112+24
 1560 009c D154     		strb	r1, [r2, r3]
 267:main.c        ****         SERIAL_NUM[i] = pSERIAL_NUM[i];
 1561              		.loc 1 267 0 discriminator 3
 1562 009e 0133     		adds	r3, r3, #1
 1563              	.LVL184:
 1564              	.L105:
 267:main.c        ****         SERIAL_NUM[i] = pSERIAL_NUM[i];
 1565              		.loc 1 267 0 is_stmt 0 discriminator 1
 1566 00a0 072B     		cmp	r3, #7
 1567 00a2 F6D9     		bls	.L106
 270:main.c        **** 	{
 1568              		.loc 1 270 0 is_stmt 1
 1569 00a4 2A4B     		ldr	r3, .L112+24
 1570              	.LVL185:
 1571 00a6 1B78     		ldrb	r3, [r3]	@ zero_extendqisi2
 1572 00a8 302B     		cmp	r3, #48
 1573 00aa 09D0     		beq	.L107
 272:main.c        **** 		EEPROM_Write ((uint8*)"00000000", SN_ROW);	// write and wait for completion
 1574              		.loc 1 272 0
 1575 00ac FFF7FEFF 		bl	CySetTemp
 1576              	.LVL186:
 273:main.c        ****         // AD9850_DDS
 1577              		.loc 1 273 0
 1578 00b0 2848     		ldr	r0, .L112+28
 1579 00b2 0021     		movs	r1, #0
ARM GAS  C:\Users\koseki\AppData\Local\Temp\ccT0XNG9.s 			page 49


 1580 00b4 FFF7FEFF 		bl	EEPROM_Write
 1581              	.LVL187:
 275:main.c        **** 	}
 1582              		.loc 1 275 0
 1583 00b8 2748     		ldr	r0, .L112+32
 1584 00ba 0121     		movs	r1, #1
 1585 00bc FFF7FEFF 		bl	EEPROM_Write
 1586              	.LVL188:
 1587              	.L107:
 278:main.c        **** 	//memcpy (Freq, FREQ_PLL_TEST, 8);// initialize the clock generator output frequency
 1588              		.loc 1 278 0
 1589 00c0 0024     		movs	r4, #0
 1590 00c2 264B     		ldr	r3, .L112+36
 1591 00c4 1C60     		str	r4, [r3]
 282:main.c        **** 	CYGlobalIntEnable;
 1592              		.loc 1 282 0
 1593 00c6 C820     		movs	r0, #200
 1594 00c8 FFF7FEFF 		bl	CyDelay
 1595              	.LVL189:
 283:main.c        **** 	
 1596              		.loc 1 283 0
 1597              	@ 283 "main.c" 1
 1598 00cc 62B6     		CPSIE   i
 1599              	@ 0 "" 2
 1600              	.LVL190:
 286:main.c        ****         FREQ_ERROR[i] = pFREQ_ERROR[i];
 1601              		.loc 1 286 0
 1602              		.thumb
 1603 00ce 2346     		mov	r3, r4
 1604 00d0 06E0     		b	.L108
 1605              	.LVL191:
 1606              	.L109:
 287:main.c        ****         
 1607              		.loc 1 287 0 discriminator 3
 1608 00d2 1E4A     		ldr	r2, .L112+20
 1609 00d4 D2F8AC20 		ldr	r2, [r2, #172]
 1610 00d8 D15C     		ldrb	r1, [r2, r3]	@ zero_extendqisi2
 1611 00da 214A     		ldr	r2, .L112+40
 1612 00dc D154     		strb	r1, [r2, r3]
 286:main.c        ****         FREQ_ERROR[i] = pFREQ_ERROR[i];
 1613              		.loc 1 286 0 discriminator 3
 1614 00de 0133     		adds	r3, r3, #1
 1615              	.LVL192:
 1616              	.L108:
 286:main.c        ****         FREQ_ERROR[i] = pFREQ_ERROR[i];
 1617              		.loc 1 286 0 is_stmt 0 discriminator 1
 1618 00e0 072B     		cmp	r3, #7
 1619 00e2 F6D9     		bls	.L109
 290:main.c        ****     if ((FrequencyError > 1000) || (FrequencyError < -1000))	// bounds checking
 1620              		.loc 1 290 0 is_stmt 1
 1621 00e4 1E48     		ldr	r0, .L112+40
 1622 00e6 FFF7FEFF 		bl	BinaryFrequency
 1623              	.LVL193:
 1624 00ea 1E4B     		ldr	r3, .L112+44
 1625 00ec 1B1A     		subs	r3, r3, r0
 1626 00ee 1B4A     		ldr	r2, .L112+36
 1627 00f0 1360     		str	r3, [r2]
ARM GAS  C:\Users\koseki\AppData\Local\Temp\ccT0XNG9.s 			page 50


 291:main.c        **** 		FrequencyError = 0;
 1628              		.loc 1 291 0
 1629 00f2 03F57A73 		add	r3, r3, #1000
 1630 00f6 B3F5FA6F 		cmp	r3, #2000
 1631 00fa 02D9     		bls	.L110
 292:main.c        **** 	memcpy (Freq, FREQ_START, 8);			// initialize the clock generator output frequency
 1632              		.loc 1 292 0
 1633 00fc 0022     		movs	r2, #0
 1634 00fe 174B     		ldr	r3, .L112+36
 1635 0100 1A60     		str	r2, [r3]
 1636              	.L110:
 293:main.c        **** 	SetFrequency ();
 1637              		.loc 1 293 0
 1638 0102 194A     		ldr	r2, .L112+48
 1639 0104 194B     		ldr	r3, .L112+52
 1640 0106 03CB     		ldmia	r3!, {r0, r1}
 1641 0108 1060     		str	r0, [r2]	@ unaligned
 1642 010a 5160     		str	r1, [r2, #4]	@ unaligned
 294:main.c        **** 
 1643              		.loc 1 294 0
 1644 010c FFF7FEFF 		bl	SetFrequency
 1645              	.LVL194:
 297:main.c        ****     I2C_CLCD_Position(0u, 0u);
 1646              		.loc 1 297 0
 1647 0110 174B     		ldr	r3, .L112+56
 1648 0112 1B78     		ldrb	r3, [r3]	@ zero_extendqisi2
 1649 0114 03EB4303 		add	r3, r3, r3, lsl #1
 1650 0118 DB00     		lsls	r3, r3, #3
 1651 011a 01A8     		add	r0, sp, #4
 1652 011c 1549     		ldr	r1, .L112+60
 1653 011e 0B4A     		ldr	r2, .L112+20
 1654 0120 1A44     		add	r2, r2, r3
 1655 0122 FFF7FEFF 		bl	sprintf
 1656              	.LVL195:
 298:main.c        ****     I2C_CLCD_PrintString(str);
 1657              		.loc 1 298 0
 1658 0126 0020     		movs	r0, #0
 1659 0128 0146     		mov	r1, r0
 1660 012a FFF7FEFF 		bl	I2C_CLCD_Position
 1661              	.LVL196:
 299:main.c        **** }
 1662              		.loc 1 299 0
 1663 012e 01A8     		add	r0, sp, #4
 1664 0130 FFF7FEFF 		bl	I2C_CLCD_PrintString
 1665              	.LVL197:
 300:main.c        **** 
 1666              		.loc 1 300 0
 1667 0134 06B0     		add	sp, sp, #24
 1668              		.cfi_def_cfa_offset 8
 1669              		@ sp needed
 1670 0136 10BD     		pop	{r4, pc}
 1671              	.L113:
 1672              		.align	2
 1673              	.L112:
 1674 0138 00000000 		.word	ADC_ISR_Handler
 1675 013c 00000000 		.word	Filter
 1676 0140 00000000 		.word	QDCOffset
ARM GAS  C:\Users\koseki\AppData\Local\Temp\ccT0XNG9.s 			page 51


 1677 0144 00000000 		.word	IDCOffset
 1678 0148 00000000 		.word	AgcTimeConstant
 1679 014c 00000000 		.word	.LANCHOR1
 1680 0150 00000000 		.word	SERIAL_NUM
 1681 0154 7C000000 		.word	.LC16
 1682 0158 88000000 		.word	.LC17
 1683 015c 00000000 		.word	FrequencyError
 1684 0160 00000000 		.word	FREQ_ERROR
 1685 0164 404B4C00 		.word	5000000
 1686 0168 00000000 		.word	Freq
 1687 016c 90000000 		.word	.LC18
 1688 0170 00000000 		.word	Ch
 1689 0174 9C000000 		.word	.LC19
 1690              		.cfi_endproc
 1691              	.LFE65:
 1692              		.size	Initialize, .-Initialize
 1693              		.section	.text.main,"ax",%progbits
 1694              		.align	2
 1695              		.global	main
 1696              		.thumb
 1697              		.thumb_func
 1698              		.type	main, %function
 1699              	main:
 1700              	.LFB64:
 181:main.c        ****     prvHardwareSetup();
 1701              		.loc 1 181 0
 1702              		.cfi_startproc
 1703              		@ Volatile: function does not return.
 1704              		@ args = 0, pretend = 0, frame = 0
 1705              		@ frame_needed = 0, uses_anonymous_args = 0
 1706 0000 00B5     		push	{lr}
 1707              		.cfi_def_cfa_offset 4
 1708              		.cfi_offset 14, -4
 1709 0002 85B0     		sub	sp, sp, #20
 1710              		.cfi_def_cfa_offset 24
 182:main.c        **** 
 1711              		.loc 1 182 0
 1712 0004 FFF7FEFF 		bl	prvHardwareSetup
 1713              	.LVL198:
 184:main.c        **** 
 1714              		.loc 1 184 0
 1715 0008 FFF7FEFF 		bl	Initialize
 1716              	.LVL199:
 187:main.c        ****     xQueue_ROT    = xQueueCreate(8, 1);     // 8 x 1byte
 1717              		.loc 1 187 0
 1718 000c 0120     		movs	r0, #1
 1719 000e FFF7FEFF 		bl	xQueueCreateMutex
 1720              	.LVL200:
 1721 0012 334B     		ldr	r3, .L117
 1722 0014 1860     		str	r0, [r3]
 188:main.c        ****     xQueue_KEY[0] = xQueueCreate(1, 1);     // 1 x 1byte
 1723              		.loc 1 188 0
 1724 0016 0820     		movs	r0, #8
 1725 0018 0121     		movs	r1, #1
 1726 001a 0022     		movs	r2, #0
 1727 001c FFF7FEFF 		bl	xQueueGenericCreate
 1728              	.LVL201:
ARM GAS  C:\Users\koseki\AppData\Local\Temp\ccT0XNG9.s 			page 52


 1729 0020 304B     		ldr	r3, .L117+4
 1730 0022 1860     		str	r0, [r3]
 189:main.c        ****     xQueue_KEY[1] = xQueueCreate(1, 1);     // 1 x 1byte
 1731              		.loc 1 189 0
 1732 0024 0120     		movs	r0, #1
 1733 0026 0146     		mov	r1, r0
 1734 0028 0022     		movs	r2, #0
 1735 002a FFF7FEFF 		bl	xQueueGenericCreate
 1736              	.LVL202:
 1737 002e 2E4C     		ldr	r4, .L117+8
 1738 0030 2060     		str	r0, [r4]
 190:main.c        ****     xQueue_FREQ  = xQueueCreate(1, 1);      // 1 x 1bytes
 1739              		.loc 1 190 0
 1740 0032 0120     		movs	r0, #1
 1741 0034 0146     		mov	r1, r0
 1742 0036 0022     		movs	r2, #0
 1743 0038 FFF7FEFF 		bl	xQueueGenericCreate
 1744              	.LVL203:
 1745 003c 6060     		str	r0, [r4, #4]
 191:main.c        **** 
 1746              		.loc 1 191 0
 1747 003e 0120     		movs	r0, #1
 1748 0040 0146     		mov	r1, r0
 1749 0042 0022     		movs	r2, #0
 1750 0044 FFF7FEFF 		bl	xQueueGenericCreate
 1751              	.LVL204:
 1752 0048 284B     		ldr	r3, .L117+12
 1753 004a 1860     		str	r0, [r3]
 193:main.c        **** 
 1754              		.loc 1 193 0
 1755 004c 4FF47A70 		mov	r0, #1000
 1756 0050 FFF7FEFF 		bl	CyDelay
 1757              	.LVL205:
 195:main.c        ****     xTaskCreate(Task_ROT, "ROT", TASK_STACK_ROT, NULL, TASK_PRIORITY_ROT, NULL);
 1758              		.loc 1 195 0
 1759 0054 0325     		movs	r5, #3
 1760 0056 0095     		str	r5, [sp]
 1761 0058 0024     		movs	r4, #0
 1762 005a 0194     		str	r4, [sp, #4]
 1763 005c 0294     		str	r4, [sp, #8]
 1764 005e 0394     		str	r4, [sp, #12]
 1765 0060 2348     		ldr	r0, .L117+16
 1766 0062 2449     		ldr	r1, .L117+20
 1767 0064 8022     		movs	r2, #128
 1768 0066 2346     		mov	r3, r4
 1769 0068 FFF7FEFF 		bl	xTaskGenericCreate
 1770              	.LVL206:
 196:main.c        ****     xTaskCreate(Task_KEY, "KEY", TASK_STACK_KEY, NULL, TASK_PRIORITY_KEY, NULL);
 1771              		.loc 1 196 0
 1772 006c 0095     		str	r5, [sp]
 1773 006e 0194     		str	r4, [sp, #4]
 1774 0070 0294     		str	r4, [sp, #8]
 1775 0072 0394     		str	r4, [sp, #12]
 1776 0074 2048     		ldr	r0, .L117+24
 1777 0076 2149     		ldr	r1, .L117+28
 1778 0078 8022     		movs	r2, #128
 1779 007a 2346     		mov	r3, r4
ARM GAS  C:\Users\koseki\AppData\Local\Temp\ccT0XNG9.s 			page 53


 1780 007c FFF7FEFF 		bl	xTaskGenericCreate
 1781              	.LVL207:
 197:main.c        ****     xTaskCreate(Task_CLCD, "CLCD", TASK_STACK_CLCD, NULL, TASK_PRIORITY_CLCD, NULL);
 1782              		.loc 1 197 0
 1783 0080 0095     		str	r5, [sp]
 1784 0082 0194     		str	r4, [sp, #4]
 1785 0084 0294     		str	r4, [sp, #8]
 1786 0086 0394     		str	r4, [sp, #12]
 1787 0088 1D48     		ldr	r0, .L117+32
 1788 008a 1E49     		ldr	r1, .L117+36
 1789 008c 8022     		movs	r2, #128
 1790 008e 2346     		mov	r3, r4
 1791 0090 FFF7FEFF 		bl	xTaskGenericCreate
 1792              	.LVL208:
 198:main.c        ****     xTaskCreate(Task_USBUART, "USBUART", TASK_STACK_USBUART, NULL, TASK_PRIORITY_USBUART, NULL);
 1793              		.loc 1 198 0
 1794 0094 0225     		movs	r5, #2
 1795 0096 0095     		str	r5, [sp]
 1796 0098 0194     		str	r4, [sp, #4]
 1797 009a 0294     		str	r4, [sp, #8]
 1798 009c 0394     		str	r4, [sp, #12]
 1799 009e 1A48     		ldr	r0, .L117+40
 1800 00a0 1A49     		ldr	r1, .L117+44
 1801 00a2 4FF40072 		mov	r2, #512
 1802 00a6 2346     		mov	r3, r4
 1803 00a8 FFF7FEFF 		bl	xTaskGenericCreate
 1804              	.LVL209:
 199:main.c        ****     xTaskCreate(Task_RADIO, "RADIO", TASK_STACK_RADIO, NULL, TASK_PRIORITY_RADIO, NULL);
 1805              		.loc 1 199 0
 1806 00ac 0095     		str	r5, [sp]
 1807 00ae 0194     		str	r4, [sp, #4]
 1808 00b0 0294     		str	r4, [sp, #8]
 1809 00b2 0394     		str	r4, [sp, #12]
 1810 00b4 1648     		ldr	r0, .L117+48
 1811 00b6 1749     		ldr	r1, .L117+52
 1812 00b8 4FF40072 		mov	r2, #512
 1813 00bc 2346     		mov	r3, r4
 1814 00be FFF7FEFF 		bl	xTaskGenericCreate
 1815              	.LVL210:
 200:main.c        **** 
 1816              		.loc 1 200 0
 1817 00c2 0095     		str	r5, [sp]
 1818 00c4 0194     		str	r4, [sp, #4]
 1819 00c6 0294     		str	r4, [sp, #8]
 1820 00c8 0394     		str	r4, [sp, #12]
 1821 00ca 1348     		ldr	r0, .L117+56
 1822 00cc 1349     		ldr	r1, .L117+60
 1823 00ce 4FF40072 		mov	r2, #512
 1824 00d2 2346     		mov	r3, r4
 1825 00d4 FFF7FEFF 		bl	xTaskGenericCreate
 1826              	.LVL211:
 203:main.c        ****     
 1827              		.loc 1 203 0
 1828 00d8 FFF7FEFF 		bl	vTaskStartScheduler
 1829              	.LVL212:
 1830              	.L115:
 208:main.c        **** }
ARM GAS  C:\Users\koseki\AppData\Local\Temp\ccT0XNG9.s 			page 54


 1831              		.loc 1 208 0 discriminator 1
 1832 00dc FEE7     		b	.L115
 1833              	.L118:
 1834 00de 00BF     		.align	2
 1835              	.L117:
 1836 00e0 00000000 		.word	xMutex_DDS
 1837 00e4 00000000 		.word	xQueue_ROT
 1838 00e8 00000000 		.word	xQueue_KEY
 1839 00ec 00000000 		.word	xQueue_FREQ
 1840 00f0 00000000 		.word	Task_LED
 1841 00f4 A0000000 		.word	.LC20
 1842 00f8 00000000 		.word	Task_ROT
 1843 00fc A4000000 		.word	.LC21
 1844 0100 00000000 		.word	Task_KEY
 1845 0104 A8000000 		.word	.LC22
 1846 0108 00000000 		.word	Task_CLCD
 1847 010c AC000000 		.word	.LC23
 1848 0110 00000000 		.word	Task_USBUART
 1849 0114 B4000000 		.word	.LC24
 1850 0118 00000000 		.word	Task_RADIO
 1851 011c BC000000 		.word	.LC25
 1852              		.cfi_endproc
 1853              	.LFE64:
 1854              		.size	main, .-main
 1855              		.section	.text.FactorySetup,"ax",%progbits
 1856              		.align	2
 1857              		.global	FactorySetup
 1858              		.thumb
 1859              		.thumb_func
 1860              		.type	FactorySetup, %function
 1861              	FactorySetup:
 1862              	.LFB78:
 766:main.c        **** 	uint8 sendUsb = FALSE;
 1863              		.loc 1 766 0
 1864              		.cfi_startproc
 1865              		@ args = 0, pretend = 0, frame = 0
 1866              		@ frame_needed = 0, uses_anonymous_args = 0
 1867 0000 08B5     		push	{r3, lr}
 1868              		.cfi_def_cfa_offset 8
 1869              		.cfi_offset 3, -8
 1870              		.cfi_offset 14, -4
 1871              	.LVL213:
 770:main.c        **** 	{
 1872              		.loc 1 770 0
 1873 0002 554B     		ldr	r3, .L138
 1874 0004 9B78     		ldrb	r3, [r3, #2]	@ zero_extendqisi2
 1875 0006 3F3B     		subs	r3, r3, #63
 1876 0008 2F2B     		cmp	r3, #47
 1877 000a 00F29380 		bhi	.L135
 1878 000e DFE803F0 		tbb	[pc, r3]
 1879              	.L122:
 1880 0012 72       		.byte	(.L121-.L122)/2
 1881 0013 91       		.byte	(.L135-.L122)/2
 1882 0014 91       		.byte	(.L135-.L122)/2
 1883 0015 91       		.byte	(.L135-.L122)/2
 1884 0016 91       		.byte	(.L135-.L122)/2
 1885 0017 91       		.byte	(.L135-.L122)/2
ARM GAS  C:\Users\koseki\AppData\Local\Temp\ccT0XNG9.s 			page 55


 1886 0018 91       		.byte	(.L135-.L122)/2
 1887 0019 91       		.byte	(.L135-.L122)/2
 1888 001a 91       		.byte	(.L135-.L122)/2
 1889 001b 91       		.byte	(.L135-.L122)/2
 1890 001c 91       		.byte	(.L135-.L122)/2
 1891 001d 91       		.byte	(.L135-.L122)/2
 1892 001e 91       		.byte	(.L135-.L122)/2
 1893 001f 91       		.byte	(.L135-.L122)/2
 1894 0020 91       		.byte	(.L135-.L122)/2
 1895 0021 91       		.byte	(.L135-.L122)/2
 1896 0022 91       		.byte	(.L135-.L122)/2
 1897 0023 91       		.byte	(.L135-.L122)/2
 1898 0024 91       		.byte	(.L135-.L122)/2
 1899 0025 91       		.byte	(.L135-.L122)/2
 1900 0026 91       		.byte	(.L135-.L122)/2
 1901 0027 91       		.byte	(.L135-.L122)/2
 1902 0028 91       		.byte	(.L135-.L122)/2
 1903 0029 91       		.byte	(.L135-.L122)/2
 1904 002a 91       		.byte	(.L135-.L122)/2
 1905 002b 91       		.byte	(.L135-.L122)/2
 1906 002c 91       		.byte	(.L135-.L122)/2
 1907 002d 91       		.byte	(.L135-.L122)/2
 1908 002e 91       		.byte	(.L135-.L122)/2
 1909 002f 91       		.byte	(.L135-.L122)/2
 1910 0030 91       		.byte	(.L135-.L122)/2
 1911 0031 91       		.byte	(.L135-.L122)/2
 1912 0032 91       		.byte	(.L135-.L122)/2
 1913 0033 91       		.byte	(.L135-.L122)/2
 1914 0034 91       		.byte	(.L135-.L122)/2
 1915 0035 91       		.byte	(.L135-.L122)/2
 1916 0036 18       		.byte	(.L123-.L122)/2
 1917 0037 30       		.byte	(.L124-.L122)/2
 1918 0038 91       		.byte	(.L135-.L122)/2
 1919 0039 49       		.byte	(.L125-.L122)/2
 1920 003a 91       		.byte	(.L135-.L122)/2
 1921 003b 91       		.byte	(.L135-.L122)/2
 1922 003c 91       		.byte	(.L135-.L122)/2
 1923 003d 91       		.byte	(.L135-.L122)/2
 1924 003e 91       		.byte	(.L135-.L122)/2
 1925 003f 91       		.byte	(.L135-.L122)/2
 1926 0040 91       		.byte	(.L135-.L122)/2
 1927 0041 3C       		.byte	(.L126-.L122)/2
 1928              		.p2align 1
 1929              	.L123:
 777:main.c        ****             // AD9850_DDS
 1930              		.loc 1 777 0
 1931 0042 464A     		ldr	r2, .L138+4
 1932 0044 464B     		ldr	r3, .L138+8
 1933 0046 03CB     		ldmia	r3!, {r0, r1}
 1934 0048 1060     		str	r0, [r2]	@ unaligned
 1935 004a 5160     		str	r1, [r2, #4]	@ unaligned
 779:main.c        **** 			FrequencyError = 0;
 1936              		.loc 1 779 0
 1937 004c 454A     		ldr	r2, .L138+12
 1938 004e 464B     		ldr	r3, .L138+16
 1939 0050 03CB     		ldmia	r3!, {r0, r1}
 1940 0052 1060     		str	r0, [r2]	@ unaligned
ARM GAS  C:\Users\koseki\AppData\Local\Temp\ccT0XNG9.s 			page 56


 1941 0054 5160     		str	r1, [r2, #4]	@ unaligned
 780:main.c        **** 			SetFrequency ();
 1942              		.loc 1 780 0
 1943 0056 0022     		movs	r2, #0
 1944 0058 444B     		ldr	r3, .L138+20
 1945 005a 1A60     		str	r2, [r3]
 781:main.c        **** 			memcpy (UsbTxBuffer, "Calibrate", 9);
 1946              		.loc 1 781 0
 1947 005c FFF7FEFF 		bl	SetFrequency
 1948              	.LVL214:
 782:main.c        **** 			sendUsb = 9;
 1949              		.loc 1 782 0
 1950 0060 434A     		ldr	r2, .L138+24
 1951 0062 444B     		ldr	r3, .L138+28
 1952 0064 03CB     		ldmia	r3!, {r0, r1}
 1953 0066 1060     		str	r0, [r2]	@ unaligned
 1954 0068 5160     		str	r1, [r2, #4]	@ unaligned
 1955 006a 1B78     		ldrb	r3, [r3]	@ zero_extendqisi2
 1956 006c 1372     		strb	r3, [r2, #8]
 1957              	.LVL215:
 783:main.c        **** 			break;
 1958              		.loc 1 783 0
 1959 006e 0923     		movs	r3, #9
 784:main.c        **** 			
 1960              		.loc 1 784 0
 1961 0070 63E0     		b	.L120
 1962              	.LVL216:
 1963              	.L124:
 787:main.c        **** 			memcpy (UsbTxBuffer, "Debug Mode", 10);
 1964              		.loc 1 787 0
 1965 0072 0122     		movs	r2, #1
 1966 0074 404B     		ldr	r3, .L138+32
 1967 0076 1A70     		strb	r2, [r3]
 788:main.c        **** 			sendUsb = 10;
 1968              		.loc 1 788 0
 1969 0078 3D4A     		ldr	r2, .L138+24
 1970 007a 404B     		ldr	r3, .L138+36
 1971 007c 03CB     		ldmia	r3!, {r0, r1}
 1972 007e 1060     		str	r0, [r2]	@ unaligned
 1973 0080 5160     		str	r1, [r2, #4]	@ unaligned
 1974 0082 1B88     		ldrh	r3, [r3]	@ unaligned
 1975 0084 1381     		strh	r3, [r2, #8]	@ unaligned
 1976              	.LVL217:
 789:main.c        **** 			break;
 1977              		.loc 1 789 0
 1978 0086 0A23     		movs	r3, #10
 790:main.c        **** 			
 1979              		.loc 1 790 0
 1980 0088 57E0     		b	.L120
 1981              	.LVL218:
 1982              	.L126:
 793:main.c        **** 			if (EEPROM_Write (&ComRxCmd [3], SN_ROW) == CYRET_SUCCESS)
 1983              		.loc 1 793 0
 1984 008a FFF7FEFF 		bl	CySetTemp
 1985              	.LVL219:
 794:main.c        **** 				LedTimer = LED_BLINK;	// if successful write, blink the LED
 1986              		.loc 1 794 0
ARM GAS  C:\Users\koseki\AppData\Local\Temp\ccT0XNG9.s 			page 57


 1987 008e 3C48     		ldr	r0, .L138+40
 1988 0090 0021     		movs	r1, #0
 1989 0092 FFF7FEFF 		bl	EEPROM_Write
 1990              	.LVL220:
 1991 0096 0028     		cmp	r0, #0
 1992 0098 4ED1     		bne	.L136
 795:main.c        **** 			break;
 1993              		.loc 1 795 0
 1994 009a 1922     		movs	r2, #25
 1995 009c 394B     		ldr	r3, .L138+44
 1996 009e 1A70     		strb	r2, [r3]
 767:main.c        ****     uint8 i;
 1997              		.loc 1 767 0
 1998 00a0 0023     		movs	r3, #0
 1999 00a2 4AE0     		b	.L120
 2000              	.L125:
 799:main.c        **** 			if (EEPROM_Write (&ComRxCmd [3], FQ_ROW) == CYRET_SUCCESS)
 2001              		.loc 1 799 0
 2002 00a4 FFF7FEFF 		bl	CySetTemp
 2003              	.LVL221:
 800:main.c        **** 			{
 2004              		.loc 1 800 0
 2005 00a8 3548     		ldr	r0, .L138+40
 2006 00aa 0121     		movs	r1, #1
 2007 00ac FFF7FEFF 		bl	EEPROM_Write
 2008              	.LVL222:
 2009 00b0 08BB     		cbnz	r0, .L121
 802:main.c        **** 				memcpy (LastFreq, "12345678", 8);	// force frequency change
 2010              		.loc 1 802 0
 2011 00b2 1922     		movs	r2, #25
 2012 00b4 334B     		ldr	r3, .L138+44
 2013 00b6 1A70     		strb	r2, [r3]
 803:main.c        ****                 //AD9850_DDS
 2014              		.loc 1 803 0
 2015 00b8 284A     		ldr	r2, .L138+4
 2016 00ba 294B     		ldr	r3, .L138+8
 2017 00bc 03CB     		ldmia	r3!, {r0, r1}
 2018 00be 1060     		str	r0, [r2]	@ unaligned
 2019 00c0 5160     		str	r1, [r2, #4]	@ unaligned
 805:main.c        ****                 // PSoC3 => PSoC5LP
 2020              		.loc 1 805 0
 2021 00c2 284A     		ldr	r2, .L138+12
 2022 00c4 284B     		ldr	r3, .L138+16
 2023 00c6 03CB     		ldmia	r3!, {r0, r1}
 2024 00c8 1060     		str	r0, [r2]	@ unaligned
 2025 00ca 5160     		str	r1, [r2, #4]	@ unaligned
 2026              	.LVL223:
 807:main.c        ****                     FREQ_ERROR[i] = pFREQ_ERROR[i];
 2027              		.loc 1 807 0
 2028 00cc 0023     		movs	r3, #0
 2029 00ce 07E0     		b	.L127
 2030              	.LVL224:
 2031              	.L128:
 808:main.c        ****                 // AD9850_DDS
 2032              		.loc 1 808 0 discriminator 3
 2033 00d0 2D4A     		ldr	r2, .L138+48
 2034 00d2 D2F8AC20 		ldr	r2, [r2, #172]
ARM GAS  C:\Users\koseki\AppData\Local\Temp\ccT0XNG9.s 			page 58


 2035 00d6 D15C     		ldrb	r1, [r2, r3]	@ zero_extendqisi2
 2036 00d8 2C4A     		ldr	r2, .L138+52
 2037 00da D154     		strb	r1, [r2, r3]
 807:main.c        ****                     FREQ_ERROR[i] = pFREQ_ERROR[i];
 2038              		.loc 1 807 0 discriminator 3
 2039 00dc 0133     		adds	r3, r3, #1
 2040              	.LVL225:
 2041 00de DBB2     		uxtb	r3, r3
 2042              	.LVL226:
 2043              	.L127:
 807:main.c        ****                     FREQ_ERROR[i] = pFREQ_ERROR[i];
 2044              		.loc 1 807 0 is_stmt 0 discriminator 1
 2045 00e0 072B     		cmp	r3, #7
 2046 00e2 F5D9     		bls	.L128
 810:main.c        **** 				SetFrequency ();
 2047              		.loc 1 810 0 is_stmt 1
 2048 00e4 2948     		ldr	r0, .L138+52
 2049 00e6 FFF7FEFF 		bl	BinaryFrequency
 2050              	.LVL227:
 2051 00ea 294B     		ldr	r3, .L138+56
 2052 00ec 1B1A     		subs	r3, r3, r0
 2053 00ee 1F4A     		ldr	r2, .L138+20
 2054 00f0 1360     		str	r3, [r2]
 811:main.c        **** 			}
 2055              		.loc 1 811 0
 2056 00f2 FFF7FEFF 		bl	SetFrequency
 2057              	.LVL228:
 2058              	.L121:
 807:main.c        ****                     FREQ_ERROR[i] = pFREQ_ERROR[i];
 2059              		.loc 1 807 0 discriminator 1
 2060 00f6 0023     		movs	r3, #0
 2061 00f8 07E0     		b	.L129
 2062              	.LVL229:
 2063              	.L130:
 819:main.c        **** 			UsbTxBuffer [8] = ' ';
 2064              		.loc 1 819 0 discriminator 3
 2065 00fa 234A     		ldr	r2, .L138+48
 2066 00fc D2F8A820 		ldr	r2, [r2, #168]
 2067 0100 D15C     		ldrb	r1, [r2, r3]	@ zero_extendqisi2
 2068 0102 1B4A     		ldr	r2, .L138+24
 2069 0104 D154     		strb	r1, [r2, r3]
 818:main.c        ****                 UsbTxBuffer[i] = pSERIAL_NUM[i];
 2070              		.loc 1 818 0 discriminator 3
 2071 0106 0133     		adds	r3, r3, #1
 2072              	.LVL230:
 2073 0108 DBB2     		uxtb	r3, r3
 2074              	.LVL231:
 2075              	.L129:
 818:main.c        ****                 UsbTxBuffer[i] = pSERIAL_NUM[i];
 2076              		.loc 1 818 0 is_stmt 0 discriminator 1
 2077 010a 072B     		cmp	r3, #7
 2078 010c F5D9     		bls	.L130
 820:main.c        **** 			//memcpy (&UsbTxBuffer [9], FREQ_ERROR, 8);	// frequency offset at 10MHz
 2079              		.loc 1 820 0 is_stmt 1
 2080 010e 2022     		movs	r2, #32
 2081 0110 174B     		ldr	r3, .L138+24
 2082              	.LVL232:
ARM GAS  C:\Users\koseki\AppData\Local\Temp\ccT0XNG9.s 			page 59


 2083 0112 1A72     		strb	r2, [r3, #8]
 2084              	.LVL233:
 822:main.c        ****                 UsbTxBuffer[9 + i] = pFREQ_ERROR[i];
 2085              		.loc 1 822 0
 2086 0114 0023     		movs	r3, #0
 2087 0116 09E0     		b	.L131
 2088              	.LVL234:
 2089              	.L132:
 823:main.c        **** 			sendUsb = 17;
 2090              		.loc 1 823 0 discriminator 3
 2091 0118 03F10902 		add	r2, r3, #9
 2092 011c 1A49     		ldr	r1, .L138+48
 2093 011e D1F8AC10 		ldr	r1, [r1, #172]
 2094 0122 C85C     		ldrb	r0, [r1, r3]	@ zero_extendqisi2
 2095 0124 1249     		ldr	r1, .L138+24
 2096 0126 8854     		strb	r0, [r1, r2]
 822:main.c        ****                 UsbTxBuffer[9 + i] = pFREQ_ERROR[i];
 2097              		.loc 1 822 0 discriminator 3
 2098 0128 0133     		adds	r3, r3, #1
 2099              	.LVL235:
 2100 012a DBB2     		uxtb	r3, r3
 2101              	.LVL236:
 2102              	.L131:
 822:main.c        ****                 UsbTxBuffer[9 + i] = pFREQ_ERROR[i];
 2103              		.loc 1 822 0 is_stmt 0 discriminator 1
 2104 012c 072B     		cmp	r3, #7
 2105 012e F3D9     		bls	.L132
 824:main.c        **** 			break;
 2106              		.loc 1 824 0 is_stmt 1
 2107 0130 1123     		movs	r3, #17
 2108              	.LVL237:
 2109 0132 02E0     		b	.L120
 2110              	.L135:
 767:main.c        ****     uint8 i;
 2111              		.loc 1 767 0
 2112 0134 0023     		movs	r3, #0
 2113 0136 00E0     		b	.L120
 2114              	.L136:
 2115 0138 0023     		movs	r3, #0
 2116              	.LVL238:
 2117              	.L120:
 828:main.c        **** 	{
 2118              		.loc 1 828 0
 2119 013a 5BB1     		cbz	r3, .L119
 832:main.c        **** 		USBUART_Write(UsbTxBuffer);	// send response
 2120              		.loc 1 832 0
 2121 013c 0C48     		ldr	r0, .L138+24
 2122 013e 0022     		movs	r2, #0
 2123 0140 C254     		strb	r2, [r0, r3]
 833:main.c        **** 		USBUART_Write((uint8*)"\r\n");	// send response
 2124              		.loc 1 833 0
 2125 0142 FFF7FEFF 		bl	USBUART_Write
 2126              	.LVL239:
 834:main.c        **** 		while(!USBUART_bTxIsReady()) ;
 2127              		.loc 1 834 0
 2128 0146 1348     		ldr	r0, .L138+60
 2129 0148 FFF7FEFF 		bl	USBUART_Write
ARM GAS  C:\Users\koseki\AppData\Local\Temp\ccT0XNG9.s 			page 60


 2130              	.LVL240:
 2131              	.L134:
 835:main.c        **** 	}
 2132              		.loc 1 835 0 discriminator 1
 2133 014c FFF7FEFF 		bl	USBUART_bTxIsReady
 2134              	.LVL241:
 2135 0150 0028     		cmp	r0, #0
 2136 0152 FBD0     		beq	.L134
 2137              	.L119:
 2138 0154 08BD     		pop	{r3, pc}
 2139              	.L139:
 2140 0156 00BF     		.align	2
 2141              	.L138:
 2142 0158 00000000 		.word	ComRxCmd
 2143 015c 00000000 		.word	LastFreq
 2144 0160 C4000000 		.word	.LC26
 2145 0164 00000000 		.word	Freq
 2146 0168 D0000000 		.word	.LC27
 2147 016c 00000000 		.word	FrequencyError
 2148 0170 00000000 		.word	UsbTxBuffer
 2149 0174 DC000000 		.word	.LC28
 2150 0178 00000000 		.word	Debug
 2151 017c E8000000 		.word	.LC29
 2152 0180 03000000 		.word	ComRxCmd+3
 2153 0184 00000000 		.word	LedTimer
 2154 0188 00000000 		.word	.LANCHOR1
 2155 018c 00000000 		.word	FREQ_ERROR
 2156 0190 404B4C00 		.word	5000000
 2157 0194 F4000000 		.word	.LC30
 2158              		.cfi_endproc
 2159              	.LFE78:
 2160              		.size	FactorySetup, .-FactorySetup
 2161              		.section	.text.ReadUSB,"ax",%progbits
 2162              		.align	2
 2163              		.global	ReadUSB
 2164              		.thumb
 2165              		.thumb_func
 2166              		.type	ReadUSB, %function
 2167              	ReadUSB:
 2168              	.LFB77:
 713:main.c        **** 	uint8 bCount, rx, i;
 2169              		.loc 1 713 0
 2170              		.cfi_startproc
 2171              		@ args = 0, pretend = 0, frame = 0
 2172              		@ frame_needed = 0, uses_anonymous_args = 0
 2173 0000 F8B5     		push	{r3, r4, r5, r6, r7, lr}
 2174              		.cfi_def_cfa_offset 24
 2175              		.cfi_offset 3, -24
 2176              		.cfi_offset 4, -20
 2177              		.cfi_offset 5, -16
 2178              		.cfi_offset 6, -12
 2179              		.cfi_offset 7, -8
 2180              		.cfi_offset 14, -4
 716:main.c        **** 	{
 2181              		.loc 1 716 0
 2182 0002 FFF7FEFF 		bl	USBUART_DataIsReady
 2183              	.LVL242:
ARM GAS  C:\Users\koseki\AppData\Local\Temp\ccT0XNG9.s 			page 61


 2184 0006 0028     		cmp	r0, #0
 2185 0008 4FD0     		beq	.L140
 718:main.c        ****         for (i = 0; i < MAX_CMD_LENGTH; i++)
 2186              		.loc 1 718 0
 2187 000a 2848     		ldr	r0, .L151
 2188 000c FFF7FEFF 		bl	USBUART_ReadAll
 2189              	.LVL243:
 719:main.c        ****         {
 2190              		.loc 1 719 0
 2191 0010 0025     		movs	r5, #0
 2192 0012 04E0     		b	.L142
 2193              	.LVL244:
 2194              	.L144:
 721:main.c        ****                 break;
 2195              		.loc 1 721 0
 2196 0014 254B     		ldr	r3, .L151
 2197 0016 5B5D     		ldrb	r3, [r3, r5]	@ zero_extendqisi2
 2198 0018 1BB1     		cbz	r3, .L143
 719:main.c        ****         {
 2199              		.loc 1 719 0 discriminator 2
 2200 001a 0135     		adds	r5, r5, #1
 2201              	.LVL245:
 2202 001c EDB2     		uxtb	r5, r5
 2203              	.LVL246:
 2204              	.L142:
 719:main.c        ****         {
 2205              		.loc 1 719 0 is_stmt 0 discriminator 1
 2206 001e 0F2D     		cmp	r5, #15
 2207 0020 F8D9     		bls	.L144
 2208              	.L143:
 2209              	.LVL247:
 733:main.c        **** 		{
 2210              		.loc 1 733 0 is_stmt 1
 2211 0022 0024     		movs	r4, #0
 2212 0024 3FE0     		b	.L145
 2213              	.LVL248:
 2214              	.L149:
 735:main.c        **** 			ComRxCmd [ComRxPtr++] = rx;	// save in command buffer
 2215              		.loc 1 735 0
 2216 0026 214B     		ldr	r3, .L151
 2217 0028 1A5D     		ldrb	r2, [r3, r4]	@ zero_extendqisi2
 2218              	.LVL249:
 736:main.c        **** 			if (rx == ';')				// command string terminator
 2219              		.loc 1 736 0
 2220 002a 2148     		ldr	r0, .L151+4
 2221 002c 0178     		ldrb	r1, [r0]	@ zero_extendqisi2
 2222 002e 4B1C     		adds	r3, r1, #1
 2223 0030 DBB2     		uxtb	r3, r3
 2224 0032 0370     		strb	r3, [r0]
 2225 0034 1F48     		ldr	r0, .L151+8
 2226 0036 4254     		strb	r2, [r0, r1]
 737:main.c        **** 			{
 2227              		.loc 1 737 0
 2228 0038 3B2A     		cmp	r2, #59
 2229 003a 2ED1     		bne	.L146
 740:main.c        ****     			{
 2230              		.loc 1 740 0
ARM GAS  C:\Users\koseki\AppData\Local\Temp\ccT0XNG9.s 			page 62


 2231 003c 0378     		ldrb	r3, [r0]	@ zero_extendqisi2
 2232 003e 242B     		cmp	r3, #36
 2233 0040 17D1     		bne	.L147
 740:main.c        ****     			{
 2234              		.loc 1 740 0 is_stmt 0 discriminator 1
 2235 0042 4378     		ldrb	r3, [r0, #1]	@ zero_extendqisi2
 2236 0044 2A2B     		cmp	r3, #42
 2237 0046 14D1     		bne	.L147
 742:main.c        ****                     xSemaphoreTake(xMutex_DDS, portMAX_DELAY);
 2238              		.loc 1 742 0 is_stmt 1
 2239 0048 0027     		movs	r7, #0
 2240 004a 0755     		strb	r7, [r0, r4]
 743:main.c        ****     				FactorySetup ();
 2241              		.loc 1 743 0
 2242 004c 1A4E     		ldr	r6, .L151+12
 2243 004e 3068     		ldr	r0, [r6]
 2244 0050 3946     		mov	r1, r7
 2245 0052 4FF0FF32 		mov	r2, #-1
 2246              	.LVL250:
 2247 0056 3B46     		mov	r3, r7
 2248 0058 FFF7FEFF 		bl	xQueueGenericReceive
 2249              	.LVL251:
 744:main.c        ****                     xSemaphoreGive(xMutex_DDS);
 2250              		.loc 1 744 0
 2251 005c FFF7FEFF 		bl	FactorySetup
 2252              	.LVL252:
 745:main.c        ****     				ComRxPtr = 0;
 2253              		.loc 1 745 0
 2254 0060 3068     		ldr	r0, [r6]
 2255 0062 3946     		mov	r1, r7
 2256 0064 3A46     		mov	r2, r7
 2257 0066 3B46     		mov	r3, r7
 2258 0068 FFF7FEFF 		bl	xQueueGenericSend
 2259              	.LVL253:
 746:main.c        ****     			}
 2260              		.loc 1 746 0
 2261 006c 104B     		ldr	r3, .L151+4
 2262 006e 1F70     		strb	r7, [r3]
 2263 0070 17E0     		b	.L148
 2264              	.LVL254:
 2265              	.L147:
 750:main.c        ****     				ProcessComRx ();
 2266              		.loc 1 750 0
 2267 0072 114E     		ldr	r6, .L151+12
 2268 0074 3068     		ldr	r0, [r6]
 2269 0076 0021     		movs	r1, #0
 2270 0078 4FF0FF32 		mov	r2, #-1
 2271              	.LVL255:
 2272 007c 0B46     		mov	r3, r1
 2273 007e FFF7FEFF 		bl	xQueueGenericReceive
 2274              	.LVL256:
 751:main.c        ****                     xSemaphoreGive(xMutex_DDS);
 2275              		.loc 1 751 0
 2276 0082 FFF7FEFF 		bl	ProcessComRx
 2277              	.LVL257:
 752:main.c        ****     				ComRxPtr = 0;
 2278              		.loc 1 752 0
ARM GAS  C:\Users\koseki\AppData\Local\Temp\ccT0XNG9.s 			page 63


 2279 0086 3068     		ldr	r0, [r6]
 2280 0088 0021     		movs	r1, #0
 2281 008a 0A46     		mov	r2, r1
 2282 008c 0B46     		mov	r3, r1
 2283 008e FFF7FEFF 		bl	xQueueGenericSend
 2284              	.LVL258:
 753:main.c        ****                 }
 2285              		.loc 1 753 0
 2286 0092 0022     		movs	r2, #0
 2287 0094 064B     		ldr	r3, .L151+4
 2288 0096 1A70     		strb	r2, [r3]
 2289 0098 03E0     		b	.L148
 2290              	.LVL259:
 2291              	.L146:
 757:main.c        **** 		}
 2292              		.loc 1 757 0
 2293 009a 03F01F03 		and	r3, r3, #31
 2294 009e 044A     		ldr	r2, .L151+4
 2295              	.LVL260:
 2296 00a0 1370     		strb	r3, [r2]
 2297              	.LVL261:
 2298              	.L148:
 733:main.c        **** 		{
 2299              		.loc 1 733 0 discriminator 2
 2300 00a2 0134     		adds	r4, r4, #1
 2301              	.LVL262:
 2302 00a4 E4B2     		uxtb	r4, r4
 2303              	.LVL263:
 2304              	.L145:
 733:main.c        **** 		{
 2305              		.loc 1 733 0 is_stmt 0 discriminator 1
 2306 00a6 AC42     		cmp	r4, r5
 2307 00a8 BDD3     		bcc	.L149
 2308              	.LVL264:
 2309              	.L140:
 2310 00aa F8BD     		pop	{r3, r4, r5, r6, r7, pc}
 2311              	.L152:
 2312              		.align	2
 2313              	.L151:
 2314 00ac 00000000 		.word	UsbRxBuffer
 2315 00b0 00000000 		.word	ComRxPtr
 2316 00b4 00000000 		.word	ComRxCmd
 2317 00b8 00000000 		.word	xMutex_DDS
 2318              		.cfi_endproc
 2319              	.LFE77:
 2320              		.size	ReadUSB, .-ReadUSB
 2321              		.section	.text.Task_USBUART,"ax",%progbits
 2322              		.align	2
 2323              		.global	Task_USBUART
 2324              		.thumb
 2325              		.thumb_func
 2326              		.type	Task_USBUART, %function
 2327              	Task_USBUART:
 2328              	.LFB76:
 660:main.c        ****     uint32 i;
 2329              		.loc 1 660 0 is_stmt 1
 2330              		.cfi_startproc
ARM GAS  C:\Users\koseki\AppData\Local\Temp\ccT0XNG9.s 			page 64


 2331              		@ args = 0, pretend = 0, frame = 0
 2332              		@ frame_needed = 0, uses_anonymous_args = 0
 2333              	.LVL265:
 2334 0000 38B5     		push	{r3, r4, r5, lr}
 2335              		.cfi_def_cfa_offset 16
 2336              		.cfi_offset 3, -16
 2337              		.cfi_offset 4, -12
 2338              		.cfi_offset 5, -8
 2339              		.cfi_offset 14, -4
 2340              	.LVL266:
 665:main.c        ****     for (i = 0; i < USBUART_TIMEOUT; i++)
 2341              		.loc 1 665 0
 2342 0002 0020     		movs	r0, #0
 2343              	.LVL267:
 2344 0004 0221     		movs	r1, #2
 2345 0006 FFF7FEFF 		bl	USBUART_Start
 2346              	.LVL268:
 666:main.c        ****     {
 2347              		.loc 1 666 0
 2348 000a 0024     		movs	r4, #0
 2349 000c 06E0     		b	.L154
 2350              	.LVL269:
 2351              	.L156:
 668:main.c        ****         if (gUSBUART_Ready) break;
 2352              		.loc 1 668 0
 2353 000e FFF7FEFF 		bl	USBUART_GetConfiguration
 2354              	.LVL270:
 2355 0012 214B     		ldr	r3, .L164
 2356 0014 1860     		str	r0, [r3]
 669:main.c        ****     }
 2357              		.loc 1 669 0
 2358 0016 1B68     		ldr	r3, [r3]
 2359 0018 1BB9     		cbnz	r3, .L155
 666:main.c        ****     {
 2360              		.loc 1 666 0 discriminator 2
 2361 001a 0134     		adds	r4, r4, #1
 2362              	.LVL271:
 2363              	.L154:
 666:main.c        ****     {
 2364              		.loc 1 666 0 is_stmt 0 discriminator 1
 2365 001c 1F4B     		ldr	r3, .L164+4
 2366 001e 9C42     		cmp	r4, r3
 2367 0020 F5D9     		bls	.L156
 2368              	.L155:
 672:main.c        ****         USBUART_CDC_Init();
 2369              		.loc 1 672 0 is_stmt 1
 2370 0022 1D4B     		ldr	r3, .L164
 2371 0024 1B68     		ldr	r3, [r3]
 2372 0026 1BB1     		cbz	r3, .L157
 673:main.c        ****     else
 2373              		.loc 1 673 0
 2374 0028 FFF7FEFF 		bl	USBUART_CDC_Init
 2375              	.LVL272:
 2376              	.L159:
 666:main.c        ****     {
 2377              		.loc 1 666 0
 2378 002c 0124     		movs	r4, #1
ARM GAS  C:\Users\koseki\AppData\Local\Temp\ccT0XNG9.s 			page 65


 2379              	.LVL273:
 2380 002e 2EE0     		b	.L160
 2381              	.LVL274:
 2382              	.L157:
 675:main.c        **** 
 2383              		.loc 1 675 0
 2384 0030 FFF7FEFF 		bl	USBUART_Stop
 2385              	.LVL275:
 2386 0034 FAE7     		b	.L159
 2387              	.LVL276:
 2388              	.L161:
 679:main.c        ****     	if (state & USBUART_LINE_CODING_CHANGED)
 2389              		.loc 1 679 0
 2390 0036 FFF7FEFF 		bl	USBUART_IsLineChanged
 2391              	.LVL277:
 680:main.c        ****     	{
 2392              		.loc 1 680 0
 2393 003a 10F0010F 		tst	r0, #1
 2394 003e 26D0     		beq	.L160
 682:main.c        **** 
 2395              		.loc 1 682 0
 2396 0040 1748     		ldr	r0, .L164+8
 2397              	.LVL278:
 2398 0042 FFF7FEFF 		bl	USBUART_Write
 2399              	.LVL279:
 685:main.c        ****             USBUART_Write((uint8*)"***********************************************************\r\n"
 2400              		.loc 1 685 0
 2401 0046 6420     		movs	r0, #100
 2402 0048 FFF7FEFF 		bl	CyDelay
 2403              	.LVL280:
 686:main.c        ****             USBUART_Write((uint8*)"*                                                         *\r\n"
 2404              		.loc 1 686 0
 2405 004c 154D     		ldr	r5, .L164+12
 2406 004e 2846     		mov	r0, r5
 2407 0050 FFF7FEFF 		bl	USBUART_Write
 2408              	.LVL281:
 687:main.c        ****             USBUART_Write((uint8*)"*                 Simple SDR Reciever                     *\r\n"
 2409              		.loc 1 687 0
 2410 0054 144C     		ldr	r4, .L164+16
 2411 0056 2046     		mov	r0, r4
 2412 0058 FFF7FEFF 		bl	USBUART_Write
 2413              	.LVL282:
 688:main.c        ****             USBUART_Write((uint8*)"*               for CY8KIT-059 (PSoC-5LP)                 *\r\n"
 2414              		.loc 1 688 0
 2415 005c 1348     		ldr	r0, .L164+20
 2416 005e FFF7FEFF 		bl	USBUART_Write
 2417              	.LVL283:
 689:main.c        ****             USBUART_Write((uint8*)"*                                                         *\r\n"
 2418              		.loc 1 689 0
 2419 0062 1348     		ldr	r0, .L164+24
 2420 0064 FFF7FEFF 		bl	USBUART_Write
 2421              	.LVL284:
 690:main.c        ****             USBUART_Write((uint8*)"*                     (ver.0.0.1)                         *\r\n"
 2422              		.loc 1 690 0
 2423 0068 2046     		mov	r0, r4
 2424 006a FFF7FEFF 		bl	USBUART_Write
 2425              	.LVL285:
ARM GAS  C:\Users\koseki\AppData\Local\Temp\ccT0XNG9.s 			page 66


 691:main.c        ****             USBUART_Write((uint8*)"*                                                         *\r\n"
 2426              		.loc 1 691 0
 2427 006e 1148     		ldr	r0, .L164+28
 2428 0070 FFF7FEFF 		bl	USBUART_Write
 2429              	.LVL286:
 692:main.c        ****             USBUART_Write((uint8*)"***********************************************************\r\n"
 2430              		.loc 1 692 0
 2431 0074 2046     		mov	r0, r4
 2432 0076 FFF7FEFF 		bl	USBUART_Write
 2433              	.LVL287:
 693:main.c        ****             USBUART_Write((uint8*)"""Ham Radio Deluxe"" equivalent commands are enabled.\r\n");
 2434              		.loc 1 693 0
 2435 007a 2846     		mov	r0, r5
 2436 007c FFF7FEFF 		bl	USBUART_Write
 2437              	.LVL288:
 694:main.c        ****             USBUART_Write((uint8*)"\r\n");
 2438              		.loc 1 694 0
 2439 0080 0D48     		ldr	r0, .L164+32
 2440 0082 FFF7FEFF 		bl	USBUART_Write
 2441              	.LVL289:
 695:main.c        ****         }
 2442              		.loc 1 695 0
 2443 0086 0D48     		ldr	r0, .L164+36
 2444 0088 FFF7FEFF 		bl	USBUART_Write
 2445              	.LVL290:
 684:main.c        ****             CyDelay(100);
 2446              		.loc 1 684 0
 2447 008c 0024     		movs	r4, #0
 2448              	.LVL291:
 2449              	.L160:
 677:main.c        ****     {  
 2450              		.loc 1 677 0
 2451 008e 002C     		cmp	r4, #0
 2452 0090 D1D1     		bne	.L161
 2453              	.L162:
 703:main.c        ****     }
 2454              		.loc 1 703 0 discriminator 1
 2455 0092 FFF7FEFF 		bl	ReadUSB
 2456              	.LVL292:
 704:main.c        **** }
 2457              		.loc 1 704 0 discriminator 1
 2458 0096 FCE7     		b	.L162
 2459              	.L165:
 2460              		.align	2
 2461              	.L164:
 2462 0098 00000000 		.word	gUSBUART_Ready
 2463 009c 7F841E00 		.word	1999999
 2464 00a0 F8000000 		.word	.LC31
 2465 00a4 0C010000 		.word	.LC32
 2466 00a8 4C010000 		.word	.LC33
 2467 00ac 8C010000 		.word	.LC34
 2468 00b0 CC010000 		.word	.LC35
 2469 00b4 0C020000 		.word	.LC36
 2470 00b8 4C020000 		.word	.LC37
 2471 00bc F4000000 		.word	.LC30
 2472              		.cfi_endproc
 2473              	.LFE76:
ARM GAS  C:\Users\koseki\AppData\Local\Temp\ccT0XNG9.s 			page 67


 2474              		.size	Task_USBUART, .-Task_USBUART
 2475              		.section	.text.AdjustAgc,"ax",%progbits
 2476              		.align	2
 2477              		.global	AdjustAgc
 2478              		.thumb
 2479              		.thumb_func
 2480              		.type	AdjustAgc, %function
 2481              	AdjustAgc:
 2482              	.LFB81:
 959:main.c        **** 	
 960:main.c        **** 	//CyPins_SetPin(TP2_OUT_0);		   
 961:main.c        **** 
 962:main.c        **** }
 963:main.c        **** 
 964:main.c        **** //
 965:main.c        **** //	Adjust AGC by monitoring ADC peak signal level
 966:main.c        **** //	Adjusts gain every 8 msec, rate of 32068 / 256 Hz
 967:main.c        **** //
 968:main.c        **** void AdjustAgc (void)
 969:main.c        **** {
 2483              		.loc 1 969 0
 2484              		.cfi_startproc
 2485              		@ args = 0, pretend = 0, frame = 0
 2486              		@ frame_needed = 0, uses_anonymous_args = 0
 2487 0000 08B5     		push	{r3, lr}
 2488              		.cfi_def_cfa_offset 8
 2489              		.cfi_offset 3, -8
 2490              		.cfi_offset 14, -4
 970:main.c        **** 	uint16 atten;
 971:main.c        **** 	
 972:main.c        **** 	if (!AdcTick)					// 8 msec tick
 2491              		.loc 1 972 0
 2492 0002 344B     		ldr	r3, .L177
 2493 0004 1B78     		ldrb	r3, [r3]	@ zero_extendqisi2
 2494 0006 002B     		cmp	r3, #0
 2495 0008 63D0     		beq	.L166
 973:main.c        **** 		return;
 974:main.c        **** 	AdcTick = FALSE;
 2496              		.loc 1 974 0
 2497 000a 0022     		movs	r2, #0
 2498 000c 314B     		ldr	r3, .L177
 2499 000e 1A70     		strb	r2, [r3]
 975:main.c        **** 	
 976:main.c        **** 	if (LedTimer)
 2500              		.loc 1 976 0
 2501 0010 314B     		ldr	r3, .L177+4
 2502 0012 1B78     		ldrb	r3, [r3]	@ zero_extendqisi2
 2503 0014 5BB1     		cbz	r3, .L168
 977:main.c        **** 	{
 978:main.c        **** 		if (--LedTimer == 0)
 2504              		.loc 1 978 0
 2505 0016 013B     		subs	r3, r3, #1
 2506 0018 DBB2     		uxtb	r3, r3
 2507 001a 2F4A     		ldr	r2, .L177+4
 2508 001c 1370     		strb	r3, [r2]
 2509 001e 1BB9     		cbnz	r3, .L169
 979:main.c        **** 			//CyPins_SetPin (REDLED_0);	// red led off
ARM GAS  C:\Users\koseki\AppData\Local\Temp\ccT0XNG9.s 			page 68


 980:main.c        ****             LED_Write(0u);
 2510              		.loc 1 980 0
 2511 0020 0020     		movs	r0, #0
 2512 0022 FFF7FEFF 		bl	LED_Write
 2513              	.LVL293:
 2514 0026 02E0     		b	.L168
 2515              	.L169:
 981:main.c        **** 		else
 982:main.c        **** 			//CyPins_ClearPin (REDLED_0);	// red led on
 983:main.c        ****             LED_Write(1u);
 2516              		.loc 1 983 0
 2517 0028 0120     		movs	r0, #1
 2518 002a FFF7FEFF 		bl	LED_Write
 2519              	.LVL294:
 2520              	.L168:
 984:main.c        **** 	}	
 985:main.c        **** 
 986:main.c        **** 	if (AgcDisable)
 2521              		.loc 1 986 0
 2522 002e 2B4B     		ldr	r3, .L177+8
 2523 0030 1B78     		ldrb	r3, [r3]	@ zero_extendqisi2
 2524 0032 1BB1     		cbz	r3, .L170
 987:main.c        **** 		AdcPeak = 0;				// disable AGC adjustments and go to max gain
 2525              		.loc 1 987 0
 2526 0034 0022     		movs	r2, #0
 2527 0036 2A4B     		ldr	r3, .L177+12
 2528 0038 1A80     		strh	r2, [r3]	@ movhi
 2529 003a 13E0     		b	.L171
 2530              	.L170:
 988:main.c        **** 	else if (AdcPeak > 0x3800)
 2531              		.loc 1 988 0
 2532 003c 284B     		ldr	r3, .L177+12
 2533 003e B3F90030 		ldrsh	r3, [r3]
 2534 0042 B3F5605F 		cmp	r3, #14336
 2535 0046 0DDD     		ble	.L171
 989:main.c        **** 	{
 990:main.c        **** 		AgcIntegrator = (AgcIntegrator >> 2) * 3;	// overloaded input, reduce gain to 75%
 2536              		.loc 1 990 0
 2537 0048 264A     		ldr	r2, .L177+16
 2538 004a 1378     		ldrb	r3, [r2]	@ zero_extendqisi2
 2539 004c 9B08     		lsrs	r3, r3, #2
 2540 004e 03EB4303 		add	r3, r3, r3, lsl #1
 2541 0052 DBB2     		uxtb	r3, r3
 2542 0054 1370     		strb	r3, [r2]
 991:main.c        **** 		AgcGain = 1 + (AgcIntegrator >> 2);	
 2543              		.loc 1 991 0
 2544 0056 9B08     		lsrs	r3, r3, #2
 2545 0058 0133     		adds	r3, r3, #1
 2546 005a 234A     		ldr	r2, .L177+20
 2547 005c 1370     		strb	r3, [r2]
 992:main.c        **** 		LedTimer = LED_SHORTBLINK;	// blink the LED for overload
 2548              		.loc 1 992 0
 2549 005e 0322     		movs	r2, #3
 2550 0060 1D4B     		ldr	r3, .L177+4
 2551 0062 1A70     		strb	r2, [r3]
 2552              	.L171:
 993:main.c        **** 	}
ARM GAS  C:\Users\koseki\AppData\Local\Temp\ccT0XNG9.s 			page 69


 994:main.c        **** 	AdcPeakAve = (AdcPeakAve + AdcPeak) / 2;		// compute average peak ADC value
 2553              		.loc 1 994 0
 2554 0064 2149     		ldr	r1, .L177+24
 2555 0066 B1F90000 		ldrsh	r0, [r1]
 2556 006a 1D4A     		ldr	r2, .L177+12
 2557 006c B2F90030 		ldrsh	r3, [r2]
 2558 0070 0344     		add	r3, r3, r0
 2559 0072 03EBD373 		add	r3, r3, r3, lsr #31
 2560 0076 C3F34F03 		ubfx	r3, r3, #1, #16
 2561 007a 0B80     		strh	r3, [r1]	@ movhi
 995:main.c        **** 	AdcPeak = 0;	
 2562              		.loc 1 995 0
 2563 007c 0021     		movs	r1, #0
 2564 007e 1180     		strh	r1, [r2]	@ movhi
 996:main.c        **** 	
 997:main.c        **** 	if (--AgcTimer)
 2565              		.loc 1 997 0
 2566 0080 1B49     		ldr	r1, .L177+28
 2567 0082 0A78     		ldrb	r2, [r1]	@ zero_extendqisi2
 2568 0084 013A     		subs	r2, r2, #1
 2569 0086 D2B2     		uxtb	r2, r2
 2570 0088 0A70     		strb	r2, [r1]
 2571 008a 12BB     		cbnz	r2, .L166
 998:main.c        **** 		return;
 999:main.c        **** 	//AgcTimer = 4;					// every 32 msec
1000:main.c        **** 	AgcTimer = AgcTimeConstant;		// controlled by GT command (AgcTimeConstant * 8 ms)
 2572              		.loc 1 1000 0
 2573 008c 194A     		ldr	r2, .L177+32
 2574 008e 1178     		ldrb	r1, [r2]	@ zero_extendqisi2
 2575 0090 174A     		ldr	r2, .L177+28
 2576 0092 1170     		strb	r1, [r2]
1001:main.c        **** 	
1002:main.c        **** 	atten = (AttenuatorOn) ? 0x1000 : 0x2800;
 2577              		.loc 1 1002 0
 2578 0094 184A     		ldr	r2, .L177+36
 2579 0096 1278     		ldrb	r2, [r2]	@ zero_extendqisi2
 2580 0098 12B1     		cbz	r2, .L175
 2581 009a 4FF48052 		mov	r2, #4096
 2582 009e 01E0     		b	.L172
 2583              	.L175:
 2584 00a0 4FF42052 		mov	r2, #10240
 2585              	.L172:
 2586              	.LVL295:
1003:main.c        **** 	if (AdcPeakAve < atten)			 // clips if higher than this number
 2587              		.loc 1 1003 0 discriminator 4
 2588 00a4 1BB2     		sxth	r3, r3
 2589 00a6 9342     		cmp	r3, r2
 2590 00a8 07DA     		bge	.L173
1004:main.c        **** 	{
1005:main.c        **** 		if (AgcIntegrator != 0xFF)
 2591              		.loc 1 1005 0
 2592 00aa 0E4B     		ldr	r3, .L177+16
 2593 00ac 1B78     		ldrb	r3, [r3]	@ zero_extendqisi2
 2594 00ae FF2B     		cmp	r3, #255
 2595 00b0 09D0     		beq	.L174
1006:main.c        **** 			AgcIntegrator++;		// increase gain
 2596              		.loc 1 1006 0
ARM GAS  C:\Users\koseki\AppData\Local\Temp\ccT0XNG9.s 			page 70


 2597 00b2 0133     		adds	r3, r3, #1
 2598 00b4 0B4A     		ldr	r2, .L177+16
 2599              	.LVL296:
 2600 00b6 1370     		strb	r3, [r2]
 2601 00b8 05E0     		b	.L174
 2602              	.LVL297:
 2603              	.L173:
1007:main.c        **** 	}
1008:main.c        **** 	else if (AgcIntegrator)
 2604              		.loc 1 1008 0
 2605 00ba 0A4B     		ldr	r3, .L177+16
 2606 00bc 1B78     		ldrb	r3, [r3]	@ zero_extendqisi2
 2607 00be 13B1     		cbz	r3, .L174
1009:main.c        **** 		AgcIntegrator--;			// decrease gain
 2608              		.loc 1 1009 0
 2609 00c0 013B     		subs	r3, r3, #1
 2610 00c2 084A     		ldr	r2, .L177+16
 2611              	.LVL298:
 2612 00c4 1370     		strb	r3, [r2]
 2613              	.L174:
1010:main.c        **** 		
1011:main.c        **** 	AgcGain = 1 + (AgcIntegrator >> 2);
 2614              		.loc 1 1011 0
 2615 00c6 074B     		ldr	r3, .L177+16
 2616 00c8 1B78     		ldrb	r3, [r3]	@ zero_extendqisi2
 2617 00ca 9B08     		lsrs	r3, r3, #2
 2618 00cc 0133     		adds	r3, r3, #1
 2619 00ce 064A     		ldr	r2, .L177+20
 2620 00d0 1370     		strb	r3, [r2]
 2621              	.L166:
 2622 00d2 08BD     		pop	{r3, pc}
 2623              	.L178:
 2624              		.align	2
 2625              	.L177:
 2626 00d4 00000000 		.word	AdcTick
 2627 00d8 00000000 		.word	LedTimer
 2628 00dc 00000000 		.word	AgcDisable
 2629 00e0 00000000 		.word	AdcPeak
 2630 00e4 00000000 		.word	AgcIntegrator
 2631 00e8 00000000 		.word	AgcGain
 2632 00ec 00000000 		.word	AdcPeakAve
 2633 00f0 00000000 		.word	AgcTimer
 2634 00f4 00000000 		.word	AgcTimeConstant
 2635 00f8 00000000 		.word	AttenuatorOn
 2636              		.cfi_endproc
 2637              	.LFE81:
 2638              		.size	AdjustAgc, .-AdjustAgc
 2639              		.section	.text.Task_RADIO,"ax",%progbits
 2640              		.align	2
 2641              		.global	Task_RADIO
 2642              		.thumb
 2643              		.thumb_func
 2644              		.type	Task_RADIO, %function
 2645              	Task_RADIO:
 2646              	.LFB79:
 847:main.c        ****     const portTickType xDelay = 1 / portTICK_RATE_MS;
 2647              		.loc 1 847 0
ARM GAS  C:\Users\koseki\AppData\Local\Temp\ccT0XNG9.s 			page 71


 2648              		.cfi_startproc
 2649              		@ args = 0, pretend = 0, frame = 0
 2650              		@ frame_needed = 0, uses_anonymous_args = 0
 2651              	.LVL299:
 2652 0000 08B5     		push	{r3, lr}
 2653              		.cfi_def_cfa_offset 8
 2654              		.cfi_offset 3, -8
 2655              		.cfi_offset 14, -4
 2656              	.LVL300:
 2657              	.L180:
 853:main.c        ****         
 2658              		.loc 1 853 0 discriminator 1
 2659 0002 FFF7FEFF 		bl	AdjustAgc
 2660              	.LVL301:
 855:main.c        ****     }
 2661              		.loc 1 855 0 discriminator 1
 2662 0006 0120     		movs	r0, #1
 2663 0008 FFF7FEFF 		bl	vTaskDelay
 2664              	.LVL302:
 856:main.c        **** }
 2665              		.loc 1 856 0 discriminator 1
 2666 000c F9E7     		b	.L180
 2667              		.cfi_endproc
 2668              	.LFE79:
 2669              		.size	Task_RADIO, .-Task_RADIO
 2670              		.comm	xQueue_FREQ,4,4
 2671              		.comm	xQueue_ROT,4,4
 2672              		.comm	xQueue_KEY,8,4
 2673              		.comm	xMutex_DDS,4,4
 2674              		.comm	IDelayPtr,1,1
 2675              		.comm	IDelay,128,4
 2676              		.comm	AdcState,1,1
 2677              		.comm	Ch,1,1
 2678              		.comm	Debug,1,1
 2679              		.comm	Squelch,1,1
 2680              		.comm	AttenuatorOn,1,1
 2681              		.comm	UpperSideBand,1,1
 2682              		.comm	Mode,1,1
 2683              		.comm	Filter,1,1
 2684              		.comm	DisplayIndex,1,1
 2685              		.comm	LedTimer,1,1
 2686              		.comm	AgcTimeConstant,1,1
 2687              		.comm	AgcIndicator,4,4
 2688              		.comm	AgcIntegrator,1,1
 2689              		.comm	AgcTimer,1,1
 2690              		.comm	AgcGain,1,1
 2691              		.comm	AgcDisable,1,1
 2692              		.comm	AdcPeakAve,2,2
 2693              		.comm	AdcPeak,2,2
 2694              		.comm	QDCOffset,2,2
 2695              		.comm	IDCOffset,2,2
 2696              		.comm	AdcTick,1,1
 2697              		.comm	UsbRxBuffer,256,4
 2698              		.comm	UsbTxBuffer,80,4
 2699              		.comm	ComRxPtr,1,1
 2700              		.comm	ComRxCmd,32,4
 2701              		.comm	FrequencyError,4,4
ARM GAS  C:\Users\koseki\AppData\Local\Temp\ccT0XNG9.s 			page 72


 2702              		.comm	Frequency,4,4
 2703              		.comm	LastFreq,8,4
 2704              		.comm	Freq,8,4
 2705              		.global	station
 2706              		.comm	gUSBUART_Ready,4,4
 2707              		.comm	SERIAL_NUM,8,4
 2708              		.comm	FREQ_ERROR,8,4
 2709              		.global	pSERIAL_NUM
 2710              		.global	pFREQ_ERROR
 2711              		.global	HEX2ASCII
 2712 000e 00BF     		.section	.rodata
 2713              		.align	2
 2714              		.set	.LANCHOR0,. + 0
 2715              	.LC0:
 2716 0000 F8       		.byte	-8
 2717 0001 08       		.byte	8
 2718 0002 4C       		.byte	76
 2719 0003 07       		.byte	7
 2720 0004 00       		.byte	0
 2721 0005 000000   		.space	3
 2722              		.type	HEX2ASCII, %object
 2723              		.size	HEX2ASCII, 17
 2724              	HEX2ASCII:
 2725 0008 30313233 		.ascii	"0123456789ABCDEF\000"
 2725      34353637 
 2725      38394142 
 2725      43444546 
 2725      00
 2726 0019 000000   		.data
 2727              		.align	2
 2728              		.set	.LANCHOR1,. + 0
 2729              		.type	station, %object
 2730              		.size	station, 168
 2731              	station:
 2732 0000 4E484B31 		.ascii	"NHK1 "
 2732      20
 2733 0005 000000   		.space	3
 2734 0008 78980D00 		.word	891000
 2735 000c 00000000 		.word	0
 2736 0010 01000000 		.word	1
 2737 0014 01       		.byte	1
 2738 0015 04       		.byte	4
 2739 0016 0000     		.space	2
 2740 0018 4E484B32 		.ascii	"NHK2 "
 2740      20
 2741 001d 000000   		.space	3
 2742 0020 E89D1000 		.word	1089000
 2743 0024 00000000 		.word	0
 2744 0028 01000000 		.word	1
 2745 002c 01       		.byte	1
 2746 002d 04       		.byte	4
 2747 002e 0000     		.space	2
 2748 0030 54424320 		.ascii	"TBC  "
 2748      20
 2749 0035 000000   		.space	3
 2750 0038 E0391300 		.word	1260000
 2751 003c 00000000 		.word	0
ARM GAS  C:\Users\koseki\AppData\Local\Temp\ccT0XNG9.s 			page 73


 2752 0040 01000000 		.word	1
 2753 0044 01       		.byte	1
 2754 0045 04       		.byte	4
 2755 0046 0000     		.space	2
 2756 0048 4E484B31 		.ascii	"NHK1 "
 2756      20
 2757 004d 000000   		.space	3
 2758 0050 78980D00 		.word	891000
 2759 0054 A00F0000 		.word	4000
 2760 0058 E8030000 		.word	1000
 2761 005c 03       		.byte	3
 2762 005d 04       		.byte	4
 2763 005e 0000     		.space	2
 2764 0060 4E484B32 		.ascii	"NHK2 "
 2764      20
 2765 0065 000000   		.space	3
 2766 0068 E89D1000 		.word	1089000
 2767 006c A00F0000 		.word	4000
 2768 0070 E8030000 		.word	1000
 2769 0074 03       		.byte	3
 2770 0075 04       		.byte	4
 2771 0076 0000     		.space	2
 2772 0078 54424320 		.ascii	"TBC  "
 2772      20
 2773 007d 000000   		.space	3
 2774 0080 E0391300 		.word	1260000
 2775 0084 A00F0000 		.word	4000
 2776 0088 E8030000 		.word	1000
 2777 008c 03       		.byte	3
 2778 008d 04       		.byte	4
 2779 008e 0000     		.space	2
 2780 0090 42434F4E 		.ascii	"BCON "
 2780      20
 2781 0095 000000   		.space	3
 2782 0098 28F90600 		.word	457000
 2783 009c 20030000 		.word	800
 2784 00a0 0A000000 		.word	10
 2785 00a4 02       		.byte	2
 2786 00a5 03       		.byte	3
 2787 00a6 0000     		.space	2
 2788              		.type	pSERIAL_NUM, %object
 2789              		.size	pSERIAL_NUM, 4
 2790              	pSERIAL_NUM:
 2791 00a8 00800040 		.word	1073774592
 2792              		.type	pFREQ_ERROR, %object
 2793              		.size	pFREQ_ERROR, 4
 2794              	pFREQ_ERROR:
 2795 00ac 10800040 		.word	1073774608
 2796              		.section	.rodata.str1.4,"aMS",%progbits,1
 2797              		.align	2
 2798              	.LC1:
 2799 0000 46573D32 		.ascii	"FW=2.5k\000"
 2799      2E356B00 
 2800              	.LC2:
 2801 0008 46573D32 		.ascii	"FW=2.0k\000"
 2801      2E306B00 
 2802              	.LC3:
ARM GAS  C:\Users\koseki\AppData\Local\Temp\ccT0XNG9.s 			page 74


 2803 0010 46573D31 		.ascii	"FW=1.5k\000"
 2803      2E356B00 
 2804              	.LC4:
 2805 0018 46573D30 		.ascii	"FW=0.4k\000"
 2805      2E346B00 
 2806              	.LC5:
 2807 0020 46573D34 		.ascii	"FW=4.0k\000"
 2807      2E306B00 
 2808              	.LC6:
 2809 0028 4C534220 		.ascii	"LSB  \000"
 2809      2000
 2810 002e 0000     		.space	2
 2811              	.LC7:
 2812 0030 55534220 		.ascii	"USB  \000"
 2812      2000
 2813 0036 0000     		.space	2
 2814              	.LC8:
 2815 0038 43572020 		.ascii	"CW   \000"
 2815      2000
 2816 003e 0000     		.space	2
 2817              	.LC9:
 2818 0040 414D2020 		.ascii	"AM   \000"
 2818      2000
 2819 0046 0000     		.space	2
 2820              	.LC10:
 2821 0048 2A2A2A20 		.ascii	"***  \000"
 2821      2000
 2822 004e 0000     		.space	2
 2823              	.LC11:
 2824 0050 25376C64 		.ascii	"%7ld[Hz]\000"
 2824      5B487A5D 
 2824      00
 2825 0059 000000   		.space	3
 2826              	.LC12:
 2827 005c 4572726F 		.ascii	"Error  [Hz]\000"
 2827      7220205B 
 2827      487A5D00 
 2828              	.LC13:
 2829 0068 2530386C 		.ascii	"%08ld\000"
 2829      6400
 2830 006e 0000     		.space	2
 2831              	.LC14:
 2832 0070 535F5F00 		.ascii	"S__\000"
 2833              	.LC15:
 2834 0074 53253032 		.ascii	"S%02d\000"
 2834      6400
 2835 007a 0000     		.space	2
 2836              	.LC16:
 2837 007c 30303030 		.ascii	"00000000\000"
 2837      30303030 
 2837      00
 2838 0085 000000   		.space	3
 2839              	.LC17:
 2840 0088 35303030 		.ascii	"5000000\000"
 2840      30303000 
 2841              	.LC18:
 2842 0090 30303839 		.ascii	"00891000\000"
ARM GAS  C:\Users\koseki\AppData\Local\Temp\ccT0XNG9.s 			page 75


 2842      31303030 
 2842      00
 2843 0099 000000   		.space	3
 2844              	.LC19:
 2845 009c 25357300 		.ascii	"%5s\000"
 2846              	.LC20:
 2847 00a0 4C454400 		.ascii	"LED\000"
 2848              	.LC21:
 2849 00a4 524F5400 		.ascii	"ROT\000"
 2850              	.LC22:
 2851 00a8 4B455900 		.ascii	"KEY\000"
 2852              	.LC23:
 2853 00ac 434C4344 		.ascii	"CLCD\000"
 2853      00
 2854 00b1 000000   		.space	3
 2855              	.LC24:
 2856 00b4 55534255 		.ascii	"USBUART\000"
 2856      41525400 
 2857              	.LC25:
 2858 00bc 52414449 		.ascii	"RADIO\000"
 2858      4F00
 2859 00c2 0000     		.space	2
 2860              	.LC26:
 2861 00c4 31323334 		.ascii	"12345678\000"
 2861      35363738 
 2861      00
 2862 00cd 000000   		.space	3
 2863              	.LC27:
 2864 00d0 30353030 		.ascii	"05000000\000"
 2864      30303030 
 2864      00
 2865 00d9 000000   		.space	3
 2866              	.LC28:
 2867 00dc 43616C69 		.ascii	"Calibrate\000"
 2867      62726174 
 2867      6500
 2868 00e6 0000     		.space	2
 2869              	.LC29:
 2870 00e8 44656275 		.ascii	"Debug Mode\000"
 2870      67204D6F 
 2870      646500
 2871 00f3 00       		.space	1
 2872              	.LC30:
 2873 00f4 0D0A00   		.ascii	"\015\012\000"
 2874 00f7 00       		.space	1
 2875              	.LC31:
 2876 00f8 50726F67 		.ascii	"Program starts\015\012\000"
 2876      72616D20 
 2876      73746172 
 2876      74730D0A 
 2876      00
 2877 0109 000000   		.space	3
 2878              	.LC32:
 2879 010c 2A2A2A2A 		.ascii	"***************************************************"
 2879      2A2A2A2A 
 2879      2A2A2A2A 
 2879      2A2A2A2A 
ARM GAS  C:\Users\koseki\AppData\Local\Temp\ccT0XNG9.s 			page 76


 2879      2A2A2A2A 
 2880 013f 2A2A2A2A 		.ascii	"********\015\012\000"
 2880      2A2A2A2A 
 2880      0D0A00
 2881 014a 0000     		.space	2
 2882              	.LC33:
 2883 014c 2A202020 		.ascii	"*                                                  "
 2883      20202020 
 2883      20202020 
 2883      20202020 
 2883      20202020 
 2884 017f 20202020 		.ascii	"       *\015\012\000"
 2884      2020202A 
 2884      0D0A00
 2885 018a 0000     		.space	2
 2886              	.LC34:
 2887 018c 2A202020 		.ascii	"*                 Simple SDR Reciever              "
 2887      20202020 
 2887      20202020 
 2887      20202020 
 2887      20205369 
 2888 01bf 20202020 		.ascii	"       *\015\012\000"
 2888      2020202A 
 2888      0D0A00
 2889 01ca 0000     		.space	2
 2890              	.LC35:
 2891 01cc 2A202020 		.ascii	"*               for CY8KIT-059 (PSoC-5LP)          "
 2891      20202020 
 2891      20202020 
 2891      20202020 
 2891      666F7220 
 2892 01ff 20202020 		.ascii	"       *\015\012\000"
 2892      2020202A 
 2892      0D0A00
 2893 020a 0000     		.space	2
 2894              	.LC36:
 2895 020c 2A202020 		.ascii	"*                     (ver.0.0.1)                  "
 2895      20202020 
 2895      20202020 
 2895      20202020 
 2895      20202020 
 2896 023f 20202020 		.ascii	"       *\015\012\000"
 2896      2020202A 
 2896      0D0A00
 2897 024a 0000     		.space	2
 2898              	.LC37:
 2899 024c 48616D20 		.ascii	"Ham Radio Deluxe equivalent commands are enabled.\015"
 2899      52616469 
 2899      6F204465 
 2899      6C757865 
 2899      20657175 
 2900 027e 0A00     		.ascii	"\012\000"
 2901              		.text
 2902              	.Letext0:
 2903              		.file 2 "c:\\program files (x86)\\cypress\\psoc creator\\4.0\\psoc creator\\import\\gnu\\arm\\4.9.
 2904              		.file 3 "c:\\program files (x86)\\cypress\\psoc creator\\4.0\\psoc creator\\import\\gnu\\arm\\4.9.
 2905              		.file 4 "c:\\program files (x86)\\cypress\\psoc creator\\4.0\\psoc creator\\import\\gnu\\arm\\4.9.
ARM GAS  C:\Users\koseki\AppData\Local\Temp\ccT0XNG9.s 			page 77


 2906              		.file 5 "Generated_Source\\PSoC5/cytypes.h"
 2907              		.file 6 "..\\FreeRTOS/projdefs.h"
 2908              		.file 7 "..\\FreeRTOS/portmacro.h"
 2909              		.file 8 "..\\FreeRTOS/task.h"
 2910              		.file 9 "..\\FreeRTOS/queue.h"
 2911              		.file 10 "..\\FreeRTOS/semphr.h"
 2912              		.file 11 "Generated_Source\\PSoC5/Filter_PVT.h"
 2913              		.file 12 "Generated_Source\\PSoC5/core_cm3.h"
 2914              		.file 13 "Generated_Source\\PSoC5/BLUELED.h"
 2915              		.file 14 "Generated_Source\\PSoC5/ADC.h"
 2916              		.file 15 "..\\API/I2C_CLCD.h"
 2917              		.file 16 "Generated_Source\\PSoC5/Filter.h"
 2918              		.file 17 "c:\\program files (x86)\\cypress\\psoc creator\\4.0\\psoc creator\\import\\gnu\\arm\\4.9
 2919              		.file 18 "Generated_Source\\PSoC5/SPIM.h"
 2920              		.file 19 "c:\\program files (x86)\\cypress\\psoc creator\\4.0\\psoc creator\\import\\gnu\\arm\\4.9
 2921              		.file 20 "Generated_Source\\PSoC5/CyLib.h"
 2922              		.file 21 "Generated_Source\\PSoC5/I2C_1.h"
 2923              		.file 22 "Generated_Source\\PSoC5/Comp_1.h"
 2924              		.file 23 "Generated_Source\\PSoC5/VDAC_1.h"
 2925              		.file 24 "Generated_Source\\PSoC5/VDAC.h"
 2926              		.file 25 "Generated_Source\\PSoC5/ADC_IRQ.h"
 2927              		.file 26 "Generated_Source\\PSoC5/isr_adc.h"
 2928              		.file 27 "Generated_Source\\PSoC5/EEPROM.h"
 2929              		.file 28 "Generated_Source\\PSoC5/CyFlash.h"
 2930              		.file 29 "USBUART_API.h"
 2931              		.file 30 "Generated_Source\\PSoC5/USBUART_cdc.h"
 2932              		.file 31 "main.h"
 2933              		.file 32 "Generated_Source\\PSoC5/USBUART.h"
 2934              		.file 33 "<built-in>"
 2935              		.file 34 "Generated_Source\\PSoC5/LED.h"
 2936              		.section	.debug_info,"",%progbits
 2937              	.Ldebug_info0:
 2938 0000 3C1B0000 		.4byte	0x1b3c
 2939 0004 0400     		.2byte	0x4
 2940 0006 00000000 		.4byte	.Ldebug_abbrev0
 2941 000a 04       		.byte	0x4
 2942 000b 01       		.uleb128 0x1
 2943 000c 40080000 		.4byte	.LASF187
 2944 0010 01       		.byte	0x1
 2945 0011 21040000 		.4byte	.LASF188
 2946 0015 BA060000 		.4byte	.LASF189
 2947 0019 00000000 		.4byte	.Ldebug_ranges0+0
 2948 001d 00000000 		.4byte	0
 2949 0021 00000000 		.4byte	.Ldebug_line0
 2950 0025 02       		.uleb128 0x2
 2951 0026 04       		.byte	0x4
 2952 0027 05       		.byte	0x5
 2953 0028 696E7400 		.ascii	"int\000"
 2954 002c 03       		.uleb128 0x3
 2955 002d 35000000 		.4byte	.LASF2
 2956 0031 02       		.byte	0x2
 2957 0032 D4       		.byte	0xd4
 2958 0033 37000000 		.4byte	0x37
 2959 0037 04       		.uleb128 0x4
 2960 0038 04       		.byte	0x4
 2961 0039 07       		.byte	0x7
 2962 003a 26030000 		.4byte	.LASF0
ARM GAS  C:\Users\koseki\AppData\Local\Temp\ccT0XNG9.s 			page 78


 2963 003e 04       		.uleb128 0x4
 2964 003f 01       		.byte	0x1
 2965 0040 06       		.byte	0x6
 2966 0041 5B000000 		.4byte	.LASF1
 2967 0045 03       		.uleb128 0x3
 2968 0046 67000000 		.4byte	.LASF3
 2969 004a 03       		.byte	0x3
 2970 004b 1D       		.byte	0x1d
 2971 004c 50000000 		.4byte	0x50
 2972 0050 04       		.uleb128 0x4
 2973 0051 01       		.byte	0x1
 2974 0052 08       		.byte	0x8
 2975 0053 CD050000 		.4byte	.LASF4
 2976 0057 04       		.uleb128 0x4
 2977 0058 02       		.byte	0x2
 2978 0059 05       		.byte	0x5
 2979 005a 0F060000 		.4byte	.LASF5
 2980 005e 03       		.uleb128 0x3
 2981 005f 72070000 		.4byte	.LASF6
 2982 0063 03       		.byte	0x3
 2983 0064 2B       		.byte	0x2b
 2984 0065 69000000 		.4byte	0x69
 2985 0069 04       		.uleb128 0x4
 2986 006a 02       		.byte	0x2
 2987 006b 07       		.byte	0x7
 2988 006c D2030000 		.4byte	.LASF7
 2989 0070 03       		.uleb128 0x3
 2990 0071 C8000000 		.4byte	.LASF8
 2991 0075 03       		.byte	0x3
 2992 0076 3F       		.byte	0x3f
 2993 0077 7B000000 		.4byte	0x7b
 2994 007b 04       		.uleb128 0x4
 2995 007c 04       		.byte	0x4
 2996 007d 05       		.byte	0x5
 2997 007e BC010000 		.4byte	.LASF9
 2998 0082 03       		.uleb128 0x3
 2999 0083 CC020000 		.4byte	.LASF10
 3000 0087 03       		.byte	0x3
 3001 0088 41       		.byte	0x41
 3002 0089 8D000000 		.4byte	0x8d
 3003 008d 04       		.uleb128 0x4
 3004 008e 04       		.byte	0x4
 3005 008f 07       		.byte	0x7
 3006 0090 2D070000 		.4byte	.LASF11
 3007 0094 04       		.uleb128 0x4
 3008 0095 08       		.byte	0x8
 3009 0096 05       		.byte	0x5
 3010 0097 49010000 		.4byte	.LASF12
 3011 009b 04       		.uleb128 0x4
 3012 009c 08       		.byte	0x8
 3013 009d 07       		.byte	0x7
 3014 009e 9D000000 		.4byte	.LASF13
 3015 00a2 04       		.uleb128 0x4
 3016 00a3 04       		.byte	0x4
 3017 00a4 07       		.byte	0x7
 3018 00a5 AF040000 		.4byte	.LASF14
 3019 00a9 05       		.uleb128 0x5
ARM GAS  C:\Users\koseki\AppData\Local\Temp\ccT0XNG9.s 			page 79


 3020 00aa 04       		.byte	0x4
 3021 00ab 06       		.uleb128 0x6
 3022 00ac 04       		.byte	0x4
 3023 00ad B1000000 		.4byte	0xb1
 3024 00b1 07       		.uleb128 0x7
 3025 00b2 06       		.uleb128 0x6
 3026 00b3 04       		.byte	0x4
 3027 00b4 B8000000 		.4byte	0xb8
 3028 00b8 04       		.uleb128 0x4
 3029 00b9 01       		.byte	0x1
 3030 00ba 08       		.byte	0x8
 3031 00bb 51070000 		.4byte	.LASF15
 3032 00bf 06       		.uleb128 0x6
 3033 00c0 04       		.byte	0x4
 3034 00c1 C5000000 		.4byte	0xc5
 3035 00c5 08       		.uleb128 0x8
 3036 00c6 B8000000 		.4byte	0xb8
 3037 00ca 04       		.uleb128 0x4
 3038 00cb 08       		.byte	0x8
 3039 00cc 04       		.byte	0x4
 3040 00cd B0090000 		.4byte	.LASF16
 3041 00d1 04       		.uleb128 0x4
 3042 00d2 04       		.byte	0x4
 3043 00d3 04       		.byte	0x4
 3044 00d4 59050000 		.4byte	.LASF17
 3045 00d8 04       		.uleb128 0x4
 3046 00d9 08       		.byte	0x8
 3047 00da 04       		.byte	0x4
 3048 00db AE020000 		.4byte	.LASF18
 3049 00df 03       		.uleb128 0x3
 3050 00e0 10090000 		.4byte	.LASF19
 3051 00e4 04       		.byte	0x4
 3052 00e5 15       		.byte	0x15
 3053 00e6 45000000 		.4byte	0x45
 3054 00ea 03       		.uleb128 0x3
 3055 00eb 5D020000 		.4byte	.LASF20
 3056 00ef 04       		.byte	0x4
 3057 00f0 21       		.byte	0x21
 3058 00f1 5E000000 		.4byte	0x5e
 3059 00f5 03       		.uleb128 0x3
 3060 00f6 C5050000 		.4byte	.LASF21
 3061 00fa 04       		.byte	0x4
 3062 00fb 2C       		.byte	0x2c
 3063 00fc 70000000 		.4byte	0x70
 3064 0100 03       		.uleb128 0x3
 3065 0101 A1060000 		.4byte	.LASF22
 3066 0105 04       		.byte	0x4
 3067 0106 2D       		.byte	0x2d
 3068 0107 82000000 		.4byte	0x82
 3069 010b 09       		.uleb128 0x9
 3070 010c 2E020000 		.4byte	.LASF23
 3071 0110 05       		.byte	0x5
 3072 0111 3801     		.2byte	0x138
 3073 0113 50000000 		.4byte	0x50
 3074 0117 09       		.uleb128 0x9
 3075 0118 17000000 		.4byte	.LASF24
 3076 011c 05       		.byte	0x5
ARM GAS  C:\Users\koseki\AppData\Local\Temp\ccT0XNG9.s 			page 80


 3077 011d 3901     		.2byte	0x139
 3078 011f 69000000 		.4byte	0x69
 3079 0123 09       		.uleb128 0x9
 3080 0124 9F020000 		.4byte	.LASF25
 3081 0128 05       		.byte	0x5
 3082 0129 3A01     		.2byte	0x13a
 3083 012b 8D000000 		.4byte	0x8d
 3084 012f 09       		.uleb128 0x9
 3085 0130 F1030000 		.4byte	.LASF26
 3086 0134 05       		.byte	0x5
 3087 0135 3B01     		.2byte	0x13b
 3088 0137 3E000000 		.4byte	0x3e
 3089 013b 09       		.uleb128 0x9
 3090 013c 2A090000 		.4byte	.LASF27
 3091 0140 05       		.byte	0x5
 3092 0141 3C01     		.2byte	0x13c
 3093 0143 57000000 		.4byte	0x57
 3094 0147 09       		.uleb128 0x9
 3095 0148 92010000 		.4byte	.LASF28
 3096 014c 05       		.byte	0x5
 3097 014d 3D01     		.2byte	0x13d
 3098 014f 7B000000 		.4byte	0x7b
 3099 0153 09       		.uleb128 0x9
 3100 0154 03060000 		.4byte	.LASF29
 3101 0158 05       		.byte	0x5
 3102 0159 4401     		.2byte	0x144
 3103 015b 9B000000 		.4byte	0x9b
 3104 015f 09       		.uleb128 0x9
 3105 0160 82070000 		.4byte	.LASF30
 3106 0164 05       		.byte	0x5
 3107 0165 4901     		.2byte	0x149
 3108 0167 B8000000 		.4byte	0xb8
 3109 016b 09       		.uleb128 0x9
 3110 016c 57090000 		.4byte	.LASF31
 3111 0170 05       		.byte	0x5
 3112 0171 DA01     		.2byte	0x1da
 3113 0173 8D000000 		.4byte	0x8d
 3114 0177 09       		.uleb128 0x9
 3115 0178 AA050000 		.4byte	.LASF32
 3116 017c 05       		.byte	0x5
 3117 017d E201     		.2byte	0x1e2
 3118 017f 83010000 		.4byte	0x183
 3119 0183 0A       		.uleb128 0xa
 3120 0184 0B010000 		.4byte	0x10b
 3121 0188 0A       		.uleb128 0xa
 3122 0189 23010000 		.4byte	0x123
 3123 018d 09       		.uleb128 0x9
 3124 018e 88070000 		.4byte	.LASF33
 3125 0192 05       		.byte	0x5
 3126 0193 F401     		.2byte	0x1f4
 3127 0195 AB000000 		.4byte	0xab
 3128 0199 06       		.uleb128 0x6
 3129 019a 04       		.byte	0x4
 3130 019b 9F010000 		.4byte	0x19f
 3131 019f 0B       		.uleb128 0xb
 3132 01a0 0C       		.uleb128 0xc
 3133 01a1 0B010000 		.4byte	0x10b
ARM GAS  C:\Users\koseki\AppData\Local\Temp\ccT0XNG9.s 			page 81


 3134 01a5 B0010000 		.4byte	0x1b0
 3135 01a9 0D       		.uleb128 0xd
 3136 01aa A2000000 		.4byte	0xa2
 3137 01ae 07       		.byte	0x7
 3138 01af 00       		.byte	0
 3139 01b0 03       		.uleb128 0x3
 3140 01b1 C2070000 		.4byte	.LASF34
 3141 01b5 06       		.byte	0x6
 3142 01b6 4D       		.byte	0x4d
 3143 01b7 BB010000 		.4byte	0x1bb
 3144 01bb 06       		.uleb128 0x6
 3145 01bc 04       		.byte	0x4
 3146 01bd C1010000 		.4byte	0x1c1
 3147 01c1 0E       		.uleb128 0xe
 3148 01c2 CC010000 		.4byte	0x1cc
 3149 01c6 0F       		.uleb128 0xf
 3150 01c7 A9000000 		.4byte	0xa9
 3151 01cb 00       		.byte	0
 3152 01cc 03       		.uleb128 0x3
 3153 01cd E5030000 		.4byte	.LASF35
 3154 01d1 07       		.byte	0x7
 3155 01d2 61       		.byte	0x61
 3156 01d3 00010000 		.4byte	0x100
 3157 01d7 03       		.uleb128 0x3
 3158 01d8 7F020000 		.4byte	.LASF36
 3159 01dc 07       		.byte	0x7
 3160 01dd 62       		.byte	0x62
 3161 01de 7B000000 		.4byte	0x7b
 3162 01e2 03       		.uleb128 0x3
 3163 01e3 90090000 		.4byte	.LASF37
 3164 01e7 07       		.byte	0x7
 3165 01e8 63       		.byte	0x63
 3166 01e9 8D000000 		.4byte	0x8d
 3167 01ed 03       		.uleb128 0x3
 3168 01ee CD040000 		.4byte	.LASF38
 3169 01f2 07       		.byte	0x7
 3170 01f3 69       		.byte	0x69
 3171 01f4 00010000 		.4byte	0x100
 3172 01f8 03       		.uleb128 0x3
 3173 01f9 1A020000 		.4byte	.LASF39
 3174 01fd 08       		.byte	0x8
 3175 01fe 67       		.byte	0x67
 3176 01ff A9000000 		.4byte	0xa9
 3177 0203 10       		.uleb128 0x10
 3178 0204 32040000 		.4byte	.LASF190
 3179 0208 0C       		.byte	0xc
 3180 0209 08       		.byte	0x8
 3181 020a 8F       		.byte	0x8f
 3182 020b 34020000 		.4byte	0x234
 3183 020f 11       		.uleb128 0x11
 3184 0210 CC090000 		.4byte	.LASF40
 3185 0214 08       		.byte	0x8
 3186 0215 91       		.byte	0x91
 3187 0216 A9000000 		.4byte	0xa9
 3188 021a 00       		.byte	0
 3189 021b 11       		.uleb128 0x11
 3190 021c 16050000 		.4byte	.LASF41
ARM GAS  C:\Users\koseki\AppData\Local\Temp\ccT0XNG9.s 			page 82


 3191 0220 08       		.byte	0x8
 3192 0221 92       		.byte	0x92
 3193 0222 00010000 		.4byte	0x100
 3194 0226 04       		.byte	0x4
 3195 0227 11       		.uleb128 0x11
 3196 0228 EB010000 		.4byte	.LASF42
 3197 022c 08       		.byte	0x8
 3198 022d 93       		.byte	0x93
 3199 022e 00010000 		.4byte	0x100
 3200 0232 08       		.byte	0x8
 3201 0233 00       		.byte	0
 3202 0234 03       		.uleb128 0x3
 3203 0235 4E020000 		.4byte	.LASF43
 3204 0239 08       		.byte	0x8
 3205 023a 94       		.byte	0x94
 3206 023b 03020000 		.4byte	0x203
 3207 023f 08       		.uleb128 0x8
 3208 0240 BF000000 		.4byte	0xbf
 3209 0244 06       		.uleb128 0x6
 3210 0245 04       		.byte	0x4
 3211 0246 CC010000 		.4byte	0x1cc
 3212 024a 03       		.uleb128 0x3
 3213 024b D2000000 		.4byte	.LASF44
 3214 024f 09       		.byte	0x9
 3215 0250 58       		.byte	0x58
 3216 0251 A9000000 		.4byte	0xa9
 3217 0255 03       		.uleb128 0x3
 3218 0256 3F070000 		.4byte	.LASF45
 3219 025a 0A       		.byte	0xa
 3220 025b 4F       		.byte	0x4f
 3221 025c 4A020000 		.4byte	0x24a
 3222 0260 12       		.uleb128 0x12
 3223 0261 18       		.byte	0x18
 3224 0262 01       		.byte	0x1
 3225 0263 4A       		.byte	0x4a
 3226 0264 B1020000 		.4byte	0x2b1
 3227 0268 11       		.uleb128 0x11
 3228 0269 D1070000 		.4byte	.LASF46
 3229 026d 01       		.byte	0x1
 3230 026e 4C       		.byte	0x4c
 3231 026f B1020000 		.4byte	0x2b1
 3232 0273 00       		.byte	0
 3233 0274 11       		.uleb128 0x11
 3234 0275 B7090000 		.4byte	.LASF47
 3235 0279 01       		.byte	0x1
 3236 027a 4D       		.byte	0x4d
 3237 027b 23010000 		.4byte	0x123
 3238 027f 08       		.byte	0x8
 3239 0280 11       		.uleb128 0x11
 3240 0281 1F030000 		.4byte	.LASF48
 3241 0285 01       		.byte	0x1
 3242 0286 4E       		.byte	0x4e
 3243 0287 23010000 		.4byte	0x123
 3244 028b 0C       		.byte	0xc
 3245 028c 11       		.uleb128 0x11
 3246 028d 2D080000 		.4byte	.LASF49
 3247 0291 01       		.byte	0x1
ARM GAS  C:\Users\koseki\AppData\Local\Temp\ccT0XNG9.s 			page 83


 3248 0292 4F       		.byte	0x4f
 3249 0293 23010000 		.4byte	0x123
 3250 0297 10       		.byte	0x10
 3251 0298 11       		.uleb128 0x11
 3252 0299 6D070000 		.4byte	.LASF50
 3253 029d 01       		.byte	0x1
 3254 029e 50       		.byte	0x50
 3255 029f 0B010000 		.4byte	0x10b
 3256 02a3 14       		.byte	0x14
 3257 02a4 11       		.uleb128 0x11
 3258 02a5 50090000 		.4byte	.LASF51
 3259 02a9 01       		.byte	0x1
 3260 02aa 51       		.byte	0x51
 3261 02ab 0B010000 		.4byte	0x10b
 3262 02af 15       		.byte	0x15
 3263 02b0 00       		.byte	0
 3264 02b1 0C       		.uleb128 0xc
 3265 02b2 B8000000 		.4byte	0xb8
 3266 02b6 C1020000 		.4byte	0x2c1
 3267 02ba 0D       		.uleb128 0xd
 3268 02bb A2000000 		.4byte	0xa2
 3269 02bf 04       		.byte	0x4
 3270 02c0 00       		.byte	0
 3271 02c1 03       		.uleb128 0x3
 3272 02c2 FF030000 		.4byte	.LASF52
 3273 02c6 01       		.byte	0x1
 3274 02c7 52       		.byte	0x52
 3275 02c8 60020000 		.4byte	0x260
 3276 02cc 13       		.uleb128 0x13
 3277 02cd 50050000 		.4byte	.LASF55
 3278 02d1 01       		.byte	0x1
 3279 02d2 5501     		.2byte	0x155
 3280 02d4 00000000 		.4byte	.LFB69
 3281 02d8 1E000000 		.4byte	.LFE69-.LFB69
 3282 02dc 01       		.uleb128 0x1
 3283 02dd 9C       		.byte	0x9c
 3284 02de 56030000 		.4byte	0x356
 3285 02e2 14       		.uleb128 0x14
 3286 02e3 80030000 		.4byte	.LASF66
 3287 02e7 01       		.byte	0x1
 3288 02e8 5501     		.2byte	0x155
 3289 02ea A9000000 		.4byte	0xa9
 3290 02ee 00000000 		.4byte	.LLST0
 3291 02f2 15       		.uleb128 0x15
 3292 02f3 56070000 		.4byte	.LASF53
 3293 02f7 01       		.byte	0x1
 3294 02f8 5801     		.2byte	0x158
 3295 02fa 56030000 		.4byte	0x356
 3296 02fe 15       		.uleb128 0x15
 3297 02ff F6030000 		.4byte	.LASF54
 3298 0303 01       		.byte	0x1
 3299 0304 5901     		.2byte	0x159
 3300 0306 56030000 		.4byte	0x356
 3301 030a 16       		.uleb128 0x16
 3302 030b 08000000 		.4byte	.LVL2
 3303 030f D7170000 		.4byte	0x17d7
 3304 0313 1D030000 		.4byte	0x31d
ARM GAS  C:\Users\koseki\AppData\Local\Temp\ccT0XNG9.s 			page 84


 3305 0317 17       		.uleb128 0x17
 3306 0318 01       		.uleb128 0x1
 3307 0319 50       		.byte	0x50
 3308 031a 01       		.uleb128 0x1
 3309 031b 31       		.byte	0x31
 3310 031c 00       		.byte	0
 3311 031d 16       		.uleb128 0x16
 3312 031e 0E000000 		.4byte	.LVL3
 3313 0322 E8170000 		.4byte	0x17e8
 3314 0326 31030000 		.4byte	0x331
 3315 032a 17       		.uleb128 0x17
 3316 032b 01       		.uleb128 0x1
 3317 032c 50       		.byte	0x50
 3318 032d 02       		.uleb128 0x2
 3319 032e 08       		.byte	0x8
 3320 032f 64       		.byte	0x64
 3321 0330 00       		.byte	0
 3322 0331 16       		.uleb128 0x16
 3323 0332 14000000 		.4byte	.LVL4
 3324 0336 D7170000 		.4byte	0x17d7
 3325 033a 44030000 		.4byte	0x344
 3326 033e 17       		.uleb128 0x17
 3327 033f 01       		.uleb128 0x1
 3328 0340 50       		.byte	0x50
 3329 0341 01       		.uleb128 0x1
 3330 0342 30       		.byte	0x30
 3331 0343 00       		.byte	0
 3332 0344 18       		.uleb128 0x18
 3333 0345 1C000000 		.4byte	.LVL5
 3334 0349 E8170000 		.4byte	0x17e8
 3335 034d 17       		.uleb128 0x17
 3336 034e 01       		.uleb128 0x1
 3337 034f 50       		.byte	0x50
 3338 0350 03       		.uleb128 0x3
 3339 0351 0A       		.byte	0xa
 3340 0352 8403     		.2byte	0x384
 3341 0354 00       		.byte	0
 3342 0355 00       		.byte	0
 3343 0356 08       		.uleb128 0x8
 3344 0357 ED010000 		.4byte	0x1ed
 3345 035b 13       		.uleb128 0x13
 3346 035c F5080000 		.4byte	.LASF56
 3347 0360 01       		.byte	0x1
 3348 0361 6503     		.2byte	0x365
 3349 0363 00000000 		.4byte	.LFB80
 3350 0367 9C010000 		.4byte	.LFE80-.LFB80
 3351 036b 01       		.uleb128 0x1
 3352 036c 9C       		.byte	0x9c
 3353 036d 14040000 		.4byte	0x414
 3354 0371 19       		.uleb128 0x19
 3355 0372 18090000 		.4byte	.LASF57
 3356 0376 01       		.byte	0x1
 3357 0377 6703     		.2byte	0x367
 3358 0379 3B010000 		.4byte	0x13b
 3359 037d 21000000 		.4byte	.LLST1
 3360 0381 19       		.uleb128 0x19
 3361 0382 FE000000 		.4byte	.LASF58
ARM GAS  C:\Users\koseki\AppData\Local\Temp\ccT0XNG9.s 			page 85


 3362 0386 01       		.byte	0x1
 3363 0387 6803     		.2byte	0x368
 3364 0389 17010000 		.4byte	0x117
 3365 038d 81000000 		.4byte	.LLST2
 3366 0391 19       		.uleb128 0x19
 3367 0392 60090000 		.4byte	.LASF59
 3368 0396 01       		.byte	0x1
 3369 0397 6903     		.2byte	0x369
 3370 0399 47010000 		.4byte	0x147
 3371 039d AA000000 		.4byte	.LLST3
 3372 03a1 1A       		.uleb128 0x1a
 3373 03a2 496B6E00 		.ascii	"Ikn\000"
 3374 03a6 01       		.byte	0x1
 3375 03a7 6903     		.2byte	0x369
 3376 03a9 47010000 		.4byte	0x147
 3377 03ad D4000000 		.4byte	.LLST4
 3378 03b1 19       		.uleb128 0x19
 3379 03b2 B8040000 		.4byte	.LASF60
 3380 03b6 01       		.byte	0x1
 3381 03b7 6A03     		.2byte	0x36a
 3382 03b9 47010000 		.4byte	0x147
 3383 03bd 33010000 		.4byte	.LLST5
 3384 03c1 1A       		.uleb128 0x1a
 3385 03c2 516B6E00 		.ascii	"Qkn\000"
 3386 03c6 01       		.byte	0x1
 3387 03c7 6A03     		.2byte	0x36a
 3388 03c9 47010000 		.4byte	0x147
 3389 03cd 68010000 		.4byte	.LLST6
 3390 03d1 1A       		.uleb128 0x1a
 3391 03d2 6900     		.ascii	"i\000"
 3392 03d4 01       		.byte	0x1
 3393 03d5 6B03     		.2byte	0x36b
 3394 03d7 0B010000 		.4byte	0x10b
 3395 03db 86010000 		.4byte	.LLST7
 3396 03df 1B       		.uleb128 0x1b
 3397 03e0 16000000 		.4byte	.LVL7
 3398 03e4 FA170000 		.4byte	0x17fa
 3399 03e8 1B       		.uleb128 0x1b
 3400 03e9 72000000 		.4byte	.LVL13
 3401 03ed FA170000 		.4byte	0x17fa
 3402 03f1 16       		.uleb128 0x16
 3403 03f2 B8000000 		.4byte	.LVL17
 3404 03f6 05180000 		.4byte	0x1805
 3405 03fa 04040000 		.4byte	0x404
 3406 03fe 17       		.uleb128 0x17
 3407 03ff 01       		.uleb128 0x1
 3408 0400 50       		.byte	0x50
 3409 0401 01       		.uleb128 0x1
 3410 0402 31       		.byte	0x31
 3411 0403 00       		.byte	0
 3412 0404 18       		.uleb128 0x18
 3413 0405 CE000000 		.4byte	.LVL20
 3414 0409 05180000 		.4byte	0x1805
 3415 040d 17       		.uleb128 0x17
 3416 040e 01       		.uleb128 0x1
 3417 040f 50       		.byte	0x50
 3418 0410 01       		.uleb128 0x1
ARM GAS  C:\Users\koseki\AppData\Local\Temp\ccT0XNG9.s 			page 86


 3419 0411 31       		.byte	0x31
 3420 0412 00       		.byte	0
 3421 0413 00       		.byte	0
 3422 0414 13       		.uleb128 0x13
 3423 0415 1C070000 		.4byte	.LASF61
 3424 0419 01       		.byte	0x1
 3425 041a 2F01     		.2byte	0x12f
 3426 041c 00000000 		.4byte	.LFB66
 3427 0420 20000000 		.4byte	.LFE66-.LFB66
 3428 0424 01       		.uleb128 0x1
 3429 0425 9C       		.byte	0x9c
 3430 0426 4F040000 		.4byte	0x44f
 3431 042a 1C       		.uleb128 0x1c
 3432 042b 3B020000 		.4byte	.LASF62
 3433 042f 01       		.byte	0x1
 3434 0430 3201     		.2byte	0x132
 3435 0432 1C       		.uleb128 0x1c
 3436 0433 B4000000 		.4byte	.LASF63
 3437 0437 01       		.byte	0x1
 3438 0438 3301     		.2byte	0x133
 3439 043a 1C       		.uleb128 0x1c
 3440 043b AA060000 		.4byte	.LASF64
 3441 043f 01       		.byte	0x1
 3442 0440 3401     		.2byte	0x134
 3443 0442 1D       		.uleb128 0x1d
 3444 0443 3E060000 		.4byte	.LASF95
 3445 0447 01       		.byte	0x1
 3446 0448 3501     		.2byte	0x135
 3447 044a 4F040000 		.4byte	0x44f
 3448 044e 00       		.byte	0
 3449 044f 0C       		.uleb128 0xc
 3450 0450 8D010000 		.4byte	0x18d
 3451 0454 5A040000 		.4byte	0x45a
 3452 0458 1E       		.uleb128 0x1e
 3453 0459 00       		.byte	0
 3454 045a 13       		.uleb128 0x13
 3455 045b A6030000 		.4byte	.LASF65
 3456 045f 01       		.byte	0x1
 3457 0460 3F01     		.2byte	0x13f
 3458 0462 00000000 		.4byte	.LFB67
 3459 0466 08000000 		.4byte	.LFE67-.LFB67
 3460 046a 01       		.uleb128 0x1
 3461 046b 9C       		.byte	0x9c
 3462 046c 9A040000 		.4byte	0x49a
 3463 0470 14       		.uleb128 0x14
 3464 0471 02030000 		.4byte	.LASF67
 3465 0475 01       		.byte	0x1
 3466 0476 3F01     		.2byte	0x13f
 3467 0478 F8010000 		.4byte	0x1f8
 3468 047c B0010000 		.4byte	.LLST8
 3469 0480 14       		.uleb128 0x14
 3470 0481 05090000 		.4byte	.LASF68
 3471 0485 01       		.byte	0x1
 3472 0486 3F01     		.2byte	0x13f
 3473 0488 B2000000 		.4byte	0xb2
 3474 048c D1010000 		.4byte	.LLST9
 3475 0490 1B       		.uleb128 0x1b
ARM GAS  C:\Users\koseki\AppData\Local\Temp\ccT0XNG9.s 			page 87


 3476 0491 06000000 		.4byte	.LVL44
 3477 0495 1A180000 		.4byte	0x181a
 3478 0499 00       		.byte	0
 3479 049a 13       		.uleb128 0x13
 3480 049b FD010000 		.4byte	.LASF69
 3481 049f 01       		.byte	0x1
 3482 04a0 4701     		.2byte	0x147
 3483 04a2 00000000 		.4byte	.LFB68
 3484 04a6 08000000 		.4byte	.LFE68-.LFB68
 3485 04aa 01       		.uleb128 0x1
 3486 04ab 9C       		.byte	0x9c
 3487 04ac BA040000 		.4byte	0x4ba
 3488 04b0 1B       		.uleb128 0x1b
 3489 04b1 06000000 		.4byte	.LVL45
 3490 04b5 1A180000 		.4byte	0x181a
 3491 04b9 00       		.byte	0
 3492 04ba 13       		.uleb128 0x13
 3493 04bb AF050000 		.4byte	.LASF70
 3494 04bf 01       		.byte	0x1
 3495 04c0 D001     		.2byte	0x1d0
 3496 04c2 00000000 		.4byte	.LFB72
 3497 04c6 5C010000 		.4byte	.LFE72-.LFB72
 3498 04ca 01       		.uleb128 0x1
 3499 04cb 9C       		.byte	0x9c
 3500 04cc 2D060000 		.4byte	0x62d
 3501 04d0 14       		.uleb128 0x14
 3502 04d1 7D070000 		.4byte	.LASF71
 3503 04d5 01       		.byte	0x1
 3504 04d6 D001     		.2byte	0x1d0
 3505 04d8 0B010000 		.4byte	0x10b
 3506 04dc F2010000 		.4byte	.LLST10
 3507 04e0 1A       		.uleb128 0x1a
 3508 04e1 6900     		.ascii	"i\000"
 3509 04e3 01       		.byte	0x1
 3510 04e4 D201     		.2byte	0x1d2
 3511 04e6 0B010000 		.4byte	0x10b
 3512 04ea 90020000 		.4byte	.LLST11
 3513 04ee 1A       		.uleb128 0x1a
 3514 04ef 6A00     		.ascii	"j\000"
 3515 04f1 01       		.byte	0x1
 3516 04f2 D201     		.2byte	0x1d2
 3517 04f4 0B010000 		.4byte	0x10b
 3518 04f8 AE020000 		.4byte	.LLST12
 3519 04fc 1A       		.uleb128 0x1a
 3520 04fd 7800     		.ascii	"x\000"
 3521 04ff 01       		.byte	0x1
 3522 0500 D301     		.2byte	0x1d3
 3523 0502 47010000 		.4byte	0x147
 3524 0506 ED020000 		.4byte	.LLST13
 3525 050a 1F       		.uleb128 0x1f
 3526 050b 41040000 		.4byte	.LASF72
 3527 050f 01       		.byte	0x1
 3528 0510 D401     		.2byte	0x1d4
 3529 0512 2D060000 		.4byte	0x62d
 3530 0516 03       		.uleb128 0x3
 3531 0517 91       		.byte	0x91
 3532 0518 F07D     		.sleb128 -272
ARM GAS  C:\Users\koseki\AppData\Local\Temp\ccT0XNG9.s 			page 88


 3533 051a 20       		.uleb128 0x20
 3534 051b 73747200 		.ascii	"str\000"
 3535 051f 01       		.byte	0x1
 3536 0520 F601     		.2byte	0x1f6
 3537 0522 3D060000 		.4byte	0x63d
 3538 0526 03       		.uleb128 0x3
 3539 0527 91       		.byte	0x91
 3540 0528 DC7D     		.sleb128 -292
 3541 052a 16       		.uleb128 0x16
 3542 052b 1A000000 		.4byte	.LVL48
 3543 052f 25180000 		.4byte	0x1825
 3544 0533 48050000 		.4byte	0x548
 3545 0537 17       		.uleb128 0x17
 3546 0538 01       		.uleb128 0x1
 3547 0539 52       		.byte	0x52
 3548 053a 03       		.uleb128 0x3
 3549 053b 0A       		.byte	0xa
 3550 053c 0002     		.2byte	0x200
 3551 053e 17       		.uleb128 0x17
 3552 053f 01       		.uleb128 0x1
 3553 0540 50       		.byte	0x50
 3554 0541 05       		.uleb128 0x5
 3555 0542 0C       		.byte	0xc
 3556 0543 00C20040 		.4byte	0x4000c200
 3557 0547 00       		.byte	0
 3558 0548 16       		.uleb128 0x16
 3559 0549 2C000000 		.4byte	.LVL51
 3560 054d 25180000 		.4byte	0x1825
 3561 0551 66050000 		.4byte	0x566
 3562 0555 17       		.uleb128 0x17
 3563 0556 01       		.uleb128 0x1
 3564 0557 52       		.byte	0x52
 3565 0558 03       		.uleb128 0x3
 3566 0559 0A       		.byte	0xa
 3567 055a 0002     		.2byte	0x200
 3568 055c 17       		.uleb128 0x17
 3569 055d 01       		.uleb128 0x1
 3570 055e 50       		.byte	0x50
 3571 055f 05       		.uleb128 0x5
 3572 0560 0C       		.byte	0xc
 3573 0561 00C20040 		.4byte	0x4000c200
 3574 0565 00       		.byte	0
 3575 0566 16       		.uleb128 0x16
 3576 0567 3E000000 		.4byte	.LVL54
 3577 056b 25180000 		.4byte	0x1825
 3578 056f 84050000 		.4byte	0x584
 3579 0573 17       		.uleb128 0x17
 3580 0574 01       		.uleb128 0x1
 3581 0575 52       		.byte	0x52
 3582 0576 03       		.uleb128 0x3
 3583 0577 0A       		.byte	0xa
 3584 0578 0002     		.2byte	0x200
 3585 057a 17       		.uleb128 0x17
 3586 057b 01       		.uleb128 0x1
 3587 057c 50       		.byte	0x50
 3588 057d 05       		.uleb128 0x5
 3589 057e 0C       		.byte	0xc
ARM GAS  C:\Users\koseki\AppData\Local\Temp\ccT0XNG9.s 			page 89


 3590 057f 00C20040 		.4byte	0x4000c200
 3591 0583 00       		.byte	0
 3592 0584 16       		.uleb128 0x16
 3593 0585 54000000 		.4byte	.LVL57
 3594 0589 25180000 		.4byte	0x1825
 3595 058d A2050000 		.4byte	0x5a2
 3596 0591 17       		.uleb128 0x17
 3597 0592 01       		.uleb128 0x1
 3598 0593 52       		.byte	0x52
 3599 0594 03       		.uleb128 0x3
 3600 0595 0A       		.byte	0xa
 3601 0596 0002     		.2byte	0x200
 3602 0598 17       		.uleb128 0x17
 3603 0599 01       		.uleb128 0x1
 3604 059a 50       		.byte	0x50
 3605 059b 05       		.uleb128 0x5
 3606 059c 0C       		.byte	0xc
 3607 059d 00C20040 		.4byte	0x4000c200
 3608 05a1 00       		.byte	0
 3609 05a2 16       		.uleb128 0x16
 3610 05a3 66000000 		.4byte	.LVL60
 3611 05a7 25180000 		.4byte	0x1825
 3612 05ab C0050000 		.4byte	0x5c0
 3613 05af 17       		.uleb128 0x17
 3614 05b0 01       		.uleb128 0x1
 3615 05b1 52       		.byte	0x52
 3616 05b2 03       		.uleb128 0x3
 3617 05b3 0A       		.byte	0xa
 3618 05b4 0002     		.2byte	0x200
 3619 05b6 17       		.uleb128 0x17
 3620 05b7 01       		.uleb128 0x1
 3621 05b8 50       		.byte	0x50
 3622 05b9 05       		.uleb128 0x5
 3623 05ba 0C       		.byte	0xc
 3624 05bb 00C20040 		.4byte	0x4000c200
 3625 05bf 00       		.byte	0
 3626 05c0 16       		.uleb128 0x16
 3627 05c1 78000000 		.4byte	.LVL63
 3628 05c5 25180000 		.4byte	0x1825
 3629 05c9 DE050000 		.4byte	0x5de
 3630 05cd 17       		.uleb128 0x17
 3631 05ce 01       		.uleb128 0x1
 3632 05cf 52       		.byte	0x52
 3633 05d0 03       		.uleb128 0x3
 3634 05d1 0A       		.byte	0xa
 3635 05d2 0002     		.2byte	0x200
 3636 05d4 17       		.uleb128 0x17
 3637 05d5 01       		.uleb128 0x1
 3638 05d6 50       		.byte	0x50
 3639 05d7 05       		.uleb128 0x5
 3640 05d8 0C       		.byte	0xc
 3641 05d9 00C20040 		.4byte	0x4000c200
 3642 05dd 00       		.byte	0
 3643 05de 16       		.uleb128 0x16
 3644 05df B4000000 		.4byte	.LVL74
 3645 05e3 25180000 		.4byte	0x1825
 3646 05e7 03060000 		.4byte	0x603
ARM GAS  C:\Users\koseki\AppData\Local\Temp\ccT0XNG9.s 			page 90


 3647 05eb 17       		.uleb128 0x17
 3648 05ec 01       		.uleb128 0x1
 3649 05ed 52       		.byte	0x52
 3650 05ee 03       		.uleb128 0x3
 3651 05ef 0A       		.byte	0xa
 3652 05f0 0001     		.2byte	0x100
 3653 05f2 17       		.uleb128 0x17
 3654 05f3 01       		.uleb128 0x1
 3655 05f4 51       		.byte	0x51
 3656 05f5 03       		.uleb128 0x3
 3657 05f6 91       		.byte	0x91
 3658 05f7 F07D     		.sleb128 -272
 3659 05f9 17       		.uleb128 0x17
 3660 05fa 01       		.uleb128 0x1
 3661 05fb 50       		.byte	0x50
 3662 05fc 05       		.uleb128 0x5
 3663 05fd 0C       		.byte	0xc
 3664 05fe 00C30040 		.4byte	0x4000c300
 3665 0602 00       		.byte	0
 3666 0603 16       		.uleb128 0x16
 3667 0604 14010000 		.4byte	.LVL75
 3668 0608 42180000 		.4byte	0x1842
 3669 060c 1B060000 		.4byte	0x61b
 3670 0610 17       		.uleb128 0x17
 3671 0611 01       		.uleb128 0x1
 3672 0612 51       		.byte	0x51
 3673 0613 01       		.uleb128 0x1
 3674 0614 35       		.byte	0x35
 3675 0615 17       		.uleb128 0x17
 3676 0616 01       		.uleb128 0x1
 3677 0617 50       		.byte	0x50
 3678 0618 01       		.uleb128 0x1
 3679 0619 31       		.byte	0x31
 3680 061a 00       		.byte	0
 3681 061b 18       		.uleb128 0x18
 3682 061c 1A010000 		.4byte	.LVL76
 3683 0620 58180000 		.4byte	0x1858
 3684 0624 17       		.uleb128 0x17
 3685 0625 01       		.uleb128 0x1
 3686 0626 50       		.byte	0x50
 3687 0627 03       		.uleb128 0x3
 3688 0628 91       		.byte	0x91
 3689 0629 DC7D     		.sleb128 -292
 3690 062b 00       		.byte	0
 3691 062c 00       		.byte	0
 3692 062d 0C       		.uleb128 0xc
 3693 062e 0B010000 		.4byte	0x10b
 3694 0632 3D060000 		.4byte	0x63d
 3695 0636 0D       		.uleb128 0xd
 3696 0637 A2000000 		.4byte	0xa2
 3697 063b FF       		.byte	0xff
 3698 063c 00       		.byte	0
 3699 063d 0C       		.uleb128 0xc
 3700 063e B8000000 		.4byte	0xb8
 3701 0642 4D060000 		.4byte	0x64d
 3702 0646 0D       		.uleb128 0xd
 3703 0647 A2000000 		.4byte	0xa2
ARM GAS  C:\Users\koseki\AppData\Local\Temp\ccT0XNG9.s 			page 91


 3704 064b 13       		.byte	0x13
 3705 064c 00       		.byte	0
 3706 064d 13       		.uleb128 0x13
 3707 064e 19040000 		.4byte	.LASF73
 3708 0652 01       		.byte	0x1
 3709 0653 5502     		.2byte	0x255
 3710 0655 00000000 		.4byte	.LFB74
 3711 0659 C0000000 		.4byte	.LFE74-.LFB74
 3712 065d 01       		.uleb128 0x1
 3713 065e 9C       		.byte	0x9c
 3714 065f AA060000 		.4byte	0x6aa
 3715 0663 21       		.uleb128 0x21
 3716 0664 6D6400   		.ascii	"md\000"
 3717 0667 01       		.byte	0x1
 3718 0668 5502     		.2byte	0x255
 3719 066a 0B010000 		.4byte	0x10b
 3720 066e 00030000 		.4byte	.LLST14
 3721 0672 20       		.uleb128 0x20
 3722 0673 73747200 		.ascii	"str\000"
 3723 0677 01       		.byte	0x1
 3724 0678 6402     		.2byte	0x264
 3725 067a 3D060000 		.4byte	0x63d
 3726 067e 02       		.uleb128 0x2
 3727 067f 91       		.byte	0x91
 3728 0680 64       		.sleb128 -28
 3729 0681 16       		.uleb128 0x16
 3730 0682 94000000 		.4byte	.LVL87
 3731 0686 42180000 		.4byte	0x1842
 3732 068a 99060000 		.4byte	0x699
 3733 068e 17       		.uleb128 0x17
 3734 068f 01       		.uleb128 0x1
 3735 0690 51       		.byte	0x51
 3736 0691 01       		.uleb128 0x1
 3737 0692 30       		.byte	0x30
 3738 0693 17       		.uleb128 0x17
 3739 0694 01       		.uleb128 0x1
 3740 0695 50       		.byte	0x50
 3741 0696 01       		.uleb128 0x1
 3742 0697 31       		.byte	0x31
 3743 0698 00       		.byte	0
 3744 0699 18       		.uleb128 0x18
 3745 069a 9A000000 		.4byte	.LVL88
 3746 069e 58180000 		.4byte	0x1858
 3747 06a2 17       		.uleb128 0x17
 3748 06a3 01       		.uleb128 0x1
 3749 06a4 50       		.byte	0x50
 3750 06a5 02       		.uleb128 0x2
 3751 06a6 91       		.byte	0x91
 3752 06a7 64       		.sleb128 -28
 3753 06a8 00       		.byte	0
 3754 06a9 00       		.byte	0
 3755 06aa 22       		.uleb128 0x22
 3756 06ab E5080000 		.4byte	.LASF191
 3757 06af 01       		.byte	0x1
 3758 06b0 7E02     		.2byte	0x27e
 3759 06b2 23010000 		.4byte	0x123
 3760 06b6 00000000 		.4byte	.LFB75
ARM GAS  C:\Users\koseki\AppData\Local\Temp\ccT0XNG9.s 			page 92


 3761 06ba 34000000 		.4byte	.LFE75-.LFB75
 3762 06be 01       		.uleb128 0x1
 3763 06bf 9C       		.byte	0x9c
 3764 06c0 03070000 		.4byte	0x703
 3765 06c4 21       		.uleb128 0x21
 3766 06c5 70747200 		.ascii	"ptr\000"
 3767 06c9 01       		.byte	0x1
 3768 06ca 7E02     		.2byte	0x27e
 3769 06cc 03070000 		.4byte	0x703
 3770 06d0 98030000 		.4byte	.LLST15
 3771 06d4 1A       		.uleb128 0x1a
 3772 06d5 6900     		.ascii	"i\000"
 3773 06d7 01       		.byte	0x1
 3774 06d8 8002     		.2byte	0x280
 3775 06da 0B010000 		.4byte	0x10b
 3776 06de C3030000 		.4byte	.LLST16
 3777 06e2 1A       		.uleb128 0x1a
 3778 06e3 66727100 		.ascii	"frq\000"
 3779 06e7 01       		.byte	0x1
 3780 06e8 8102     		.2byte	0x281
 3781 06ea 23010000 		.4byte	0x123
 3782 06ee ED030000 		.4byte	.LLST17
 3783 06f2 1A       		.uleb128 0x1a
 3784 06f3 64656300 		.ascii	"dec\000"
 3785 06f7 01       		.byte	0x1
 3786 06f8 8102     		.2byte	0x281
 3787 06fa 23010000 		.4byte	0x123
 3788 06fe 17040000 		.4byte	.LLST18
 3789 0702 00       		.byte	0
 3790 0703 06       		.uleb128 0x6
 3791 0704 04       		.byte	0x4
 3792 0705 0B010000 		.4byte	0x10b
 3793 0709 23       		.uleb128 0x23
 3794 070a 93050000 		.4byte	.LASF74
 3795 070e 01       		.byte	0x1
 3796 070f 1502     		.2byte	0x215
 3797 0711 00000000 		.4byte	.LFB73
 3798 0715 7C010000 		.4byte	.LFE73-.LFB73
 3799 0719 01       		.uleb128 0x1
 3800 071a 9C       		.byte	0x9c
 3801 071b 85080000 		.4byte	0x885
 3802 071f 1A       		.uleb128 0x1a
 3803 0720 66727100 		.ascii	"frq\000"
 3804 0724 01       		.byte	0x1
 3805 0725 1802     		.2byte	0x218
 3806 0727 23010000 		.4byte	0x123
 3807 072b 45040000 		.4byte	.LLST19
 3808 072f 19       		.uleb128 0x19
 3809 0730 0F000000 		.4byte	.LASF75
 3810 0734 01       		.byte	0x1
 3811 0735 1A02     		.2byte	0x21a
 3812 0737 23010000 		.4byte	0x123
 3813 073b 7B040000 		.4byte	.LLST20
 3814 073f 19       		.uleb128 0x19
 3815 0740 60040000 		.4byte	.LASF76
 3816 0744 01       		.byte	0x1
 3817 0745 1B02     		.2byte	0x21b
ARM GAS  C:\Users\koseki\AppData\Local\Temp\ccT0XNG9.s 			page 93


 3818 0747 53010000 		.4byte	0x153
 3819 074b BB040000 		.4byte	.LLST21
 3820 074f 20       		.uleb128 0x20
 3821 0750 7700     		.ascii	"w\000"
 3822 0752 01       		.byte	0x1
 3823 0753 1C02     		.2byte	0x21c
 3824 0755 85080000 		.4byte	0x885
 3825 0759 02       		.uleb128 0x2
 3826 075a 91       		.byte	0x91
 3827 075b 68       		.sleb128 -24
 3828 075c 1A       		.uleb128 0x1a
 3829 075d 6900     		.ascii	"i\000"
 3830 075f 01       		.byte	0x1
 3831 0760 1D02     		.2byte	0x21d
 3832 0762 0B010000 		.4byte	0x10b
 3833 0766 E3040000 		.4byte	.LLST22
 3834 076a 20       		.uleb128 0x20
 3835 076b 73747200 		.ascii	"str\000"
 3836 076f 01       		.byte	0x1
 3837 0770 1E02     		.2byte	0x21e
 3838 0772 3D060000 		.4byte	0x63d
 3839 0776 02       		.uleb128 0x2
 3840 0777 91       		.byte	0x91
 3841 0778 54       		.sleb128 -44
 3842 0779 16       		.uleb128 0x16
 3843 077a 1A000000 		.4byte	.LVL100
 3844 077e 74180000 		.4byte	0x1874
 3845 0782 9E070000 		.4byte	0x79e
 3846 0786 17       		.uleb128 0x17
 3847 0787 01       		.uleb128 0x1
 3848 0788 52       		.byte	0x52
 3849 0789 01       		.uleb128 0x1
 3850 078a 38       		.byte	0x38
 3851 078b 17       		.uleb128 0x17
 3852 078c 01       		.uleb128 0x1
 3853 078d 51       		.byte	0x51
 3854 078e 05       		.uleb128 0x5
 3855 078f 03       		.byte	0x3
 3856 0790 00000000 		.4byte	LastFreq
 3857 0794 17       		.uleb128 0x17
 3858 0795 01       		.uleb128 0x1
 3859 0796 50       		.byte	0x50
 3860 0797 05       		.uleb128 0x5
 3861 0798 03       		.byte	0x3
 3862 0799 00000000 		.4byte	Freq
 3863 079d 00       		.byte	0
 3864 079e 16       		.uleb128 0x16
 3865 079f 26000000 		.4byte	.LVL101
 3866 07a3 AA060000 		.4byte	0x6aa
 3867 07a7 B5070000 		.4byte	0x7b5
 3868 07ab 17       		.uleb128 0x17
 3869 07ac 01       		.uleb128 0x1
 3870 07ad 50       		.byte	0x50
 3871 07ae 05       		.uleb128 0x5
 3872 07af 03       		.byte	0x3
 3873 07b0 00000000 		.4byte	Freq
 3874 07b4 00       		.byte	0
ARM GAS  C:\Users\koseki\AppData\Local\Temp\ccT0XNG9.s 			page 94


 3875 07b5 16       		.uleb128 0x16
 3876 07b6 DE000000 		.4byte	.LVL113
 3877 07ba 93180000 		.4byte	0x1893
 3878 07be CB070000 		.4byte	0x7cb
 3879 07c2 17       		.uleb128 0x17
 3880 07c3 01       		.uleb128 0x1
 3881 07c4 50       		.byte	0x50
 3882 07c5 04       		.uleb128 0x4
 3883 07c6 91       		.byte	0x91
 3884 07c7 68       		.sleb128 -24
 3885 07c8 94       		.byte	0x94
 3886 07c9 01       		.byte	0x1
 3887 07ca 00       		.byte	0
 3888 07cb 16       		.uleb128 0x16
 3889 07cc E6000000 		.4byte	.LVL114
 3890 07d0 93180000 		.4byte	0x1893
 3891 07d4 E1070000 		.4byte	0x7e1
 3892 07d8 17       		.uleb128 0x17
 3893 07d9 01       		.uleb128 0x1
 3894 07da 50       		.byte	0x50
 3895 07db 04       		.uleb128 0x4
 3896 07dc 91       		.byte	0x91
 3897 07dd 69       		.sleb128 -23
 3898 07de 94       		.byte	0x94
 3899 07df 01       		.byte	0x1
 3900 07e0 00       		.byte	0
 3901 07e1 16       		.uleb128 0x16
 3902 07e2 EE000000 		.4byte	.LVL115
 3903 07e6 93180000 		.4byte	0x1893
 3904 07ea F7070000 		.4byte	0x7f7
 3905 07ee 17       		.uleb128 0x17
 3906 07ef 01       		.uleb128 0x1
 3907 07f0 50       		.byte	0x50
 3908 07f1 04       		.uleb128 0x4
 3909 07f2 91       		.byte	0x91
 3910 07f3 6A       		.sleb128 -22
 3911 07f4 94       		.byte	0x94
 3912 07f5 01       		.byte	0x1
 3913 07f6 00       		.byte	0
 3914 07f7 16       		.uleb128 0x16
 3915 07f8 F6000000 		.4byte	.LVL116
 3916 07fc 93180000 		.4byte	0x1893
 3917 0800 0D080000 		.4byte	0x80d
 3918 0804 17       		.uleb128 0x17
 3919 0805 01       		.uleb128 0x1
 3920 0806 50       		.byte	0x50
 3921 0807 04       		.uleb128 0x4
 3922 0808 91       		.byte	0x91
 3923 0809 6B       		.sleb128 -21
 3924 080a 94       		.byte	0x94
 3925 080b 01       		.byte	0x1
 3926 080c 00       		.byte	0
 3927 080d 16       		.uleb128 0x16
 3928 080e FE000000 		.4byte	.LVL117
 3929 0812 93180000 		.4byte	0x1893
 3930 0816 23080000 		.4byte	0x823
 3931 081a 17       		.uleb128 0x17
ARM GAS  C:\Users\koseki\AppData\Local\Temp\ccT0XNG9.s 			page 95


 3932 081b 01       		.uleb128 0x1
 3933 081c 50       		.byte	0x50
 3934 081d 04       		.uleb128 0x4
 3935 081e 91       		.byte	0x91
 3936 081f 6C       		.sleb128 -20
 3937 0820 94       		.byte	0x94
 3938 0821 01       		.byte	0x1
 3939 0822 00       		.byte	0
 3940 0823 1B       		.uleb128 0x1b
 3941 0824 02010000 		.4byte	.LVL118
 3942 0828 A4180000 		.4byte	0x18a4
 3943 082c 16       		.uleb128 0x16
 3944 082d 14010000 		.4byte	.LVL119
 3945 0831 AF180000 		.4byte	0x18af
 3946 0835 49080000 		.4byte	0x849
 3947 0839 17       		.uleb128 0x17
 3948 083a 01       		.uleb128 0x1
 3949 083b 51       		.byte	0x51
 3950 083c 05       		.uleb128 0x5
 3951 083d 03       		.byte	0x3
 3952 083e 50000000 		.4byte	.LC11
 3953 0842 17       		.uleb128 0x17
 3954 0843 01       		.uleb128 0x1
 3955 0844 50       		.byte	0x50
 3956 0845 02       		.uleb128 0x2
 3957 0846 91       		.byte	0x91
 3958 0847 54       		.sleb128 -44
 3959 0848 00       		.byte	0
 3960 0849 16       		.uleb128 0x16
 3961 084a 28010000 		.4byte	.LVL122
 3962 084e 42180000 		.4byte	0x1842
 3963 0852 61080000 		.4byte	0x861
 3964 0856 17       		.uleb128 0x17
 3965 0857 01       		.uleb128 0x1
 3966 0858 51       		.byte	0x51
 3967 0859 01       		.uleb128 0x1
 3968 085a 35       		.byte	0x35
 3969 085b 17       		.uleb128 0x17
 3970 085c 01       		.uleb128 0x1
 3971 085d 50       		.byte	0x50
 3972 085e 01       		.uleb128 0x1
 3973 085f 30       		.byte	0x30
 3974 0860 00       		.byte	0
 3975 0861 16       		.uleb128 0x16
 3976 0862 2E010000 		.4byte	.LVL123
 3977 0866 58180000 		.4byte	0x1858
 3978 086a 75080000 		.4byte	0x875
 3979 086e 17       		.uleb128 0x17
 3980 086f 01       		.uleb128 0x1
 3981 0870 50       		.byte	0x50
 3982 0871 02       		.uleb128 0x2
 3983 0872 91       		.byte	0x91
 3984 0873 54       		.sleb128 -44
 3985 0874 00       		.byte	0
 3986 0875 18       		.uleb128 0x18
 3987 0876 34010000 		.4byte	.LVL124
 3988 087a CA180000 		.4byte	0x18ca
ARM GAS  C:\Users\koseki\AppData\Local\Temp\ccT0XNG9.s 			page 96


 3989 087e 17       		.uleb128 0x17
 3990 087f 01       		.uleb128 0x1
 3991 0880 50       		.byte	0x50
 3992 0881 01       		.uleb128 0x1
 3993 0882 31       		.byte	0x31
 3994 0883 00       		.byte	0
 3995 0884 00       		.byte	0
 3996 0885 0C       		.uleb128 0xc
 3997 0886 0B010000 		.4byte	0x10b
 3998 088a 95080000 		.4byte	0x895
 3999 088e 0D       		.uleb128 0xd
 4000 088f A2000000 		.4byte	0xa2
 4001 0893 04       		.byte	0x4
 4002 0894 00       		.byte	0
 4003 0895 13       		.uleb128 0x13
 4004 0896 94020000 		.4byte	.LASF77
 4005 089a 01       		.byte	0x1
 4006 089b BA01     		.2byte	0x1ba
 4007 089d 00000000 		.4byte	.LFB71
 4008 08a1 84000000 		.4byte	.LFE71-.LFB71
 4009 08a5 01       		.uleb128 0x1
 4010 08a6 9C       		.byte	0x9c
 4011 08a7 47090000 		.4byte	0x947
 4012 08ab 21       		.uleb128 0x21
 4013 08ac 636800   		.ascii	"ch\000"
 4014 08af 01       		.byte	0x1
 4015 08b0 BA01     		.2byte	0x1ba
 4016 08b2 0B010000 		.4byte	0x10b
 4017 08b6 0D050000 		.4byte	.LLST23
 4018 08ba 20       		.uleb128 0x20
 4019 08bb 73747200 		.ascii	"str\000"
 4020 08bf 01       		.byte	0x1
 4021 08c0 BC01     		.2byte	0x1bc
 4022 08c2 3D060000 		.4byte	0x63d
 4023 08c6 02       		.uleb128 0x2
 4024 08c7 91       		.byte	0x91
 4025 08c8 54       		.sleb128 -44
 4026 08c9 16       		.uleb128 0x16
 4027 08ca 1E000000 		.4byte	.LVL127
 4028 08ce AF180000 		.4byte	0x18af
 4029 08d2 E9080000 		.4byte	0x8e9
 4030 08d6 17       		.uleb128 0x17
 4031 08d7 01       		.uleb128 0x1
 4032 08d8 51       		.byte	0x51
 4033 08d9 05       		.uleb128 0x5
 4034 08da 03       		.byte	0x3
 4035 08db 68000000 		.4byte	.LC13
 4036 08df 17       		.uleb128 0x17
 4037 08e0 01       		.uleb128 0x1
 4038 08e1 50       		.byte	0x50
 4039 08e2 05       		.uleb128 0x5
 4040 08e3 03       		.byte	0x3
 4041 08e4 00000000 		.4byte	Freq
 4042 08e8 00       		.byte	0
 4043 08e9 1B       		.uleb128 0x1b
 4044 08ea 22000000 		.4byte	.LVL128
 4045 08ee 09070000 		.4byte	0x709
ARM GAS  C:\Users\koseki\AppData\Local\Temp\ccT0XNG9.s 			page 97


 4046 08f2 1B       		.uleb128 0x1b
 4047 08f3 38000000 		.4byte	.LVL129
 4048 08f7 4D060000 		.4byte	0x64d
 4049 08fb 1B       		.uleb128 0x1b
 4050 08fc 42000000 		.4byte	.LVL130
 4051 0900 BA040000 		.4byte	0x4ba
 4052 0904 16       		.uleb128 0x16
 4053 0905 4E000000 		.4byte	.LVL131
 4054 0909 DB180000 		.4byte	0x18db
 4055 090d 1E090000 		.4byte	0x91e
 4056 0911 17       		.uleb128 0x17
 4057 0912 01       		.uleb128 0x1
 4058 0913 51       		.byte	0x51
 4059 0914 02       		.uleb128 0x2
 4060 0915 74       		.byte	0x74
 4061 0916 70       		.sleb128 -16
 4062 0917 17       		.uleb128 0x17
 4063 0918 01       		.uleb128 0x1
 4064 0919 50       		.byte	0x50
 4065 091a 02       		.uleb128 0x2
 4066 091b 91       		.byte	0x91
 4067 091c 54       		.sleb128 -44
 4068 091d 00       		.byte	0
 4069 091e 16       		.uleb128 0x16
 4070 091f 56000000 		.4byte	.LVL132
 4071 0923 42180000 		.4byte	0x1842
 4072 0927 36090000 		.4byte	0x936
 4073 092b 17       		.uleb128 0x17
 4074 092c 01       		.uleb128 0x1
 4075 092d 51       		.byte	0x51
 4076 092e 01       		.uleb128 0x1
 4077 092f 30       		.byte	0x30
 4078 0930 17       		.uleb128 0x17
 4079 0931 01       		.uleb128 0x1
 4080 0932 50       		.byte	0x50
 4081 0933 01       		.uleb128 0x1
 4082 0934 30       		.byte	0x30
 4083 0935 00       		.byte	0
 4084 0936 18       		.uleb128 0x18
 4085 0937 5C000000 		.4byte	.LVL133
 4086 093b 58180000 		.4byte	0x1858
 4087 093f 17       		.uleb128 0x17
 4088 0940 01       		.uleb128 0x1
 4089 0941 50       		.byte	0x50
 4090 0942 02       		.uleb128 0x2
 4091 0943 91       		.byte	0x91
 4092 0944 54       		.sleb128 -44
 4093 0945 00       		.byte	0
 4094 0946 00       		.byte	0
 4095 0947 13       		.uleb128 0x13
 4096 0948 DB080000 		.4byte	.LASF78
 4097 094c 01       		.byte	0x1
 4098 094d 7701     		.2byte	0x177
 4099 094f 00000000 		.4byte	.LFB70
 4100 0953 58010000 		.4byte	.LFE70-.LFB70
 4101 0957 01       		.uleb128 0x1
 4102 0958 9C       		.byte	0x9c
ARM GAS  C:\Users\koseki\AppData\Local\Temp\ccT0XNG9.s 			page 98


 4103 0959 3D0B0000 		.4byte	0xb3d
 4104 095d 14       		.uleb128 0x14
 4105 095e 80030000 		.4byte	.LASF66
 4106 0962 01       		.byte	0x1
 4107 0963 7701     		.2byte	0x177
 4108 0965 A9000000 		.4byte	0xa9
 4109 0969 2E050000 		.4byte	.LLST24
 4110 096d 1F       		.uleb128 0x1f
 4111 096e 49000000 		.4byte	.LASF79
 4112 0972 01       		.byte	0x1
 4113 0973 7901     		.2byte	0x179
 4114 0975 2F010000 		.4byte	0x12f
 4115 0979 02       		.uleb128 0x2
 4116 097a 91       		.byte	0x91
 4117 097b 6F       		.sleb128 -17
 4118 097c 1F       		.uleb128 0x1f
 4119 097d 0A060000 		.4byte	.LASF80
 4120 0981 01       		.byte	0x1
 4121 0982 7A01     		.2byte	0x17a
 4122 0984 0B010000 		.4byte	0x10b
 4123 0988 02       		.uleb128 0x2
 4124 0989 91       		.byte	0x91
 4125 098a 6E       		.sleb128 -18
 4126 098b 19       		.uleb128 0x19
 4127 098c 38090000 		.4byte	.LASF81
 4128 0990 01       		.byte	0x1
 4129 0991 7B01     		.2byte	0x17b
 4130 0993 23010000 		.4byte	0x123
 4131 0997 4F050000 		.4byte	.LLST25
 4132 099b 1A       		.uleb128 0x1a
 4133 099c 636E7400 		.ascii	"cnt\000"
 4134 09a0 01       		.byte	0x1
 4135 09a1 7C01     		.2byte	0x17c
 4136 09a3 0B010000 		.4byte	0x10b
 4137 09a7 62050000 		.4byte	.LLST26
 4138 09ab 20       		.uleb128 0x20
 4139 09ac 73747200 		.ascii	"str\000"
 4140 09b0 01       		.byte	0x1
 4141 09b1 7D01     		.2byte	0x17d
 4142 09b3 3D060000 		.4byte	0x63d
 4143 09b7 02       		.uleb128 0x2
 4144 09b8 91       		.byte	0x91
 4145 09b9 58       		.sleb128 -40
 4146 09ba 24       		.uleb128 0x24
 4147 09bb DA090000 		.4byte	.LASF82
 4148 09bf 01       		.byte	0x1
 4149 09c0 7E01     		.2byte	0x17e
 4150 09c2 56030000 		.4byte	0x356
 4151 09c6 64       		.byte	0x64
 4152 09c7 16       		.uleb128 0x16
 4153 09c8 12000000 		.4byte	.LVL137
 4154 09cc 42180000 		.4byte	0x1842
 4155 09d0 DF090000 		.4byte	0x9df
 4156 09d4 17       		.uleb128 0x17
 4157 09d5 01       		.uleb128 0x1
 4158 09d6 51       		.byte	0x51
 4159 09d7 01       		.uleb128 0x1
ARM GAS  C:\Users\koseki\AppData\Local\Temp\ccT0XNG9.s 			page 99


 4160 09d8 3D       		.byte	0x3d
 4161 09d9 17       		.uleb128 0x17
 4162 09da 01       		.uleb128 0x1
 4163 09db 50       		.byte	0x50
 4164 09dc 01       		.uleb128 0x1
 4165 09dd 31       		.byte	0x31
 4166 09de 00       		.byte	0
 4167 09df 16       		.uleb128 0x16
 4168 09e0 18000000 		.4byte	.LVL138
 4169 09e4 58180000 		.4byte	0x1858
 4170 09e8 F6090000 		.4byte	0x9f6
 4171 09ec 17       		.uleb128 0x17
 4172 09ed 01       		.uleb128 0x1
 4173 09ee 50       		.byte	0x50
 4174 09ef 05       		.uleb128 0x5
 4175 09f0 03       		.byte	0x3
 4176 09f1 70000000 		.4byte	.LC14
 4177 09f5 00       		.byte	0
 4178 09f6 16       		.uleb128 0x16
 4179 09f7 22000000 		.4byte	.LVL139
 4180 09fb 95080000 		.4byte	0x895
 4181 09ff 0A0A0000 		.4byte	0xa0a
 4182 0a03 17       		.uleb128 0x17
 4183 0a04 01       		.uleb128 0x1
 4184 0a05 50       		.byte	0x50
 4185 0a06 02       		.uleb128 0x2
 4186 0a07 74       		.byte	0x74
 4187 0a08 00       		.sleb128 0
 4188 0a09 00       		.byte	0
 4189 0a0a 16       		.uleb128 0x16
 4190 0a0b 34000000 		.4byte	.LVL141
 4191 0a0f F9180000 		.4byte	0x18f9
 4192 0a13 280A0000 		.4byte	0xa28
 4193 0a17 17       		.uleb128 0x17
 4194 0a18 01       		.uleb128 0x1
 4195 0a19 53       		.byte	0x53
 4196 0a1a 01       		.uleb128 0x1
 4197 0a1b 30       		.byte	0x30
 4198 0a1c 17       		.uleb128 0x17
 4199 0a1d 01       		.uleb128 0x1
 4200 0a1e 52       		.byte	0x52
 4201 0a1f 02       		.uleb128 0x2
 4202 0a20 09       		.byte	0x9
 4203 0a21 FF       		.byte	0xff
 4204 0a22 17       		.uleb128 0x17
 4205 0a23 01       		.uleb128 0x1
 4206 0a24 51       		.byte	0x51
 4207 0a25 01       		.uleb128 0x1
 4208 0a26 30       		.byte	0x30
 4209 0a27 00       		.byte	0
 4210 0a28 1B       		.uleb128 0x1b
 4211 0a29 3C000000 		.4byte	.LVL142
 4212 0a2d 28190000 		.4byte	0x1928
 4213 0a31 16       		.uleb128 0x16
 4214 0a32 4E000000 		.4byte	.LVL143
 4215 0a36 F9180000 		.4byte	0x18f9
 4216 0a3a 4F0A0000 		.4byte	0xa4f
ARM GAS  C:\Users\koseki\AppData\Local\Temp\ccT0XNG9.s 			page 100


 4217 0a3e 17       		.uleb128 0x17
 4218 0a3f 01       		.uleb128 0x1
 4219 0a40 53       		.byte	0x53
 4220 0a41 01       		.uleb128 0x1
 4221 0a42 30       		.byte	0x30
 4222 0a43 17       		.uleb128 0x17
 4223 0a44 01       		.uleb128 0x1
 4224 0a45 52       		.byte	0x52
 4225 0a46 01       		.uleb128 0x1
 4226 0a47 30       		.byte	0x30
 4227 0a48 17       		.uleb128 0x17
 4228 0a49 01       		.uleb128 0x1
 4229 0a4a 51       		.byte	0x51
 4230 0a4b 02       		.uleb128 0x2
 4231 0a4c 91       		.byte	0x91
 4232 0a4d 6F       		.sleb128 -17
 4233 0a4e 00       		.byte	0
 4234 0a4f 16       		.uleb128 0x16
 4235 0a50 72000000 		.4byte	.LVL145
 4236 0a54 AF180000 		.4byte	0x18af
 4237 0a58 6F0A0000 		.4byte	0xa6f
 4238 0a5c 17       		.uleb128 0x17
 4239 0a5d 01       		.uleb128 0x1
 4240 0a5e 51       		.byte	0x51
 4241 0a5f 05       		.uleb128 0x5
 4242 0a60 03       		.byte	0x3
 4243 0a61 68000000 		.4byte	.LC13
 4244 0a65 17       		.uleb128 0x17
 4245 0a66 01       		.uleb128 0x1
 4246 0a67 50       		.byte	0x50
 4247 0a68 05       		.uleb128 0x5
 4248 0a69 03       		.byte	0x3
 4249 0a6a 00000000 		.4byte	Freq
 4250 0a6e 00       		.byte	0
 4251 0a6f 1B       		.uleb128 0x1b
 4252 0a70 76000000 		.4byte	.LVL146
 4253 0a74 09070000 		.4byte	0x709
 4254 0a78 16       		.uleb128 0x16
 4255 0a79 86000000 		.4byte	.LVL147
 4256 0a7d F9180000 		.4byte	0x18f9
 4257 0a81 960A0000 		.4byte	0xa96
 4258 0a85 17       		.uleb128 0x17
 4259 0a86 01       		.uleb128 0x1
 4260 0a87 53       		.byte	0x53
 4261 0a88 01       		.uleb128 0x1
 4262 0a89 30       		.byte	0x30
 4263 0a8a 17       		.uleb128 0x17
 4264 0a8b 01       		.uleb128 0x1
 4265 0a8c 52       		.byte	0x52
 4266 0a8d 01       		.uleb128 0x1
 4267 0a8e 30       		.byte	0x30
 4268 0a8f 17       		.uleb128 0x17
 4269 0a90 01       		.uleb128 0x1
 4270 0a91 51       		.byte	0x51
 4271 0a92 02       		.uleb128 0x2
 4272 0a93 91       		.byte	0x91
 4273 0a94 6E       		.sleb128 -18
ARM GAS  C:\Users\koseki\AppData\Local\Temp\ccT0XNG9.s 			page 101


 4274 0a95 00       		.byte	0
 4275 0a96 1B       		.uleb128 0x1b
 4276 0a97 A4000000 		.4byte	.LVL148
 4277 0a9b 95080000 		.4byte	0x895
 4278 0a9f 16       		.uleb128 0x16
 4279 0aa0 B4000000 		.4byte	.LVL149
 4280 0aa4 F9180000 		.4byte	0x18f9
 4281 0aa8 BD0A0000 		.4byte	0xabd
 4282 0aac 17       		.uleb128 0x17
 4283 0aad 01       		.uleb128 0x1
 4284 0aae 53       		.byte	0x53
 4285 0aaf 01       		.uleb128 0x1
 4286 0ab0 30       		.byte	0x30
 4287 0ab1 17       		.uleb128 0x17
 4288 0ab2 01       		.uleb128 0x1
 4289 0ab3 52       		.byte	0x52
 4290 0ab4 01       		.uleb128 0x1
 4291 0ab5 30       		.byte	0x30
 4292 0ab6 17       		.uleb128 0x17
 4293 0ab7 01       		.uleb128 0x1
 4294 0ab8 51       		.byte	0x51
 4295 0ab9 02       		.uleb128 0x2
 4296 0aba 91       		.byte	0x91
 4297 0abb 6E       		.sleb128 -18
 4298 0abc 00       		.byte	0
 4299 0abd 1B       		.uleb128 0x1b
 4300 0abe D2000000 		.4byte	.LVL150
 4301 0ac2 95080000 		.4byte	0x895
 4302 0ac6 16       		.uleb128 0x16
 4303 0ac7 FC000000 		.4byte	.LVL154
 4304 0acb AF180000 		.4byte	0x18af
 4305 0acf E30A0000 		.4byte	0xae3
 4306 0ad3 17       		.uleb128 0x17
 4307 0ad4 01       		.uleb128 0x1
 4308 0ad5 51       		.byte	0x51
 4309 0ad6 05       		.uleb128 0x5
 4310 0ad7 03       		.byte	0x3
 4311 0ad8 74000000 		.4byte	.LC15
 4312 0adc 17       		.uleb128 0x17
 4313 0add 01       		.uleb128 0x1
 4314 0ade 50       		.byte	0x50
 4315 0adf 02       		.uleb128 0x2
 4316 0ae0 7D       		.byte	0x7d
 4317 0ae1 00       		.sleb128 0
 4318 0ae2 00       		.byte	0
 4319 0ae3 16       		.uleb128 0x16
 4320 0ae4 04010000 		.4byte	.LVL155
 4321 0ae8 42180000 		.4byte	0x1842
 4322 0aec FB0A0000 		.4byte	0xafb
 4323 0af0 17       		.uleb128 0x17
 4324 0af1 01       		.uleb128 0x1
 4325 0af2 51       		.byte	0x51
 4326 0af3 01       		.uleb128 0x1
 4327 0af4 3D       		.byte	0x3d
 4328 0af5 17       		.uleb128 0x17
 4329 0af6 01       		.uleb128 0x1
 4330 0af7 50       		.byte	0x50
ARM GAS  C:\Users\koseki\AppData\Local\Temp\ccT0XNG9.s 			page 102


 4331 0af8 01       		.uleb128 0x1
 4332 0af9 31       		.byte	0x31
 4333 0afa 00       		.byte	0
 4334 0afb 16       		.uleb128 0x16
 4335 0afc 0A010000 		.4byte	.LVL156
 4336 0b00 58180000 		.4byte	0x1858
 4337 0b04 0F0B0000 		.4byte	0xb0f
 4338 0b08 17       		.uleb128 0x17
 4339 0b09 01       		.uleb128 0x1
 4340 0b0a 50       		.byte	0x50
 4341 0b0b 02       		.uleb128 0x2
 4342 0b0c 7D       		.byte	0x7d
 4343 0b0d 00       		.sleb128 0
 4344 0b0e 00       		.byte	0
 4345 0b0f 16       		.uleb128 0x16
 4346 0b10 1E010000 		.4byte	.LVL158
 4347 0b14 43190000 		.4byte	0x1943
 4348 0b18 2C0B0000 		.4byte	0xb2c
 4349 0b1c 17       		.uleb128 0x17
 4350 0b1d 01       		.uleb128 0x1
 4351 0b1e 53       		.byte	0x53
 4352 0b1f 01       		.uleb128 0x1
 4353 0b20 30       		.byte	0x30
 4354 0b21 17       		.uleb128 0x17
 4355 0b22 01       		.uleb128 0x1
 4356 0b23 52       		.byte	0x52
 4357 0b24 01       		.uleb128 0x1
 4358 0b25 30       		.byte	0x30
 4359 0b26 17       		.uleb128 0x17
 4360 0b27 01       		.uleb128 0x1
 4361 0b28 51       		.byte	0x51
 4362 0b29 01       		.uleb128 0x1
 4363 0b2a 30       		.byte	0x30
 4364 0b2b 00       		.byte	0
 4365 0b2c 18       		.uleb128 0x18
 4366 0b2d 24010000 		.4byte	.LVL159
 4367 0b31 E8170000 		.4byte	0x17e8
 4368 0b35 17       		.uleb128 0x17
 4369 0b36 01       		.uleb128 0x1
 4370 0b37 50       		.byte	0x50
 4371 0b38 02       		.uleb128 0x2
 4372 0b39 08       		.byte	0x8
 4373 0b3a 64       		.byte	0x64
 4374 0b3b 00       		.byte	0
 4375 0b3c 00       		.byte	0
 4376 0b3d 25       		.uleb128 0x25
 4377 0b3e 97040000 		.4byte	.LASF83
 4378 0b42 01       		.byte	0x1
 4379 0b43 D8       		.byte	0xd8
 4380 0b44 00000000 		.4byte	.LFB65
 4381 0b48 78010000 		.4byte	.LFE65-.LFB65
 4382 0b4c 01       		.uleb128 0x1
 4383 0b4d 9C       		.byte	0x9c
 4384 0b4e 810D0000 		.4byte	0xd81
 4385 0b52 26       		.uleb128 0x26
 4386 0b53 6900     		.ascii	"i\000"
 4387 0b55 01       		.byte	0x1
ARM GAS  C:\Users\koseki\AppData\Local\Temp\ccT0XNG9.s 			page 103


 4388 0b56 DA       		.byte	0xda
 4389 0b57 23010000 		.4byte	0x123
 4390 0b5b A5050000 		.4byte	.LLST27
 4391 0b5f 27       		.uleb128 0x27
 4392 0b60 73747200 		.ascii	"str\000"
 4393 0b64 01       		.byte	0x1
 4394 0b65 DB       		.byte	0xdb
 4395 0b66 3D060000 		.4byte	0x63d
 4396 0b6a 02       		.uleb128 0x2
 4397 0b6b 91       		.byte	0x91
 4398 0b6c 64       		.sleb128 -28
 4399 0b6d 28       		.uleb128 0x28
 4400 0b6e 7700     		.ascii	"w\000"
 4401 0b70 01       		.byte	0x1
 4402 0b71 DC       		.byte	0xdc
 4403 0b72 85080000 		.4byte	0x885
 4404 0b76 16       		.uleb128 0x16
 4405 0b77 0A000000 		.4byte	.LVL160
 4406 0b7b CA180000 		.4byte	0x18ca
 4407 0b7f 8A0B0000 		.4byte	0xb8a
 4408 0b83 17       		.uleb128 0x17
 4409 0b84 01       		.uleb128 0x1
 4410 0b85 50       		.byte	0x50
 4411 0b86 02       		.uleb128 0x2
 4412 0b87 08       		.byte	0x8
 4413 0b88 64       		.byte	0x64
 4414 0b89 00       		.byte	0
 4415 0b8a 1B       		.uleb128 0x1b
 4416 0b8b 0E000000 		.4byte	.LVL161
 4417 0b8f 6D190000 		.4byte	0x196d
 4418 0b93 1B       		.uleb128 0x1b
 4419 0b94 12000000 		.4byte	.LVL162
 4420 0b98 74190000 		.4byte	0x1974
 4421 0b9c 1B       		.uleb128 0x1b
 4422 0b9d 16000000 		.4byte	.LVL163
 4423 0ba1 7B190000 		.4byte	0x197b
 4424 0ba5 1B       		.uleb128 0x1b
 4425 0ba6 1A000000 		.4byte	.LVL164
 4426 0baa 82190000 		.4byte	0x1982
 4427 0bae 1B       		.uleb128 0x1b
 4428 0baf 1E000000 		.4byte	.LVL165
 4429 0bb3 89190000 		.4byte	0x1989
 4430 0bb7 1B       		.uleb128 0x1b
 4431 0bb8 22000000 		.4byte	.LVL166
 4432 0bbc 90190000 		.4byte	0x1990
 4433 0bc0 1B       		.uleb128 0x1b
 4434 0bc1 26000000 		.4byte	.LVL167
 4435 0bc5 97190000 		.4byte	0x1997
 4436 0bc9 1B       		.uleb128 0x1b
 4437 0bca 2A000000 		.4byte	.LVL168
 4438 0bce 9E190000 		.4byte	0x199e
 4439 0bd2 1B       		.uleb128 0x1b
 4440 0bd3 2E000000 		.4byte	.LVL169
 4441 0bd7 A5190000 		.4byte	0x19a5
 4442 0bdb 16       		.uleb128 0x16
 4443 0bdc 34000000 		.4byte	.LVL170
 4444 0be0 AC190000 		.4byte	0x19ac
ARM GAS  C:\Users\koseki\AppData\Local\Temp\ccT0XNG9.s 			page 104


 4445 0be4 F20B0000 		.4byte	0xbf2
 4446 0be8 17       		.uleb128 0x17
 4447 0be9 01       		.uleb128 0x1
 4448 0bea 50       		.byte	0x50
 4449 0beb 05       		.uleb128 0x5
 4450 0bec 03       		.byte	0x3
 4451 0bed 00000000 		.4byte	ADC_ISR_Handler
 4452 0bf1 00       		.byte	0
 4453 0bf2 1B       		.uleb128 0x1b
 4454 0bf3 38000000 		.4byte	.LVL171
 4455 0bf7 BD190000 		.4byte	0x19bd
 4456 0bfb 16       		.uleb128 0x16
 4457 0bfc 3E000000 		.4byte	.LVL172
 4458 0c00 CA180000 		.4byte	0x18ca
 4459 0c04 0F0C0000 		.4byte	0xc0f
 4460 0c08 17       		.uleb128 0x17
 4461 0c09 01       		.uleb128 0x1
 4462 0c0a 50       		.byte	0x50
 4463 0c0b 02       		.uleb128 0x2
 4464 0c0c 08       		.byte	0x8
 4465 0c0d 64       		.byte	0x64
 4466 0c0e 00       		.byte	0
 4467 0c0f 16       		.uleb128 0x16
 4468 0c10 44000000 		.4byte	.LVL173
 4469 0c14 C4190000 		.4byte	0x19c4
 4470 0c18 220C0000 		.4byte	0xc22
 4471 0c1c 17       		.uleb128 0x17
 4472 0c1d 01       		.uleb128 0x1
 4473 0c1e 50       		.byte	0x50
 4474 0c1f 01       		.uleb128 0x1
 4475 0c20 30       		.byte	0x30
 4476 0c21 00       		.byte	0
 4477 0c22 16       		.uleb128 0x16
 4478 0c23 4A000000 		.4byte	.LVL174
 4479 0c27 C4190000 		.4byte	0x19c4
 4480 0c2b 350C0000 		.4byte	0xc35
 4481 0c2f 17       		.uleb128 0x17
 4482 0c30 01       		.uleb128 0x1
 4483 0c31 50       		.byte	0x50
 4484 0c32 01       		.uleb128 0x1
 4485 0c33 31       		.byte	0x31
 4486 0c34 00       		.byte	0
 4487 0c35 16       		.uleb128 0x16
 4488 0c36 54000000 		.4byte	.LVL175
 4489 0c3a 4D060000 		.4byte	0x64d
 4490 0c3e 480C0000 		.4byte	0xc48
 4491 0c42 17       		.uleb128 0x17
 4492 0c43 01       		.uleb128 0x1
 4493 0c44 50       		.byte	0x50
 4494 0c45 01       		.uleb128 0x1
 4495 0c46 31       		.byte	0x31
 4496 0c47 00       		.byte	0
 4497 0c48 16       		.uleb128 0x16
 4498 0c49 6C000000 		.4byte	.LVL176
 4499 0c4d 93180000 		.4byte	0x1893
 4500 0c51 5B0C0000 		.4byte	0xc5b
 4501 0c55 17       		.uleb128 0x17
ARM GAS  C:\Users\koseki\AppData\Local\Temp\ccT0XNG9.s 			page 105


 4502 0c56 01       		.uleb128 0x1
 4503 0c57 50       		.byte	0x50
 4504 0c58 01       		.uleb128 0x1
 4505 0c59 30       		.byte	0x30
 4506 0c5a 00       		.byte	0
 4507 0c5b 16       		.uleb128 0x16
 4508 0c5c 72000000 		.4byte	.LVL177
 4509 0c60 93180000 		.4byte	0x1893
 4510 0c64 6E0C0000 		.4byte	0xc6e
 4511 0c68 17       		.uleb128 0x17
 4512 0c69 01       		.uleb128 0x1
 4513 0c6a 50       		.byte	0x50
 4514 0c6b 01       		.uleb128 0x1
 4515 0c6c 30       		.byte	0x30
 4516 0c6d 00       		.byte	0
 4517 0c6e 16       		.uleb128 0x16
 4518 0c6f 78000000 		.4byte	.LVL178
 4519 0c73 93180000 		.4byte	0x1893
 4520 0c77 810C0000 		.4byte	0xc81
 4521 0c7b 17       		.uleb128 0x17
 4522 0c7c 01       		.uleb128 0x1
 4523 0c7d 50       		.byte	0x50
 4524 0c7e 01       		.uleb128 0x1
 4525 0c7f 30       		.byte	0x30
 4526 0c80 00       		.byte	0
 4527 0c81 16       		.uleb128 0x16
 4528 0c82 7E000000 		.4byte	.LVL179
 4529 0c86 93180000 		.4byte	0x1893
 4530 0c8a 940C0000 		.4byte	0xc94
 4531 0c8e 17       		.uleb128 0x17
 4532 0c8f 01       		.uleb128 0x1
 4533 0c90 50       		.byte	0x50
 4534 0c91 01       		.uleb128 0x1
 4535 0c92 30       		.byte	0x30
 4536 0c93 00       		.byte	0
 4537 0c94 16       		.uleb128 0x16
 4538 0c95 84000000 		.4byte	.LVL180
 4539 0c99 93180000 		.4byte	0x1893
 4540 0c9d A70C0000 		.4byte	0xca7
 4541 0ca1 17       		.uleb128 0x17
 4542 0ca2 01       		.uleb128 0x1
 4543 0ca3 50       		.byte	0x50
 4544 0ca4 01       		.uleb128 0x1
 4545 0ca5 30       		.byte	0x30
 4546 0ca6 00       		.byte	0
 4547 0ca7 1B       		.uleb128 0x1b
 4548 0ca8 88000000 		.4byte	.LVL181
 4549 0cac D5190000 		.4byte	0x19d5
 4550 0cb0 16       		.uleb128 0x16
 4551 0cb1 8E000000 		.4byte	.LVL182
 4552 0cb5 CA180000 		.4byte	0x18ca
 4553 0cb9 C40C0000 		.4byte	0xcc4
 4554 0cbd 17       		.uleb128 0x17
 4555 0cbe 01       		.uleb128 0x1
 4556 0cbf 50       		.byte	0x50
 4557 0cc0 02       		.uleb128 0x2
 4558 0cc1 08       		.byte	0x8
ARM GAS  C:\Users\koseki\AppData\Local\Temp\ccT0XNG9.s 			page 106


 4559 0cc2 64       		.byte	0x64
 4560 0cc3 00       		.byte	0
 4561 0cc4 1B       		.uleb128 0x1b
 4562 0cc5 B0000000 		.4byte	.LVL186
 4563 0cc9 DC190000 		.4byte	0x19dc
 4564 0ccd 16       		.uleb128 0x16
 4565 0cce B8000000 		.4byte	.LVL187
 4566 0cd2 E7190000 		.4byte	0x19e7
 4567 0cd6 E90C0000 		.4byte	0xce9
 4568 0cda 17       		.uleb128 0x17
 4569 0cdb 01       		.uleb128 0x1
 4570 0cdc 51       		.byte	0x51
 4571 0cdd 01       		.uleb128 0x1
 4572 0cde 30       		.byte	0x30
 4573 0cdf 17       		.uleb128 0x17
 4574 0ce0 01       		.uleb128 0x1
 4575 0ce1 50       		.byte	0x50
 4576 0ce2 05       		.uleb128 0x5
 4577 0ce3 03       		.byte	0x3
 4578 0ce4 7C000000 		.4byte	.LC16
 4579 0ce8 00       		.byte	0
 4580 0ce9 16       		.uleb128 0x16
 4581 0cea C0000000 		.4byte	.LVL188
 4582 0cee E7190000 		.4byte	0x19e7
 4583 0cf2 050D0000 		.4byte	0xd05
 4584 0cf6 17       		.uleb128 0x17
 4585 0cf7 01       		.uleb128 0x1
 4586 0cf8 51       		.byte	0x51
 4587 0cf9 01       		.uleb128 0x1
 4588 0cfa 31       		.byte	0x31
 4589 0cfb 17       		.uleb128 0x17
 4590 0cfc 01       		.uleb128 0x1
 4591 0cfd 50       		.byte	0x50
 4592 0cfe 05       		.uleb128 0x5
 4593 0cff 03       		.byte	0x3
 4594 0d00 88000000 		.4byte	.LC17
 4595 0d04 00       		.byte	0
 4596 0d05 16       		.uleb128 0x16
 4597 0d06 CC000000 		.4byte	.LVL189
 4598 0d0a CA180000 		.4byte	0x18ca
 4599 0d0e 190D0000 		.4byte	0xd19
 4600 0d12 17       		.uleb128 0x17
 4601 0d13 01       		.uleb128 0x1
 4602 0d14 50       		.byte	0x50
 4603 0d15 02       		.uleb128 0x2
 4604 0d16 08       		.byte	0x8
 4605 0d17 C8       		.byte	0xc8
 4606 0d18 00       		.byte	0
 4607 0d19 16       		.uleb128 0x16
 4608 0d1a EA000000 		.4byte	.LVL193
 4609 0d1e AA060000 		.4byte	0x6aa
 4610 0d22 300D0000 		.4byte	0xd30
 4611 0d26 17       		.uleb128 0x17
 4612 0d27 01       		.uleb128 0x1
 4613 0d28 50       		.byte	0x50
 4614 0d29 05       		.uleb128 0x5
 4615 0d2a 03       		.byte	0x3
ARM GAS  C:\Users\koseki\AppData\Local\Temp\ccT0XNG9.s 			page 107


 4616 0d2b 00000000 		.4byte	FREQ_ERROR
 4617 0d2f 00       		.byte	0
 4618 0d30 1B       		.uleb128 0x1b
 4619 0d31 10010000 		.4byte	.LVL194
 4620 0d35 09070000 		.4byte	0x709
 4621 0d39 16       		.uleb128 0x16
 4622 0d3a 26010000 		.4byte	.LVL195
 4623 0d3e AF180000 		.4byte	0x18af
 4624 0d42 560D0000 		.4byte	0xd56
 4625 0d46 17       		.uleb128 0x17
 4626 0d47 01       		.uleb128 0x1
 4627 0d48 51       		.byte	0x51
 4628 0d49 05       		.uleb128 0x5
 4629 0d4a 03       		.byte	0x3
 4630 0d4b 9C000000 		.4byte	.LC19
 4631 0d4f 17       		.uleb128 0x17
 4632 0d50 01       		.uleb128 0x1
 4633 0d51 50       		.byte	0x50
 4634 0d52 02       		.uleb128 0x2
 4635 0d53 91       		.byte	0x91
 4636 0d54 64       		.sleb128 -28
 4637 0d55 00       		.byte	0
 4638 0d56 16       		.uleb128 0x16
 4639 0d57 2E010000 		.4byte	.LVL196
 4640 0d5b 42180000 		.4byte	0x1842
 4641 0d5f 700D0000 		.4byte	0xd70
 4642 0d63 17       		.uleb128 0x17
 4643 0d64 01       		.uleb128 0x1
 4644 0d65 51       		.byte	0x51
 4645 0d66 02       		.uleb128 0x2
 4646 0d67 74       		.byte	0x74
 4647 0d68 00       		.sleb128 0
 4648 0d69 17       		.uleb128 0x17
 4649 0d6a 01       		.uleb128 0x1
 4650 0d6b 50       		.byte	0x50
 4651 0d6c 02       		.uleb128 0x2
 4652 0d6d 74       		.byte	0x74
 4653 0d6e 00       		.sleb128 0
 4654 0d6f 00       		.byte	0
 4655 0d70 18       		.uleb128 0x18
 4656 0d71 34010000 		.4byte	.LVL197
 4657 0d75 58180000 		.4byte	0x1858
 4658 0d79 17       		.uleb128 0x17
 4659 0d7a 01       		.uleb128 0x1
 4660 0d7b 50       		.byte	0x50
 4661 0d7c 02       		.uleb128 0x2
 4662 0d7d 91       		.byte	0x91
 4663 0d7e 64       		.sleb128 -28
 4664 0d7f 00       		.byte	0
 4665 0d80 00       		.byte	0
 4666 0d81 29       		.uleb128 0x29
 4667 0d82 8B090000 		.4byte	.LASF84
 4668 0d86 01       		.byte	0x1
 4669 0d87 B4       		.byte	0xb4
 4670 0d88 25000000 		.4byte	0x25
 4671 0d8c 00000000 		.4byte	.LFB64
 4672 0d90 20010000 		.4byte	.LFE64-.LFB64
ARM GAS  C:\Users\koseki\AppData\Local\Temp\ccT0XNG9.s 			page 108


 4673 0d94 01       		.uleb128 0x1
 4674 0d95 9C       		.byte	0x9c
 4675 0d96 F30F0000 		.4byte	0xff3
 4676 0d9a 1B       		.uleb128 0x1b
 4677 0d9b 08000000 		.4byte	.LVL198
 4678 0d9f 14040000 		.4byte	0x414
 4679 0da3 1B       		.uleb128 0x1b
 4680 0da4 0C000000 		.4byte	.LVL199
 4681 0da8 3D0B0000 		.4byte	0xb3d
 4682 0dac 16       		.uleb128 0x16
 4683 0dad 12000000 		.4byte	.LVL200
 4684 0db1 0C1A0000 		.4byte	0x1a0c
 4685 0db5 BF0D0000 		.4byte	0xdbf
 4686 0db9 17       		.uleb128 0x17
 4687 0dba 01       		.uleb128 0x1
 4688 0dbb 50       		.byte	0x50
 4689 0dbc 01       		.uleb128 0x1
 4690 0dbd 31       		.byte	0x31
 4691 0dbe 00       		.byte	0
 4692 0dbf 16       		.uleb128 0x16
 4693 0dc0 20000000 		.4byte	.LVL201
 4694 0dc4 271A0000 		.4byte	0x1a27
 4695 0dc8 DC0D0000 		.4byte	0xddc
 4696 0dcc 17       		.uleb128 0x17
 4697 0dcd 01       		.uleb128 0x1
 4698 0dce 52       		.byte	0x52
 4699 0dcf 01       		.uleb128 0x1
 4700 0dd0 30       		.byte	0x30
 4701 0dd1 17       		.uleb128 0x17
 4702 0dd2 01       		.uleb128 0x1
 4703 0dd3 51       		.byte	0x51
 4704 0dd4 01       		.uleb128 0x1
 4705 0dd5 31       		.byte	0x31
 4706 0dd6 17       		.uleb128 0x17
 4707 0dd7 01       		.uleb128 0x1
 4708 0dd8 50       		.byte	0x50
 4709 0dd9 01       		.uleb128 0x1
 4710 0dda 38       		.byte	0x38
 4711 0ddb 00       		.byte	0
 4712 0ddc 16       		.uleb128 0x16
 4713 0ddd 2E000000 		.4byte	.LVL202
 4714 0de1 271A0000 		.4byte	0x1a27
 4715 0de5 F90D0000 		.4byte	0xdf9
 4716 0de9 17       		.uleb128 0x17
 4717 0dea 01       		.uleb128 0x1
 4718 0deb 52       		.byte	0x52
 4719 0dec 01       		.uleb128 0x1
 4720 0ded 30       		.byte	0x30
 4721 0dee 17       		.uleb128 0x17
 4722 0def 01       		.uleb128 0x1
 4723 0df0 51       		.byte	0x51
 4724 0df1 01       		.uleb128 0x1
 4725 0df2 31       		.byte	0x31
 4726 0df3 17       		.uleb128 0x17
 4727 0df4 01       		.uleb128 0x1
 4728 0df5 50       		.byte	0x50
 4729 0df6 01       		.uleb128 0x1
ARM GAS  C:\Users\koseki\AppData\Local\Temp\ccT0XNG9.s 			page 109


 4730 0df7 31       		.byte	0x31
 4731 0df8 00       		.byte	0
 4732 0df9 16       		.uleb128 0x16
 4733 0dfa 3C000000 		.4byte	.LVL203
 4734 0dfe 271A0000 		.4byte	0x1a27
 4735 0e02 160E0000 		.4byte	0xe16
 4736 0e06 17       		.uleb128 0x17
 4737 0e07 01       		.uleb128 0x1
 4738 0e08 52       		.byte	0x52
 4739 0e09 01       		.uleb128 0x1
 4740 0e0a 30       		.byte	0x30
 4741 0e0b 17       		.uleb128 0x17
 4742 0e0c 01       		.uleb128 0x1
 4743 0e0d 51       		.byte	0x51
 4744 0e0e 01       		.uleb128 0x1
 4745 0e0f 31       		.byte	0x31
 4746 0e10 17       		.uleb128 0x17
 4747 0e11 01       		.uleb128 0x1
 4748 0e12 50       		.byte	0x50
 4749 0e13 01       		.uleb128 0x1
 4750 0e14 31       		.byte	0x31
 4751 0e15 00       		.byte	0
 4752 0e16 16       		.uleb128 0x16
 4753 0e17 48000000 		.4byte	.LVL204
 4754 0e1b 271A0000 		.4byte	0x1a27
 4755 0e1f 330E0000 		.4byte	0xe33
 4756 0e23 17       		.uleb128 0x17
 4757 0e24 01       		.uleb128 0x1
 4758 0e25 52       		.byte	0x52
 4759 0e26 01       		.uleb128 0x1
 4760 0e27 30       		.byte	0x30
 4761 0e28 17       		.uleb128 0x17
 4762 0e29 01       		.uleb128 0x1
 4763 0e2a 51       		.byte	0x51
 4764 0e2b 01       		.uleb128 0x1
 4765 0e2c 31       		.byte	0x31
 4766 0e2d 17       		.uleb128 0x17
 4767 0e2e 01       		.uleb128 0x1
 4768 0e2f 50       		.byte	0x50
 4769 0e30 01       		.uleb128 0x1
 4770 0e31 31       		.byte	0x31
 4771 0e32 00       		.byte	0
 4772 0e33 16       		.uleb128 0x16
 4773 0e34 54000000 		.4byte	.LVL205
 4774 0e38 CA180000 		.4byte	0x18ca
 4775 0e3c 480E0000 		.4byte	0xe48
 4776 0e40 17       		.uleb128 0x17
 4777 0e41 01       		.uleb128 0x1
 4778 0e42 50       		.byte	0x50
 4779 0e43 03       		.uleb128 0x3
 4780 0e44 0A       		.byte	0xa
 4781 0e45 E803     		.2byte	0x3e8
 4782 0e47 00       		.byte	0
 4783 0e48 16       		.uleb128 0x16
 4784 0e49 6C000000 		.4byte	.LVL206
 4785 0e4d 4C1A0000 		.4byte	0x1a4c
 4786 0e51 900E0000 		.4byte	0xe90
ARM GAS  C:\Users\koseki\AppData\Local\Temp\ccT0XNG9.s 			page 110


 4787 0e55 17       		.uleb128 0x17
 4788 0e56 01       		.uleb128 0x1
 4789 0e57 53       		.byte	0x53
 4790 0e58 02       		.uleb128 0x2
 4791 0e59 74       		.byte	0x74
 4792 0e5a 00       		.sleb128 0
 4793 0e5b 17       		.uleb128 0x17
 4794 0e5c 01       		.uleb128 0x1
 4795 0e5d 52       		.byte	0x52
 4796 0e5e 02       		.uleb128 0x2
 4797 0e5f 08       		.byte	0x8
 4798 0e60 80       		.byte	0x80
 4799 0e61 17       		.uleb128 0x17
 4800 0e62 01       		.uleb128 0x1
 4801 0e63 51       		.byte	0x51
 4802 0e64 05       		.uleb128 0x5
 4803 0e65 03       		.byte	0x3
 4804 0e66 A0000000 		.4byte	.LC20
 4805 0e6a 17       		.uleb128 0x17
 4806 0e6b 01       		.uleb128 0x1
 4807 0e6c 50       		.byte	0x50
 4808 0e6d 05       		.uleb128 0x5
 4809 0e6e 03       		.byte	0x3
 4810 0e6f 00000000 		.4byte	Task_LED
 4811 0e73 17       		.uleb128 0x17
 4812 0e74 02       		.uleb128 0x2
 4813 0e75 7D       		.byte	0x7d
 4814 0e76 0C       		.sleb128 12
 4815 0e77 02       		.uleb128 0x2
 4816 0e78 74       		.byte	0x74
 4817 0e79 00       		.sleb128 0
 4818 0e7a 17       		.uleb128 0x17
 4819 0e7b 02       		.uleb128 0x2
 4820 0e7c 7D       		.byte	0x7d
 4821 0e7d 08       		.sleb128 8
 4822 0e7e 02       		.uleb128 0x2
 4823 0e7f 74       		.byte	0x74
 4824 0e80 00       		.sleb128 0
 4825 0e81 17       		.uleb128 0x17
 4826 0e82 02       		.uleb128 0x2
 4827 0e83 7D       		.byte	0x7d
 4828 0e84 04       		.sleb128 4
 4829 0e85 02       		.uleb128 0x2
 4830 0e86 74       		.byte	0x74
 4831 0e87 00       		.sleb128 0
 4832 0e88 17       		.uleb128 0x17
 4833 0e89 02       		.uleb128 0x2
 4834 0e8a 7D       		.byte	0x7d
 4835 0e8b 00       		.sleb128 0
 4836 0e8c 02       		.uleb128 0x2
 4837 0e8d 75       		.byte	0x75
 4838 0e8e 00       		.sleb128 0
 4839 0e8f 00       		.byte	0
 4840 0e90 16       		.uleb128 0x16
 4841 0e91 80000000 		.4byte	.LVL207
 4842 0e95 4C1A0000 		.4byte	0x1a4c
 4843 0e99 CF0E0000 		.4byte	0xecf
ARM GAS  C:\Users\koseki\AppData\Local\Temp\ccT0XNG9.s 			page 111


 4844 0e9d 17       		.uleb128 0x17
 4845 0e9e 01       		.uleb128 0x1
 4846 0e9f 53       		.byte	0x53
 4847 0ea0 02       		.uleb128 0x2
 4848 0ea1 74       		.byte	0x74
 4849 0ea2 00       		.sleb128 0
 4850 0ea3 17       		.uleb128 0x17
 4851 0ea4 01       		.uleb128 0x1
 4852 0ea5 52       		.byte	0x52
 4853 0ea6 02       		.uleb128 0x2
 4854 0ea7 08       		.byte	0x8
 4855 0ea8 80       		.byte	0x80
 4856 0ea9 17       		.uleb128 0x17
 4857 0eaa 01       		.uleb128 0x1
 4858 0eab 51       		.byte	0x51
 4859 0eac 05       		.uleb128 0x5
 4860 0ead 03       		.byte	0x3
 4861 0eae A4000000 		.4byte	.LC21
 4862 0eb2 17       		.uleb128 0x17
 4863 0eb3 02       		.uleb128 0x2
 4864 0eb4 7D       		.byte	0x7d
 4865 0eb5 0C       		.sleb128 12
 4866 0eb6 02       		.uleb128 0x2
 4867 0eb7 74       		.byte	0x74
 4868 0eb8 00       		.sleb128 0
 4869 0eb9 17       		.uleb128 0x17
 4870 0eba 02       		.uleb128 0x2
 4871 0ebb 7D       		.byte	0x7d
 4872 0ebc 08       		.sleb128 8
 4873 0ebd 02       		.uleb128 0x2
 4874 0ebe 74       		.byte	0x74
 4875 0ebf 00       		.sleb128 0
 4876 0ec0 17       		.uleb128 0x17
 4877 0ec1 02       		.uleb128 0x2
 4878 0ec2 7D       		.byte	0x7d
 4879 0ec3 04       		.sleb128 4
 4880 0ec4 02       		.uleb128 0x2
 4881 0ec5 74       		.byte	0x74
 4882 0ec6 00       		.sleb128 0
 4883 0ec7 17       		.uleb128 0x17
 4884 0ec8 02       		.uleb128 0x2
 4885 0ec9 7D       		.byte	0x7d
 4886 0eca 00       		.sleb128 0
 4887 0ecb 02       		.uleb128 0x2
 4888 0ecc 75       		.byte	0x75
 4889 0ecd 00       		.sleb128 0
 4890 0ece 00       		.byte	0
 4891 0ecf 16       		.uleb128 0x16
 4892 0ed0 94000000 		.4byte	.LVL208
 4893 0ed4 4C1A0000 		.4byte	0x1a4c
 4894 0ed8 0E0F0000 		.4byte	0xf0e
 4895 0edc 17       		.uleb128 0x17
 4896 0edd 01       		.uleb128 0x1
 4897 0ede 53       		.byte	0x53
 4898 0edf 02       		.uleb128 0x2
 4899 0ee0 74       		.byte	0x74
 4900 0ee1 00       		.sleb128 0
ARM GAS  C:\Users\koseki\AppData\Local\Temp\ccT0XNG9.s 			page 112


 4901 0ee2 17       		.uleb128 0x17
 4902 0ee3 01       		.uleb128 0x1
 4903 0ee4 52       		.byte	0x52
 4904 0ee5 02       		.uleb128 0x2
 4905 0ee6 08       		.byte	0x8
 4906 0ee7 80       		.byte	0x80
 4907 0ee8 17       		.uleb128 0x17
 4908 0ee9 01       		.uleb128 0x1
 4909 0eea 51       		.byte	0x51
 4910 0eeb 05       		.uleb128 0x5
 4911 0eec 03       		.byte	0x3
 4912 0eed A8000000 		.4byte	.LC22
 4913 0ef1 17       		.uleb128 0x17
 4914 0ef2 02       		.uleb128 0x2
 4915 0ef3 7D       		.byte	0x7d
 4916 0ef4 0C       		.sleb128 12
 4917 0ef5 02       		.uleb128 0x2
 4918 0ef6 74       		.byte	0x74
 4919 0ef7 00       		.sleb128 0
 4920 0ef8 17       		.uleb128 0x17
 4921 0ef9 02       		.uleb128 0x2
 4922 0efa 7D       		.byte	0x7d
 4923 0efb 08       		.sleb128 8
 4924 0efc 02       		.uleb128 0x2
 4925 0efd 74       		.byte	0x74
 4926 0efe 00       		.sleb128 0
 4927 0eff 17       		.uleb128 0x17
 4928 0f00 02       		.uleb128 0x2
 4929 0f01 7D       		.byte	0x7d
 4930 0f02 04       		.sleb128 4
 4931 0f03 02       		.uleb128 0x2
 4932 0f04 74       		.byte	0x74
 4933 0f05 00       		.sleb128 0
 4934 0f06 17       		.uleb128 0x17
 4935 0f07 02       		.uleb128 0x2
 4936 0f08 7D       		.byte	0x7d
 4937 0f09 00       		.sleb128 0
 4938 0f0a 02       		.uleb128 0x2
 4939 0f0b 75       		.byte	0x75
 4940 0f0c 00       		.sleb128 0
 4941 0f0d 00       		.byte	0
 4942 0f0e 16       		.uleb128 0x16
 4943 0f0f AC000000 		.4byte	.LVL209
 4944 0f13 4C1A0000 		.4byte	0x1a4c
 4945 0f17 570F0000 		.4byte	0xf57
 4946 0f1b 17       		.uleb128 0x17
 4947 0f1c 01       		.uleb128 0x1
 4948 0f1d 53       		.byte	0x53
 4949 0f1e 02       		.uleb128 0x2
 4950 0f1f 74       		.byte	0x74
 4951 0f20 00       		.sleb128 0
 4952 0f21 17       		.uleb128 0x17
 4953 0f22 01       		.uleb128 0x1
 4954 0f23 52       		.byte	0x52
 4955 0f24 03       		.uleb128 0x3
 4956 0f25 0A       		.byte	0xa
 4957 0f26 0002     		.2byte	0x200
ARM GAS  C:\Users\koseki\AppData\Local\Temp\ccT0XNG9.s 			page 113


 4958 0f28 17       		.uleb128 0x17
 4959 0f29 01       		.uleb128 0x1
 4960 0f2a 51       		.byte	0x51
 4961 0f2b 05       		.uleb128 0x5
 4962 0f2c 03       		.byte	0x3
 4963 0f2d AC000000 		.4byte	.LC23
 4964 0f31 17       		.uleb128 0x17
 4965 0f32 01       		.uleb128 0x1
 4966 0f33 50       		.byte	0x50
 4967 0f34 05       		.uleb128 0x5
 4968 0f35 03       		.byte	0x3
 4969 0f36 00000000 		.4byte	Task_CLCD
 4970 0f3a 17       		.uleb128 0x17
 4971 0f3b 02       		.uleb128 0x2
 4972 0f3c 7D       		.byte	0x7d
 4973 0f3d 0C       		.sleb128 12
 4974 0f3e 02       		.uleb128 0x2
 4975 0f3f 74       		.byte	0x74
 4976 0f40 00       		.sleb128 0
 4977 0f41 17       		.uleb128 0x17
 4978 0f42 02       		.uleb128 0x2
 4979 0f43 7D       		.byte	0x7d
 4980 0f44 08       		.sleb128 8
 4981 0f45 02       		.uleb128 0x2
 4982 0f46 74       		.byte	0x74
 4983 0f47 00       		.sleb128 0
 4984 0f48 17       		.uleb128 0x17
 4985 0f49 02       		.uleb128 0x2
 4986 0f4a 7D       		.byte	0x7d
 4987 0f4b 04       		.sleb128 4
 4988 0f4c 02       		.uleb128 0x2
 4989 0f4d 74       		.byte	0x74
 4990 0f4e 00       		.sleb128 0
 4991 0f4f 17       		.uleb128 0x17
 4992 0f50 02       		.uleb128 0x2
 4993 0f51 7D       		.byte	0x7d
 4994 0f52 00       		.sleb128 0
 4995 0f53 02       		.uleb128 0x2
 4996 0f54 75       		.byte	0x75
 4997 0f55 00       		.sleb128 0
 4998 0f56 00       		.byte	0
 4999 0f57 16       		.uleb128 0x16
 5000 0f58 C2000000 		.4byte	.LVL210
 5001 0f5c 4C1A0000 		.4byte	0x1a4c
 5002 0f60 A00F0000 		.4byte	0xfa0
 5003 0f64 17       		.uleb128 0x17
 5004 0f65 01       		.uleb128 0x1
 5005 0f66 53       		.byte	0x53
 5006 0f67 02       		.uleb128 0x2
 5007 0f68 74       		.byte	0x74
 5008 0f69 00       		.sleb128 0
 5009 0f6a 17       		.uleb128 0x17
 5010 0f6b 01       		.uleb128 0x1
 5011 0f6c 52       		.byte	0x52
 5012 0f6d 03       		.uleb128 0x3
 5013 0f6e 0A       		.byte	0xa
 5014 0f6f 0002     		.2byte	0x200
ARM GAS  C:\Users\koseki\AppData\Local\Temp\ccT0XNG9.s 			page 114


 5015 0f71 17       		.uleb128 0x17
 5016 0f72 01       		.uleb128 0x1
 5017 0f73 51       		.byte	0x51
 5018 0f74 05       		.uleb128 0x5
 5019 0f75 03       		.byte	0x3
 5020 0f76 B4000000 		.4byte	.LC24
 5021 0f7a 17       		.uleb128 0x17
 5022 0f7b 01       		.uleb128 0x1
 5023 0f7c 50       		.byte	0x50
 5024 0f7d 05       		.uleb128 0x5
 5025 0f7e 03       		.byte	0x3
 5026 0f7f 00000000 		.4byte	Task_USBUART
 5027 0f83 17       		.uleb128 0x17
 5028 0f84 02       		.uleb128 0x2
 5029 0f85 7D       		.byte	0x7d
 5030 0f86 0C       		.sleb128 12
 5031 0f87 02       		.uleb128 0x2
 5032 0f88 74       		.byte	0x74
 5033 0f89 00       		.sleb128 0
 5034 0f8a 17       		.uleb128 0x17
 5035 0f8b 02       		.uleb128 0x2
 5036 0f8c 7D       		.byte	0x7d
 5037 0f8d 08       		.sleb128 8
 5038 0f8e 02       		.uleb128 0x2
 5039 0f8f 74       		.byte	0x74
 5040 0f90 00       		.sleb128 0
 5041 0f91 17       		.uleb128 0x17
 5042 0f92 02       		.uleb128 0x2
 5043 0f93 7D       		.byte	0x7d
 5044 0f94 04       		.sleb128 4
 5045 0f95 02       		.uleb128 0x2
 5046 0f96 74       		.byte	0x74
 5047 0f97 00       		.sleb128 0
 5048 0f98 17       		.uleb128 0x17
 5049 0f99 02       		.uleb128 0x2
 5050 0f9a 7D       		.byte	0x7d
 5051 0f9b 00       		.sleb128 0
 5052 0f9c 02       		.uleb128 0x2
 5053 0f9d 75       		.byte	0x75
 5054 0f9e 00       		.sleb128 0
 5055 0f9f 00       		.byte	0
 5056 0fa0 16       		.uleb128 0x16
 5057 0fa1 D8000000 		.4byte	.LVL211
 5058 0fa5 4C1A0000 		.4byte	0x1a4c
 5059 0fa9 E90F0000 		.4byte	0xfe9
 5060 0fad 17       		.uleb128 0x17
 5061 0fae 01       		.uleb128 0x1
 5062 0faf 53       		.byte	0x53
 5063 0fb0 02       		.uleb128 0x2
 5064 0fb1 74       		.byte	0x74
 5065 0fb2 00       		.sleb128 0
 5066 0fb3 17       		.uleb128 0x17
 5067 0fb4 01       		.uleb128 0x1
 5068 0fb5 52       		.byte	0x52
 5069 0fb6 03       		.uleb128 0x3
 5070 0fb7 0A       		.byte	0xa
 5071 0fb8 0002     		.2byte	0x200
ARM GAS  C:\Users\koseki\AppData\Local\Temp\ccT0XNG9.s 			page 115


 5072 0fba 17       		.uleb128 0x17
 5073 0fbb 01       		.uleb128 0x1
 5074 0fbc 51       		.byte	0x51
 5075 0fbd 05       		.uleb128 0x5
 5076 0fbe 03       		.byte	0x3
 5077 0fbf BC000000 		.4byte	.LC25
 5078 0fc3 17       		.uleb128 0x17
 5079 0fc4 01       		.uleb128 0x1
 5080 0fc5 50       		.byte	0x50
 5081 0fc6 05       		.uleb128 0x5
 5082 0fc7 03       		.byte	0x3
 5083 0fc8 00000000 		.4byte	Task_RADIO
 5084 0fcc 17       		.uleb128 0x17
 5085 0fcd 02       		.uleb128 0x2
 5086 0fce 7D       		.byte	0x7d
 5087 0fcf 0C       		.sleb128 12
 5088 0fd0 02       		.uleb128 0x2
 5089 0fd1 74       		.byte	0x74
 5090 0fd2 00       		.sleb128 0
 5091 0fd3 17       		.uleb128 0x17
 5092 0fd4 02       		.uleb128 0x2
 5093 0fd5 7D       		.byte	0x7d
 5094 0fd6 08       		.sleb128 8
 5095 0fd7 02       		.uleb128 0x2
 5096 0fd8 74       		.byte	0x74
 5097 0fd9 00       		.sleb128 0
 5098 0fda 17       		.uleb128 0x17
 5099 0fdb 02       		.uleb128 0x2
 5100 0fdc 7D       		.byte	0x7d
 5101 0fdd 04       		.sleb128 4
 5102 0fde 02       		.uleb128 0x2
 5103 0fdf 74       		.byte	0x74
 5104 0fe0 00       		.sleb128 0
 5105 0fe1 17       		.uleb128 0x17
 5106 0fe2 02       		.uleb128 0x2
 5107 0fe3 7D       		.byte	0x7d
 5108 0fe4 00       		.sleb128 0
 5109 0fe5 02       		.uleb128 0x2
 5110 0fe6 75       		.byte	0x75
 5111 0fe7 00       		.sleb128 0
 5112 0fe8 00       		.byte	0
 5113 0fe9 1B       		.uleb128 0x1b
 5114 0fea DC000000 		.4byte	.LVL212
 5115 0fee AA1A0000 		.4byte	0x1aaa
 5116 0ff2 00       		.byte	0
 5117 0ff3 13       		.uleb128 0x13
 5118 0ff4 CE080000 		.4byte	.LASF85
 5119 0ff8 01       		.byte	0x1
 5120 0ff9 FD02     		.2byte	0x2fd
 5121 0ffb 00000000 		.4byte	.LFB78
 5122 0fff 98010000 		.4byte	.LFE78-.LFB78
 5123 1003 01       		.uleb128 0x1
 5124 1004 9C       		.byte	0x9c
 5125 1005 D2100000 		.4byte	0x10d2
 5126 1009 19       		.uleb128 0x19
 5127 100a C5010000 		.4byte	.LASF86
 5128 100e 01       		.byte	0x1
ARM GAS  C:\Users\koseki\AppData\Local\Temp\ccT0XNG9.s 			page 116


 5129 100f FF02     		.2byte	0x2ff
 5130 1011 0B010000 		.4byte	0x10b
 5131 1015 DB050000 		.4byte	.LLST28
 5132 1019 1A       		.uleb128 0x1a
 5133 101a 6900     		.ascii	"i\000"
 5134 101c 01       		.byte	0x1
 5135 101d 0003     		.2byte	0x300
 5136 101f 0B010000 		.4byte	0x10b
 5137 1023 2A060000 		.4byte	.LLST29
 5138 1027 1B       		.uleb128 0x1b
 5139 1028 60000000 		.4byte	.LVL214
 5140 102c 09070000 		.4byte	0x709
 5141 1030 1B       		.uleb128 0x1b
 5142 1031 8E000000 		.4byte	.LVL219
 5143 1035 DC190000 		.4byte	0x19dc
 5144 1039 16       		.uleb128 0x16
 5145 103a 96000000 		.4byte	.LVL220
 5146 103e E7190000 		.4byte	0x19e7
 5147 1042 55100000 		.4byte	0x1055
 5148 1046 17       		.uleb128 0x17
 5149 1047 01       		.uleb128 0x1
 5150 1048 51       		.byte	0x51
 5151 1049 01       		.uleb128 0x1
 5152 104a 30       		.byte	0x30
 5153 104b 17       		.uleb128 0x17
 5154 104c 01       		.uleb128 0x1
 5155 104d 50       		.byte	0x50
 5156 104e 05       		.uleb128 0x5
 5157 104f 03       		.byte	0x3
 5158 1050 03000000 		.4byte	ComRxCmd+3
 5159 1054 00       		.byte	0
 5160 1055 1B       		.uleb128 0x1b
 5161 1056 A8000000 		.4byte	.LVL221
 5162 105a DC190000 		.4byte	0x19dc
 5163 105e 16       		.uleb128 0x16
 5164 105f B0000000 		.4byte	.LVL222
 5165 1063 E7190000 		.4byte	0x19e7
 5166 1067 7A100000 		.4byte	0x107a
 5167 106b 17       		.uleb128 0x17
 5168 106c 01       		.uleb128 0x1
 5169 106d 51       		.byte	0x51
 5170 106e 01       		.uleb128 0x1
 5171 106f 31       		.byte	0x31
 5172 1070 17       		.uleb128 0x17
 5173 1071 01       		.uleb128 0x1
 5174 1072 50       		.byte	0x50
 5175 1073 05       		.uleb128 0x5
 5176 1074 03       		.byte	0x3
 5177 1075 03000000 		.4byte	ComRxCmd+3
 5178 1079 00       		.byte	0
 5179 107a 16       		.uleb128 0x16
 5180 107b EA000000 		.4byte	.LVL227
 5181 107f AA060000 		.4byte	0x6aa
 5182 1083 91100000 		.4byte	0x1091
 5183 1087 17       		.uleb128 0x17
 5184 1088 01       		.uleb128 0x1
 5185 1089 50       		.byte	0x50
ARM GAS  C:\Users\koseki\AppData\Local\Temp\ccT0XNG9.s 			page 117


 5186 108a 05       		.uleb128 0x5
 5187 108b 03       		.byte	0x3
 5188 108c 00000000 		.4byte	FREQ_ERROR
 5189 1090 00       		.byte	0
 5190 1091 1B       		.uleb128 0x1b
 5191 1092 F6000000 		.4byte	.LVL228
 5192 1096 09070000 		.4byte	0x709
 5193 109a 16       		.uleb128 0x16
 5194 109b 46010000 		.4byte	.LVL239
 5195 109f B21A0000 		.4byte	0x1ab2
 5196 10a3 B1100000 		.4byte	0x10b1
 5197 10a7 17       		.uleb128 0x17
 5198 10a8 01       		.uleb128 0x1
 5199 10a9 50       		.byte	0x50
 5200 10aa 05       		.uleb128 0x5
 5201 10ab 03       		.byte	0x3
 5202 10ac 00000000 		.4byte	UsbTxBuffer
 5203 10b0 00       		.byte	0
 5204 10b1 16       		.uleb128 0x16
 5205 10b2 4C010000 		.4byte	.LVL240
 5206 10b6 B21A0000 		.4byte	0x1ab2
 5207 10ba C8100000 		.4byte	0x10c8
 5208 10be 17       		.uleb128 0x17
 5209 10bf 01       		.uleb128 0x1
 5210 10c0 50       		.byte	0x50
 5211 10c1 05       		.uleb128 0x5
 5212 10c2 03       		.byte	0x3
 5213 10c3 F4000000 		.4byte	.LC30
 5214 10c7 00       		.byte	0
 5215 10c8 1B       		.uleb128 0x1b
 5216 10c9 50010000 		.4byte	.LVL241
 5217 10cd C31A0000 		.4byte	0x1ac3
 5218 10d1 00       		.byte	0
 5219 10d2 13       		.uleb128 0x13
 5220 10d3 6A010000 		.4byte	.LASF87
 5221 10d7 01       		.byte	0x1
 5222 10d8 C802     		.2byte	0x2c8
 5223 10da 00000000 		.4byte	.LFB77
 5224 10de BC000000 		.4byte	.LFE77-.LFB77
 5225 10e2 01       		.uleb128 0x1
 5226 10e3 9C       		.byte	0x9c
 5227 10e4 BF110000 		.4byte	0x11bf
 5228 10e8 19       		.uleb128 0x19
 5229 10e9 04080000 		.4byte	.LASF88
 5230 10ed 01       		.byte	0x1
 5231 10ee CA02     		.2byte	0x2ca
 5232 10f0 0B010000 		.4byte	0x10b
 5233 10f4 8C060000 		.4byte	.LLST30
 5234 10f8 1A       		.uleb128 0x1a
 5235 10f9 727800   		.ascii	"rx\000"
 5236 10fc 01       		.byte	0x1
 5237 10fd CA02     		.2byte	0x2ca
 5238 10ff 0B010000 		.4byte	0x10b
 5239 1103 9F060000 		.4byte	.LLST31
 5240 1107 1A       		.uleb128 0x1a
 5241 1108 6900     		.ascii	"i\000"
 5242 110a 01       		.byte	0x1
ARM GAS  C:\Users\koseki\AppData\Local\Temp\ccT0XNG9.s 			page 118


 5243 110b CA02     		.2byte	0x2ca
 5244 110d 0B010000 		.4byte	0x10b
 5245 1111 FB060000 		.4byte	.LLST32
 5246 1115 1B       		.uleb128 0x1b
 5247 1116 06000000 		.4byte	.LVL242
 5248 111a CE1A0000 		.4byte	0x1ace
 5249 111e 16       		.uleb128 0x16
 5250 111f 10000000 		.4byte	.LVL243
 5251 1123 D91A0000 		.4byte	0x1ad9
 5252 1127 35110000 		.4byte	0x1135
 5253 112b 17       		.uleb128 0x17
 5254 112c 01       		.uleb128 0x1
 5255 112d 50       		.byte	0x50
 5256 112e 05       		.uleb128 0x5
 5257 112f 03       		.byte	0x3
 5258 1130 00000000 		.4byte	UsbRxBuffer
 5259 1134 00       		.byte	0
 5260 1135 16       		.uleb128 0x16
 5261 1136 5C000000 		.4byte	.LVL251
 5262 113a F9180000 		.4byte	0x18f9
 5263 113e 55110000 		.4byte	0x1155
 5264 1142 17       		.uleb128 0x17
 5265 1143 01       		.uleb128 0x1
 5266 1144 53       		.byte	0x53
 5267 1145 02       		.uleb128 0x2
 5268 1146 77       		.byte	0x77
 5269 1147 00       		.sleb128 0
 5270 1148 17       		.uleb128 0x17
 5271 1149 01       		.uleb128 0x1
 5272 114a 52       		.byte	0x52
 5273 114b 02       		.uleb128 0x2
 5274 114c 09       		.byte	0x9
 5275 114d FF       		.byte	0xff
 5276 114e 17       		.uleb128 0x17
 5277 114f 01       		.uleb128 0x1
 5278 1150 51       		.byte	0x51
 5279 1151 02       		.uleb128 0x2
 5280 1152 77       		.byte	0x77
 5281 1153 00       		.sleb128 0
 5282 1154 00       		.byte	0
 5283 1155 1B       		.uleb128 0x1b
 5284 1156 60000000 		.4byte	.LVL252
 5285 115a F30F0000 		.4byte	0xff3
 5286 115e 16       		.uleb128 0x16
 5287 115f 6C000000 		.4byte	.LVL253
 5288 1163 43190000 		.4byte	0x1943
 5289 1167 7E110000 		.4byte	0x117e
 5290 116b 17       		.uleb128 0x17
 5291 116c 01       		.uleb128 0x1
 5292 116d 53       		.byte	0x53
 5293 116e 02       		.uleb128 0x2
 5294 116f 77       		.byte	0x77
 5295 1170 00       		.sleb128 0
 5296 1171 17       		.uleb128 0x17
 5297 1172 01       		.uleb128 0x1
 5298 1173 52       		.byte	0x52
 5299 1174 02       		.uleb128 0x2
ARM GAS  C:\Users\koseki\AppData\Local\Temp\ccT0XNG9.s 			page 119


 5300 1175 77       		.byte	0x77
 5301 1176 00       		.sleb128 0
 5302 1177 17       		.uleb128 0x17
 5303 1178 01       		.uleb128 0x1
 5304 1179 51       		.byte	0x51
 5305 117a 02       		.uleb128 0x2
 5306 117b 77       		.byte	0x77
 5307 117c 00       		.sleb128 0
 5308 117d 00       		.byte	0
 5309 117e 16       		.uleb128 0x16
 5310 117f 82000000 		.4byte	.LVL256
 5311 1183 F9180000 		.4byte	0x18f9
 5312 1187 9C110000 		.4byte	0x119c
 5313 118b 17       		.uleb128 0x17
 5314 118c 01       		.uleb128 0x1
 5315 118d 53       		.byte	0x53
 5316 118e 01       		.uleb128 0x1
 5317 118f 30       		.byte	0x30
 5318 1190 17       		.uleb128 0x17
 5319 1191 01       		.uleb128 0x1
 5320 1192 52       		.byte	0x52
 5321 1193 02       		.uleb128 0x2
 5322 1194 09       		.byte	0x9
 5323 1195 FF       		.byte	0xff
 5324 1196 17       		.uleb128 0x17
 5325 1197 01       		.uleb128 0x1
 5326 1198 51       		.byte	0x51
 5327 1199 01       		.uleb128 0x1
 5328 119a 30       		.byte	0x30
 5329 119b 00       		.byte	0
 5330 119c 1B       		.uleb128 0x1b
 5331 119d 86000000 		.4byte	.LVL257
 5332 11a1 EA1A0000 		.4byte	0x1aea
 5333 11a5 18       		.uleb128 0x18
 5334 11a6 92000000 		.4byte	.LVL258
 5335 11aa 43190000 		.4byte	0x1943
 5336 11ae 17       		.uleb128 0x17
 5337 11af 01       		.uleb128 0x1
 5338 11b0 53       		.byte	0x53
 5339 11b1 01       		.uleb128 0x1
 5340 11b2 30       		.byte	0x30
 5341 11b3 17       		.uleb128 0x17
 5342 11b4 01       		.uleb128 0x1
 5343 11b5 52       		.byte	0x52
 5344 11b6 01       		.uleb128 0x1
 5345 11b7 30       		.byte	0x30
 5346 11b8 17       		.uleb128 0x17
 5347 11b9 01       		.uleb128 0x1
 5348 11ba 51       		.byte	0x51
 5349 11bb 01       		.uleb128 0x1
 5350 11bc 30       		.byte	0x30
 5351 11bd 00       		.byte	0
 5352 11be 00       		.byte	0
 5353 11bf 13       		.uleb128 0x13
 5354 11c0 20080000 		.4byte	.LASF89
 5355 11c4 01       		.byte	0x1
 5356 11c5 9302     		.2byte	0x293
ARM GAS  C:\Users\koseki\AppData\Local\Temp\ccT0XNG9.s 			page 120


 5357 11c7 00000000 		.4byte	.LFB76
 5358 11cb C0000000 		.4byte	.LFE76-.LFB76
 5359 11cf 01       		.uleb128 0x1
 5360 11d0 9C       		.byte	0x9c
 5361 11d1 5B130000 		.4byte	0x135b
 5362 11d5 14       		.uleb128 0x14
 5363 11d6 80030000 		.4byte	.LASF66
 5364 11da 01       		.byte	0x1
 5365 11db 9302     		.2byte	0x293
 5366 11dd A9000000 		.4byte	0xa9
 5367 11e1 47070000 		.4byte	.LLST33
 5368 11e5 1A       		.uleb128 0x1a
 5369 11e6 6900     		.ascii	"i\000"
 5370 11e8 01       		.byte	0x1
 5371 11e9 9502     		.2byte	0x295
 5372 11eb 23010000 		.4byte	0x123
 5373 11ef 68070000 		.4byte	.LLST34
 5374 11f3 19       		.uleb128 0x19
 5375 11f4 F8010000 		.4byte	.LASF90
 5376 11f8 01       		.byte	0x1
 5377 11f9 9602     		.2byte	0x296
 5378 11fb 0B010000 		.4byte	0x10b
 5379 11ff 92070000 		.4byte	.LLST35
 5380 1203 19       		.uleb128 0x19
 5381 1204 AA010000 		.4byte	.LASF91
 5382 1208 01       		.byte	0x1
 5383 1209 9702     		.2byte	0x297
 5384 120b 0B010000 		.4byte	0x10b
 5385 120f C8070000 		.4byte	.LLST36
 5386 1213 16       		.uleb128 0x16
 5387 1214 0A000000 		.4byte	.LVL268
 5388 1218 F11A0000 		.4byte	0x1af1
 5389 121c 2B120000 		.4byte	0x122b
 5390 1220 17       		.uleb128 0x17
 5391 1221 01       		.uleb128 0x1
 5392 1222 51       		.byte	0x51
 5393 1223 01       		.uleb128 0x1
 5394 1224 32       		.byte	0x32
 5395 1225 17       		.uleb128 0x17
 5396 1226 01       		.uleb128 0x1
 5397 1227 50       		.byte	0x50
 5398 1228 01       		.uleb128 0x1
 5399 1229 30       		.byte	0x30
 5400 122a 00       		.byte	0
 5401 122b 1B       		.uleb128 0x1b
 5402 122c 12000000 		.4byte	.LVL270
 5403 1230 081B0000 		.4byte	0x1b08
 5404 1234 1B       		.uleb128 0x1b
 5405 1235 2C000000 		.4byte	.LVL272
 5406 1239 141B0000 		.4byte	0x1b14
 5407 123d 1B       		.uleb128 0x1b
 5408 123e 34000000 		.4byte	.LVL275
 5409 1242 1F1B0000 		.4byte	0x1b1f
 5410 1246 1B       		.uleb128 0x1b
 5411 1247 3A000000 		.4byte	.LVL277
 5412 124b 271B0000 		.4byte	0x1b27
 5413 124f 16       		.uleb128 0x16
ARM GAS  C:\Users\koseki\AppData\Local\Temp\ccT0XNG9.s 			page 121


 5414 1250 46000000 		.4byte	.LVL279
 5415 1254 B21A0000 		.4byte	0x1ab2
 5416 1258 66120000 		.4byte	0x1266
 5417 125c 17       		.uleb128 0x17
 5418 125d 01       		.uleb128 0x1
 5419 125e 50       		.byte	0x50
 5420 125f 05       		.uleb128 0x5
 5421 1260 03       		.byte	0x3
 5422 1261 F8000000 		.4byte	.LC31
 5423 1265 00       		.byte	0
 5424 1266 16       		.uleb128 0x16
 5425 1267 4C000000 		.4byte	.LVL280
 5426 126b CA180000 		.4byte	0x18ca
 5427 126f 7A120000 		.4byte	0x127a
 5428 1273 17       		.uleb128 0x17
 5429 1274 01       		.uleb128 0x1
 5430 1275 50       		.byte	0x50
 5431 1276 02       		.uleb128 0x2
 5432 1277 08       		.byte	0x8
 5433 1278 64       		.byte	0x64
 5434 1279 00       		.byte	0
 5435 127a 16       		.uleb128 0x16
 5436 127b 54000000 		.4byte	.LVL281
 5437 127f B21A0000 		.4byte	0x1ab2
 5438 1283 8E120000 		.4byte	0x128e
 5439 1287 17       		.uleb128 0x17
 5440 1288 01       		.uleb128 0x1
 5441 1289 50       		.byte	0x50
 5442 128a 02       		.uleb128 0x2
 5443 128b 75       		.byte	0x75
 5444 128c 00       		.sleb128 0
 5445 128d 00       		.byte	0
 5446 128e 16       		.uleb128 0x16
 5447 128f 5C000000 		.4byte	.LVL282
 5448 1293 B21A0000 		.4byte	0x1ab2
 5449 1297 A2120000 		.4byte	0x12a2
 5450 129b 17       		.uleb128 0x17
 5451 129c 01       		.uleb128 0x1
 5452 129d 50       		.byte	0x50
 5453 129e 02       		.uleb128 0x2
 5454 129f 74       		.byte	0x74
 5455 12a0 00       		.sleb128 0
 5456 12a1 00       		.byte	0
 5457 12a2 16       		.uleb128 0x16
 5458 12a3 62000000 		.4byte	.LVL283
 5459 12a7 B21A0000 		.4byte	0x1ab2
 5460 12ab B9120000 		.4byte	0x12b9
 5461 12af 17       		.uleb128 0x17
 5462 12b0 01       		.uleb128 0x1
 5463 12b1 50       		.byte	0x50
 5464 12b2 05       		.uleb128 0x5
 5465 12b3 03       		.byte	0x3
 5466 12b4 8C010000 		.4byte	.LC34
 5467 12b8 00       		.byte	0
 5468 12b9 16       		.uleb128 0x16
 5469 12ba 68000000 		.4byte	.LVL284
 5470 12be B21A0000 		.4byte	0x1ab2
ARM GAS  C:\Users\koseki\AppData\Local\Temp\ccT0XNG9.s 			page 122


 5471 12c2 D0120000 		.4byte	0x12d0
 5472 12c6 17       		.uleb128 0x17
 5473 12c7 01       		.uleb128 0x1
 5474 12c8 50       		.byte	0x50
 5475 12c9 05       		.uleb128 0x5
 5476 12ca 03       		.byte	0x3
 5477 12cb CC010000 		.4byte	.LC35
 5478 12cf 00       		.byte	0
 5479 12d0 16       		.uleb128 0x16
 5480 12d1 6E000000 		.4byte	.LVL285
 5481 12d5 B21A0000 		.4byte	0x1ab2
 5482 12d9 E4120000 		.4byte	0x12e4
 5483 12dd 17       		.uleb128 0x17
 5484 12de 01       		.uleb128 0x1
 5485 12df 50       		.byte	0x50
 5486 12e0 02       		.uleb128 0x2
 5487 12e1 74       		.byte	0x74
 5488 12e2 00       		.sleb128 0
 5489 12e3 00       		.byte	0
 5490 12e4 16       		.uleb128 0x16
 5491 12e5 74000000 		.4byte	.LVL286
 5492 12e9 B21A0000 		.4byte	0x1ab2
 5493 12ed FB120000 		.4byte	0x12fb
 5494 12f1 17       		.uleb128 0x17
 5495 12f2 01       		.uleb128 0x1
 5496 12f3 50       		.byte	0x50
 5497 12f4 05       		.uleb128 0x5
 5498 12f5 03       		.byte	0x3
 5499 12f6 0C020000 		.4byte	.LC36
 5500 12fa 00       		.byte	0
 5501 12fb 16       		.uleb128 0x16
 5502 12fc 7A000000 		.4byte	.LVL287
 5503 1300 B21A0000 		.4byte	0x1ab2
 5504 1304 0F130000 		.4byte	0x130f
 5505 1308 17       		.uleb128 0x17
 5506 1309 01       		.uleb128 0x1
 5507 130a 50       		.byte	0x50
 5508 130b 02       		.uleb128 0x2
 5509 130c 74       		.byte	0x74
 5510 130d 00       		.sleb128 0
 5511 130e 00       		.byte	0
 5512 130f 16       		.uleb128 0x16
 5513 1310 80000000 		.4byte	.LVL288
 5514 1314 B21A0000 		.4byte	0x1ab2
 5515 1318 23130000 		.4byte	0x1323
 5516 131c 17       		.uleb128 0x17
 5517 131d 01       		.uleb128 0x1
 5518 131e 50       		.byte	0x50
 5519 131f 02       		.uleb128 0x2
 5520 1320 75       		.byte	0x75
 5521 1321 00       		.sleb128 0
 5522 1322 00       		.byte	0
 5523 1323 16       		.uleb128 0x16
 5524 1324 86000000 		.4byte	.LVL289
 5525 1328 B21A0000 		.4byte	0x1ab2
 5526 132c 3A130000 		.4byte	0x133a
 5527 1330 17       		.uleb128 0x17
ARM GAS  C:\Users\koseki\AppData\Local\Temp\ccT0XNG9.s 			page 123


 5528 1331 01       		.uleb128 0x1
 5529 1332 50       		.byte	0x50
 5530 1333 05       		.uleb128 0x5
 5531 1334 03       		.byte	0x3
 5532 1335 4C020000 		.4byte	.LC37
 5533 1339 00       		.byte	0
 5534 133a 16       		.uleb128 0x16
 5535 133b 8C000000 		.4byte	.LVL290
 5536 133f B21A0000 		.4byte	0x1ab2
 5537 1343 51130000 		.4byte	0x1351
 5538 1347 17       		.uleb128 0x17
 5539 1348 01       		.uleb128 0x1
 5540 1349 50       		.byte	0x50
 5541 134a 05       		.uleb128 0x5
 5542 134b 03       		.byte	0x3
 5543 134c F4000000 		.4byte	.LC30
 5544 1350 00       		.byte	0
 5545 1351 1B       		.uleb128 0x1b
 5546 1352 96000000 		.4byte	.LVL292
 5547 1356 D2100000 		.4byte	0x10d2
 5548 135a 00       		.byte	0
 5549 135b 13       		.uleb128 0x13
 5550 135c 65050000 		.4byte	.LASF92
 5551 1360 01       		.byte	0x1
 5552 1361 C803     		.2byte	0x3c8
 5553 1363 00000000 		.4byte	.LFB81
 5554 1367 FC000000 		.4byte	.LFE81-.LFB81
 5555 136b 01       		.uleb128 0x1
 5556 136c 9C       		.byte	0x9c
 5557 136d A4130000 		.4byte	0x13a4
 5558 1371 19       		.uleb128 0x19
 5559 1372 5F050000 		.4byte	.LASF93
 5560 1376 01       		.byte	0x1
 5561 1377 CA03     		.2byte	0x3ca
 5562 1379 17010000 		.4byte	0x117
 5563 137d DB070000 		.4byte	.LLST37
 5564 1381 16       		.uleb128 0x16
 5565 1382 26000000 		.4byte	.LVL293
 5566 1386 321B0000 		.4byte	0x1b32
 5567 138a 94130000 		.4byte	0x1394
 5568 138e 17       		.uleb128 0x17
 5569 138f 01       		.uleb128 0x1
 5570 1390 50       		.byte	0x50
 5571 1391 01       		.uleb128 0x1
 5572 1392 30       		.byte	0x30
 5573 1393 00       		.byte	0
 5574 1394 18       		.uleb128 0x18
 5575 1395 2E000000 		.4byte	.LVL294
 5576 1399 321B0000 		.4byte	0x1b32
 5577 139d 17       		.uleb128 0x17
 5578 139e 01       		.uleb128 0x1
 5579 139f 50       		.byte	0x50
 5580 13a0 01       		.uleb128 0x1
 5581 13a1 31       		.byte	0x31
 5582 13a2 00       		.byte	0
 5583 13a3 00       		.byte	0
 5584 13a4 13       		.uleb128 0x13
ARM GAS  C:\Users\koseki\AppData\Local\Temp\ccT0XNG9.s 			page 124


 5585 13a5 37050000 		.4byte	.LASF94
 5586 13a9 01       		.byte	0x1
 5587 13aa 4E03     		.2byte	0x34e
 5588 13ac 00000000 		.4byte	.LFB79
 5589 13b0 0E000000 		.4byte	.LFE79-.LFB79
 5590 13b4 01       		.uleb128 0x1
 5591 13b5 9C       		.byte	0x9c
 5592 13b6 EF130000 		.4byte	0x13ef
 5593 13ba 14       		.uleb128 0x14
 5594 13bb 80030000 		.4byte	.LASF66
 5595 13bf 01       		.byte	0x1
 5596 13c0 4E03     		.2byte	0x34e
 5597 13c2 A9000000 		.4byte	0xa9
 5598 13c6 F9070000 		.4byte	.LLST38
 5599 13ca 15       		.uleb128 0x15
 5600 13cb DA090000 		.4byte	.LASF82
 5601 13cf 01       		.byte	0x1
 5602 13d0 5003     		.2byte	0x350
 5603 13d2 56030000 		.4byte	0x356
 5604 13d6 1B       		.uleb128 0x1b
 5605 13d7 06000000 		.4byte	.LVL301
 5606 13db 5B130000 		.4byte	0x135b
 5607 13df 18       		.uleb128 0x18
 5608 13e0 0C000000 		.4byte	.LVL302
 5609 13e4 E8170000 		.4byte	0x17e8
 5610 13e8 17       		.uleb128 0x17
 5611 13e9 01       		.uleb128 0x1
 5612 13ea 50       		.byte	0x50
 5613 13eb 01       		.uleb128 0x1
 5614 13ec 31       		.byte	0x31
 5615 13ed 00       		.byte	0
 5616 13ee 00       		.byte	0
 5617 13ef 0C       		.uleb128 0xc
 5618 13f0 0B010000 		.4byte	0x10b
 5619 13f4 00140000 		.4byte	0x1400
 5620 13f8 2A       		.uleb128 0x2a
 5621 13f9 A2000000 		.4byte	0xa2
 5622 13fd FF01     		.2byte	0x1ff
 5623 13ff 00       		.byte	0
 5624 1400 2B       		.uleb128 0x2b
 5625 1401 BF040000 		.4byte	.LASF96
 5626 1405 0B       		.byte	0xb
 5627 1406 26       		.byte	0x26
 5628 1407 0B140000 		.4byte	0x140b
 5629 140b 08       		.uleb128 0x8
 5630 140c EF130000 		.4byte	0x13ef
 5631 1410 1D       		.uleb128 0x1d
 5632 1411 E0000000 		.4byte	.LASF97
 5633 1415 0C       		.byte	0xc
 5634 1416 5506     		.2byte	0x655
 5635 1418 1C140000 		.4byte	0x141c
 5636 141c 0A       		.uleb128 0xa
 5637 141d F5000000 		.4byte	0xf5
 5638 1421 0C       		.uleb128 0xc
 5639 1422 0B010000 		.4byte	0x10b
 5640 1426 31140000 		.4byte	0x1431
 5641 142a 0D       		.uleb128 0xd
ARM GAS  C:\Users\koseki\AppData\Local\Temp\ccT0XNG9.s 			page 125


 5642 142b A2000000 		.4byte	0xa2
 5643 142f 10       		.byte	0x10
 5644 1430 00       		.byte	0
 5645 1431 2C       		.uleb128 0x2c
 5646 1432 6B060000 		.4byte	.LASF98
 5647 1436 01       		.byte	0x1
 5648 1437 31       		.byte	0x31
 5649 1438 42140000 		.4byte	0x1442
 5650 143c 05       		.uleb128 0x5
 5651 143d 03       		.byte	0x3
 5652 143e 00000000 		.4byte	HEX2ASCII
 5653 1442 08       		.uleb128 0x8
 5654 1443 21140000 		.4byte	0x1421
 5655 1447 0C       		.uleb128 0xc
 5656 1448 0B010000 		.4byte	0x10b
 5657 144c 52140000 		.4byte	0x1452
 5658 1450 1E       		.uleb128 0x1e
 5659 1451 00       		.byte	0
 5660 1452 2B       		.uleb128 0x2b
 5661 1453 F6040000 		.4byte	.LASF99
 5662 1457 01       		.byte	0x1
 5663 1458 32       		.byte	0x32
 5664 1459 5D140000 		.4byte	0x145d
 5665 145d 08       		.uleb128 0x8
 5666 145e 47140000 		.4byte	0x1447
 5667 1462 2B       		.uleb128 0x2b
 5668 1463 66040000 		.4byte	.LASF100
 5669 1467 01       		.byte	0x1
 5670 1468 33       		.byte	0x33
 5671 1469 6D140000 		.4byte	0x146d
 5672 146d 08       		.uleb128 0x8
 5673 146e 47140000 		.4byte	0x1447
 5674 1472 2B       		.uleb128 0x2b
 5675 1473 19060000 		.4byte	.LASF101
 5676 1477 01       		.byte	0x1
 5677 1478 34       		.byte	0x34
 5678 1479 7D140000 		.4byte	0x147d
 5679 147d 08       		.uleb128 0x8
 5680 147e 47140000 		.4byte	0x1447
 5681 1482 2B       		.uleb128 0x2b
 5682 1483 6E020000 		.4byte	.LASF102
 5683 1487 01       		.byte	0x1
 5684 1488 35       		.byte	0x35
 5685 1489 8D140000 		.4byte	0x148d
 5686 148d 08       		.uleb128 0x8
 5687 148e 47140000 		.4byte	0x1447
 5688 1492 2B       		.uleb128 0x2b
 5689 1493 6D090000 		.4byte	.LASF103
 5690 1497 01       		.byte	0x1
 5691 1498 36       		.byte	0x36
 5692 1499 9D140000 		.4byte	0x149d
 5693 149d 08       		.uleb128 0x8
 5694 149e 47140000 		.4byte	0x1447
 5695 14a2 0C       		.uleb128 0xc
 5696 14a3 47010000 		.4byte	0x147
 5697 14a7 AD140000 		.4byte	0x14ad
 5698 14ab 1E       		.uleb128 0x1e
ARM GAS  C:\Users\koseki\AppData\Local\Temp\ccT0XNG9.s 			page 126


 5699 14ac 00       		.byte	0
 5700 14ad 2B       		.uleb128 0x2b
 5701 14ae 30090000 		.4byte	.LASF104
 5702 14b2 01       		.byte	0x1
 5703 14b3 37       		.byte	0x37
 5704 14b4 B8140000 		.4byte	0x14b8
 5705 14b8 08       		.uleb128 0x8
 5706 14b9 A2140000 		.4byte	0x14a2
 5707 14bd 2C       		.uleb128 0x2c
 5708 14be B0010000 		.4byte	.LASF105
 5709 14c2 01       		.byte	0x1
 5710 14c3 3B       		.byte	0x3b
 5711 14c4 CE140000 		.4byte	0x14ce
 5712 14c8 05       		.uleb128 0x5
 5713 14c9 03       		.byte	0x3
 5714 14ca 00000000 		.4byte	pFREQ_ERROR
 5715 14ce 06       		.uleb128 0x6
 5716 14cf 04       		.byte	0x4
 5717 14d0 77010000 		.4byte	0x177
 5718 14d4 2C       		.uleb128 0x2c
 5719 14d5 4F000000 		.4byte	.LASF106
 5720 14d9 01       		.byte	0x1
 5721 14da 3C       		.byte	0x3c
 5722 14db CE140000 		.4byte	0x14ce
 5723 14df 05       		.uleb128 0x5
 5724 14e0 03       		.byte	0x3
 5725 14e1 00000000 		.4byte	pSERIAL_NUM
 5726 14e5 2C       		.uleb128 0x2c
 5727 14e6 BA050000 		.4byte	.LASF107
 5728 14ea 01       		.byte	0x1
 5729 14eb 3D       		.byte	0x3d
 5730 14ec A0010000 		.4byte	0x1a0
 5731 14f0 05       		.uleb128 0x5
 5732 14f1 03       		.byte	0x3
 5733 14f2 00000000 		.4byte	FREQ_ERROR
 5734 14f6 2C       		.uleb128 0x2c
 5735 14f7 A5090000 		.4byte	.LASF108
 5736 14fb 01       		.byte	0x1
 5737 14fc 3E       		.byte	0x3e
 5738 14fd A0010000 		.4byte	0x1a0
 5739 1501 05       		.uleb128 0x5
 5740 1502 03       		.byte	0x3
 5741 1503 00000000 		.4byte	SERIAL_NUM
 5742 1507 2C       		.uleb128 0x2c
 5743 1508 75060000 		.4byte	.LASF109
 5744 150c 01       		.byte	0x1
 5745 150d 41       		.byte	0x41
 5746 150e 88010000 		.4byte	0x188
 5747 1512 05       		.uleb128 0x5
 5748 1513 03       		.byte	0x3
 5749 1514 00000000 		.4byte	gUSBUART_Ready
 5750 1518 0C       		.uleb128 0xc
 5751 1519 C1020000 		.4byte	0x2c1
 5752 151d 28150000 		.4byte	0x1528
 5753 1521 0D       		.uleb128 0xd
 5754 1522 A2000000 		.4byte	0xa2
 5755 1526 06       		.byte	0x6
ARM GAS  C:\Users\koseki\AppData\Local\Temp\ccT0XNG9.s 			page 127


 5756 1527 00       		.byte	0
 5757 1528 2C       		.uleb128 0x2c
 5758 1529 A2010000 		.4byte	.LASF110
 5759 152d 01       		.byte	0x1
 5760 152e 54       		.byte	0x54
 5761 152f 18150000 		.4byte	0x1518
 5762 1533 05       		.uleb128 0x5
 5763 1534 03       		.byte	0x3
 5764 1535 00000000 		.4byte	station
 5765 1539 2C       		.uleb128 0x2c
 5766 153a B7090000 		.4byte	.LASF47
 5767 153e 01       		.byte	0x1
 5768 153f 65       		.byte	0x65
 5769 1540 A0010000 		.4byte	0x1a0
 5770 1544 05       		.uleb128 0x5
 5771 1545 03       		.byte	0x3
 5772 1546 00000000 		.4byte	Freq
 5773 154a 2C       		.uleb128 0x2c
 5774 154b E2040000 		.4byte	.LASF111
 5775 154f 01       		.byte	0x1
 5776 1550 66       		.byte	0x66
 5777 1551 A0010000 		.4byte	0x1a0
 5778 1555 05       		.uleb128 0x5
 5779 1556 03       		.byte	0x3
 5780 1557 00000000 		.4byte	LastFreq
 5781 155b 2C       		.uleb128 0x2c
 5782 155c 58030000 		.4byte	.LASF112
 5783 1560 01       		.byte	0x1
 5784 1561 67       		.byte	0x67
 5785 1562 47010000 		.4byte	0x147
 5786 1566 05       		.uleb128 0x5
 5787 1567 03       		.byte	0x3
 5788 1568 00000000 		.4byte	Frequency
 5789 156c 2C       		.uleb128 0x2c
 5790 156d 5E070000 		.4byte	.LASF113
 5791 1571 01       		.byte	0x1
 5792 1572 68       		.byte	0x68
 5793 1573 47010000 		.4byte	0x147
 5794 1577 05       		.uleb128 0x5
 5795 1578 03       		.byte	0x3
 5796 1579 00000000 		.4byte	FrequencyError
 5797 157d 0C       		.uleb128 0xc
 5798 157e 0B010000 		.4byte	0x10b
 5799 1582 8D150000 		.4byte	0x158d
 5800 1586 0D       		.uleb128 0xd
 5801 1587 A2000000 		.4byte	0xa2
 5802 158b 1F       		.byte	0x1f
 5803 158c 00       		.byte	0
 5804 158d 2C       		.uleb128 0x2c
 5805 158e 9C090000 		.4byte	.LASF114
 5806 1592 01       		.byte	0x1
 5807 1593 6A       		.byte	0x6a
 5808 1594 7D150000 		.4byte	0x157d
 5809 1598 05       		.uleb128 0x5
 5810 1599 03       		.byte	0x3
 5811 159a 00000000 		.4byte	ComRxCmd
 5812 159e 2C       		.uleb128 0x2c
ARM GAS  C:\Users\koseki\AppData\Local\Temp\ccT0XNG9.s 			page 128


 5813 159f 81000000 		.4byte	.LASF115
 5814 15a3 01       		.byte	0x1
 5815 15a4 6B       		.byte	0x6b
 5816 15a5 0B010000 		.4byte	0x10b
 5817 15a9 05       		.uleb128 0x5
 5818 15aa 03       		.byte	0x3
 5819 15ab 00000000 		.4byte	ComRxPtr
 5820 15af 0C       		.uleb128 0xc
 5821 15b0 0B010000 		.4byte	0x10b
 5822 15b4 BF150000 		.4byte	0x15bf
 5823 15b8 0D       		.uleb128 0xd
 5824 15b9 A2000000 		.4byte	0xa2
 5825 15bd 4F       		.byte	0x4f
 5826 15be 00       		.byte	0
 5827 15bf 2C       		.uleb128 0x2c
 5828 15c0 1E090000 		.4byte	.LASF116
 5829 15c4 01       		.byte	0x1
 5830 15c5 6D       		.byte	0x6d
 5831 15c6 AF150000 		.4byte	0x15af
 5832 15ca 05       		.uleb128 0x5
 5833 15cb 03       		.byte	0x3
 5834 15cc 00000000 		.4byte	UsbTxBuffer
 5835 15d0 2C       		.uleb128 0x2c
 5836 15d1 46040000 		.4byte	.LASF117
 5837 15d5 01       		.byte	0x1
 5838 15d6 6E       		.byte	0x6e
 5839 15d7 2D060000 		.4byte	0x62d
 5840 15db 05       		.uleb128 0x5
 5841 15dc 03       		.byte	0x3
 5842 15dd 00000000 		.4byte	UsbRxBuffer
 5843 15e1 2C       		.uleb128 0x2c
 5844 15e2 A6020000 		.4byte	.LASF118
 5845 15e6 01       		.byte	0x1
 5846 15e7 70       		.byte	0x70
 5847 15e8 0B010000 		.4byte	0x10b
 5848 15ec 05       		.uleb128 0x5
 5849 15ed 03       		.byte	0x3
 5850 15ee 00000000 		.4byte	AdcTick
 5851 15f2 2C       		.uleb128 0x2c
 5852 15f3 28040000 		.4byte	.LASF119
 5853 15f7 01       		.byte	0x1
 5854 15f8 71       		.byte	0x71
 5855 15f9 3B010000 		.4byte	0x13b
 5856 15fd 05       		.uleb128 0x5
 5857 15fe 03       		.byte	0x3
 5858 15ff 00000000 		.4byte	IDCOffset
 5859 1603 2C       		.uleb128 0x2c
 5860 1604 A0050000 		.4byte	.LASF120
 5861 1608 01       		.byte	0x1
 5862 1609 71       		.byte	0x71
 5863 160a 3B010000 		.4byte	0x13b
 5864 160e 05       		.uleb128 0x5
 5865 160f 03       		.byte	0x3
 5866 1610 00000000 		.4byte	QDCOffset
 5867 1614 2C       		.uleb128 0x2c
 5868 1615 8A010000 		.4byte	.LASF121
 5869 1619 01       		.byte	0x1
ARM GAS  C:\Users\koseki\AppData\Local\Temp\ccT0XNG9.s 			page 129


 5870 161a 72       		.byte	0x72
 5871 161b 3B010000 		.4byte	0x13b
 5872 161f 05       		.uleb128 0x5
 5873 1620 03       		.byte	0x3
 5874 1621 00000000 		.4byte	AdcPeak
 5875 1625 2C       		.uleb128 0x2c
 5876 1626 75030000 		.4byte	.LASF122
 5877 162a 01       		.byte	0x1
 5878 162b 72       		.byte	0x72
 5879 162c 3B010000 		.4byte	0x13b
 5880 1630 05       		.uleb128 0x5
 5881 1631 03       		.byte	0x3
 5882 1632 00000000 		.4byte	AdcPeakAve
 5883 1636 2C       		.uleb128 0x2c
 5884 1637 EB040000 		.4byte	.LASF123
 5885 163b 01       		.byte	0x1
 5886 163c 73       		.byte	0x73
 5887 163d 0B010000 		.4byte	0x10b
 5888 1641 05       		.uleb128 0x5
 5889 1642 03       		.byte	0x3
 5890 1643 00000000 		.4byte	AgcDisable
 5891 1647 2C       		.uleb128 0x2c
 5892 1648 6F050000 		.4byte	.LASF124
 5893 164c 01       		.byte	0x1
 5894 164d 74       		.byte	0x74
 5895 164e 0B010000 		.4byte	0x10b
 5896 1652 05       		.uleb128 0x5
 5897 1653 03       		.byte	0x3
 5898 1654 00000000 		.4byte	AgcGain
 5899 1658 2C       		.uleb128 0x2c
 5900 1659 27010000 		.4byte	.LASF125
 5901 165d 01       		.byte	0x1
 5902 165e 75       		.byte	0x75
 5903 165f 0B010000 		.4byte	0x10b
 5904 1663 05       		.uleb128 0x5
 5905 1664 03       		.byte	0x3
 5906 1665 00000000 		.4byte	AgcTimer
 5907 1669 2C       		.uleb128 0x2c
 5908 166a A7070000 		.4byte	.LASF126
 5909 166e 01       		.byte	0x1
 5910 166f 76       		.byte	0x76
 5911 1670 0B010000 		.4byte	0x10b
 5912 1674 05       		.uleb128 0x5
 5913 1675 03       		.byte	0x3
 5914 1676 00000000 		.4byte	AgcIntegrator
 5915 167a 2C       		.uleb128 0x2c
 5916 167b 09050000 		.4byte	.LASF127
 5917 167f 01       		.byte	0x1
 5918 1680 77       		.byte	0x77
 5919 1681 23010000 		.4byte	0x123
 5920 1685 05       		.uleb128 0x5
 5921 1686 03       		.byte	0x3
 5922 1687 00000000 		.4byte	AgcIndicator
 5923 168b 2C       		.uleb128 0x2c
 5924 168c F2020000 		.4byte	.LASF128
 5925 1690 01       		.byte	0x1
 5926 1691 78       		.byte	0x78
ARM GAS  C:\Users\koseki\AppData\Local\Temp\ccT0XNG9.s 			page 130


 5927 1692 0B010000 		.4byte	0x10b
 5928 1696 05       		.uleb128 0x5
 5929 1697 03       		.byte	0x3
 5930 1698 00000000 		.4byte	AgcTimeConstant
 5931 169c 2C       		.uleb128 0x2c
 5932 169d E2010000 		.4byte	.LASF129
 5933 16a1 01       		.byte	0x1
 5934 16a2 7A       		.byte	0x7a
 5935 16a3 0B010000 		.4byte	0x10b
 5936 16a7 05       		.uleb128 0x5
 5937 16a8 03       		.byte	0x3
 5938 16a9 00000000 		.4byte	LedTimer
 5939 16ad 2C       		.uleb128 0x2c
 5940 16ae 7D010000 		.4byte	.LASF130
 5941 16b2 01       		.byte	0x1
 5942 16b3 7B       		.byte	0x7b
 5943 16b4 0B010000 		.4byte	0x10b
 5944 16b8 05       		.uleb128 0x5
 5945 16b9 03       		.byte	0x3
 5946 16ba 00000000 		.4byte	DisplayIndex
 5947 16be 2C       		.uleb128 0x2c
 5948 16bf 50090000 		.4byte	.LASF51
 5949 16c3 01       		.byte	0x1
 5950 16c4 7D       		.byte	0x7d
 5951 16c5 0B010000 		.4byte	0x10b
 5952 16c9 05       		.uleb128 0x5
 5953 16ca 03       		.byte	0x3
 5954 16cb 00000000 		.4byte	Filter
 5955 16cf 2C       		.uleb128 0x2c
 5956 16d0 6D070000 		.4byte	.LASF50
 5957 16d4 01       		.byte	0x1
 5958 16d5 7E       		.byte	0x7e
 5959 16d6 0B010000 		.4byte	0x10b
 5960 16da 05       		.uleb128 0x5
 5961 16db 03       		.byte	0x3
 5962 16dc 00000000 		.4byte	Mode
 5963 16e0 2C       		.uleb128 0x2c
 5964 16e1 C4030000 		.4byte	.LASF131
 5965 16e5 01       		.byte	0x1
 5966 16e6 7F       		.byte	0x7f
 5967 16e7 0B010000 		.4byte	0x10b
 5968 16eb 05       		.uleb128 0x5
 5969 16ec 03       		.byte	0x3
 5970 16ed 00000000 		.4byte	UpperSideBand
 5971 16f1 2C       		.uleb128 0x2c
 5972 16f2 B5070000 		.4byte	.LASF132
 5973 16f6 01       		.byte	0x1
 5974 16f7 80       		.byte	0x80
 5975 16f8 0B010000 		.4byte	0x10b
 5976 16fc 05       		.uleb128 0x5
 5977 16fd 03       		.byte	0x3
 5978 16fe 00000000 		.4byte	AttenuatorOn
 5979 1702 2C       		.uleb128 0x2c
 5980 1703 D6070000 		.4byte	.LASF133
 5981 1707 01       		.byte	0x1
 5982 1708 81       		.byte	0x81
 5983 1709 0B010000 		.4byte	0x10b
ARM GAS  C:\Users\koseki\AppData\Local\Temp\ccT0XNG9.s 			page 131


 5984 170d 05       		.uleb128 0x5
 5985 170e 03       		.byte	0x3
 5986 170f 00000000 		.4byte	Squelch
 5987 1713 2C       		.uleb128 0x2c
 5988 1714 67090000 		.4byte	.LASF134
 5989 1718 01       		.byte	0x1
 5990 1719 82       		.byte	0x82
 5991 171a 0B010000 		.4byte	0x10b
 5992 171e 05       		.uleb128 0x5
 5993 171f 03       		.byte	0x3
 5994 1720 00000000 		.4byte	Debug
 5995 1724 2D       		.uleb128 0x2d
 5996 1725 436800   		.ascii	"Ch\000"
 5997 1728 01       		.byte	0x1
 5998 1729 83       		.byte	0x83
 5999 172a 0B010000 		.4byte	0x10b
 6000 172e 05       		.uleb128 0x5
 6001 172f 03       		.byte	0x3
 6002 1730 00000000 		.4byte	Ch
 6003 1734 2C       		.uleb128 0x2c
 6004 1735 26050000 		.4byte	.LASF135
 6005 1739 01       		.byte	0x1
 6006 173a 86       		.byte	0x86
 6007 173b 0B010000 		.4byte	0x10b
 6008 173f 05       		.uleb128 0x5
 6009 1740 03       		.byte	0x3
 6010 1741 00000000 		.4byte	AdcState
 6011 1745 0C       		.uleb128 0xc
 6012 1746 3B010000 		.4byte	0x13b
 6013 174a 55170000 		.4byte	0x1755
 6014 174e 0D       		.uleb128 0xd
 6015 174f A2000000 		.4byte	0xa2
 6016 1753 3F       		.byte	0x3f
 6017 1754 00       		.byte	0
 6018 1755 2C       		.uleb128 0x2c
 6019 1756 34020000 		.4byte	.LASF136
 6020 175a 01       		.byte	0x1
 6021 175b 87       		.byte	0x87
 6022 175c 45170000 		.4byte	0x1745
 6023 1760 05       		.uleb128 0x5
 6024 1761 03       		.byte	0x3
 6025 1762 00000000 		.4byte	IDelay
 6026 1766 2C       		.uleb128 0x2c
 6027 1767 16080000 		.4byte	.LASF137
 6028 176b 01       		.byte	0x1
 6029 176c 88       		.byte	0x88
 6030 176d 0B010000 		.4byte	0x10b
 6031 1771 05       		.uleb128 0x5
 6032 1772 03       		.byte	0x3
 6033 1773 00000000 		.4byte	IDelayPtr
 6034 1777 2C       		.uleb128 0x2c
 6035 1778 F9070000 		.4byte	.LASF138
 6036 177c 01       		.byte	0x1
 6037 177d A4       		.byte	0xa4
 6038 177e 55020000 		.4byte	0x255
 6039 1782 05       		.uleb128 0x5
 6040 1783 03       		.byte	0x3
ARM GAS  C:\Users\koseki\AppData\Local\Temp\ccT0XNG9.s 			page 132


 6041 1784 00000000 		.4byte	xMutex_DDS
 6042 1788 0C       		.uleb128 0xc
 6043 1789 4A020000 		.4byte	0x24a
 6044 178d 98170000 		.4byte	0x1798
 6045 1791 0D       		.uleb128 0xd
 6046 1792 A2000000 		.4byte	0xa2
 6047 1796 01       		.byte	0x1
 6048 1797 00       		.byte	0
 6049 1798 2C       		.uleb128 0x2c
 6050 1799 9C070000 		.4byte	.LASF139
 6051 179d 01       		.byte	0x1
 6052 179e A6       		.byte	0xa6
 6053 179f 88170000 		.4byte	0x1788
 6054 17a3 05       		.uleb128 0x5
 6055 17a4 03       		.byte	0x3
 6056 17a5 00000000 		.4byte	xQueue_KEY
 6057 17a9 2C       		.uleb128 0x2c
 6058 17aa 0B080000 		.4byte	.LASF140
 6059 17ae 01       		.byte	0x1
 6060 17af A7       		.byte	0xa7
 6061 17b0 4A020000 		.4byte	0x24a
 6062 17b4 05       		.uleb128 0x5
 6063 17b5 03       		.byte	0x3
 6064 17b6 00000000 		.4byte	xQueue_ROT
 6065 17ba 2C       		.uleb128 0x2c
 6066 17bb 5F060000 		.4byte	.LASF141
 6067 17bf 01       		.byte	0x1
 6068 17c0 A8       		.byte	0xa8
 6069 17c1 4A020000 		.4byte	0x24a
 6070 17c5 05       		.uleb128 0x5
 6071 17c6 03       		.byte	0x3
 6072 17c7 00000000 		.4byte	xQueue_FREQ
 6073 17cb 1D       		.uleb128 0x1d
 6074 17cc 3E060000 		.4byte	.LASF95
 6075 17d0 01       		.byte	0x1
 6076 17d1 3501     		.2byte	0x135
 6077 17d3 4F040000 		.4byte	0x44f
 6078 17d7 2E       		.uleb128 0x2e
 6079 17d8 52040000 		.4byte	.LASF142
 6080 17dc 0D       		.byte	0xd
 6081 17dd 28       		.byte	0x28
 6082 17de E8170000 		.4byte	0x17e8
 6083 17e2 0F       		.uleb128 0xf
 6084 17e3 0B010000 		.4byte	0x10b
 6085 17e7 00       		.byte	0
 6086 17e8 2F       		.uleb128 0x2f
 6087 17e9 72010000 		.4byte	.LASF143
 6088 17ed 08       		.byte	0x8
 6089 17ee 2B02     		.2byte	0x22b
 6090 17f0 FA170000 		.4byte	0x17fa
 6091 17f4 0F       		.uleb128 0xf
 6092 17f5 56030000 		.4byte	0x356
 6093 17f9 00       		.byte	0
 6094 17fa 30       		.uleb128 0x30
 6095 17fb BC090000 		.4byte	.LASF144
 6096 17ff 0E       		.byte	0xe
 6097 1800 41       		.byte	0x41
ARM GAS  C:\Users\koseki\AppData\Local\Temp\ccT0XNG9.s 			page 133


 6098 1801 3B010000 		.4byte	0x13b
 6099 1805 31       		.uleb128 0x31
 6100 1806 42090000 		.4byte	.LASF149
 6101 180a 10       		.byte	0x10
 6102 180b 41       		.byte	0x41
 6103 180c 17010000 		.4byte	0x117
 6104 1810 1A180000 		.4byte	0x181a
 6105 1814 0F       		.uleb128 0xf
 6106 1815 0B010000 		.4byte	0x10b
 6107 1819 00       		.byte	0
 6108 181a 30       		.uleb128 0x30
 6109 181b DB050000 		.4byte	.LASF145
 6110 181f 07       		.byte	0x7
 6111 1820 85       		.byte	0x85
 6112 1821 00010000 		.4byte	0x100
 6113 1825 32       		.uleb128 0x32
 6114 1826 27020000 		.4byte	.LASF146
 6115 182a A9000000 		.4byte	0xa9
 6116 182e 42180000 		.4byte	0x1842
 6117 1832 0F       		.uleb128 0xf
 6118 1833 A9000000 		.4byte	0xa9
 6119 1837 0F       		.uleb128 0xf
 6120 1838 99010000 		.4byte	0x199
 6121 183c 0F       		.uleb128 0xf
 6122 183d A2000000 		.4byte	0xa2
 6123 1841 00       		.byte	0
 6124 1842 2E       		.uleb128 0x2e
 6125 1843 BA020000 		.4byte	.LASF147
 6126 1847 0F       		.byte	0xf
 6127 1848 45       		.byte	0x45
 6128 1849 58180000 		.4byte	0x1858
 6129 184d 0F       		.uleb128 0xf
 6130 184e 0B010000 		.4byte	0x10b
 6131 1852 0F       		.uleb128 0xf
 6132 1853 0B010000 		.4byte	0x10b
 6133 1857 00       		.byte	0
 6134 1858 2E       		.uleb128 0x2e
 6135 1859 CD010000 		.4byte	.LASF148
 6136 185d 0F       		.byte	0xf
 6137 185e 43       		.byte	0x43
 6138 185f 69180000 		.4byte	0x1869
 6139 1863 0F       		.uleb128 0xf
 6140 1864 69180000 		.4byte	0x1869
 6141 1868 00       		.byte	0
 6142 1869 06       		.uleb128 0x6
 6143 186a 04       		.byte	0x4
 6144 186b 6F180000 		.4byte	0x186f
 6145 186f 08       		.uleb128 0x8
 6146 1870 5F010000 		.4byte	0x15f
 6147 1874 31       		.uleb128 0x31
 6148 1875 95070000 		.4byte	.LASF150
 6149 1879 11       		.byte	0x11
 6150 187a 16       		.byte	0x16
 6151 187b 25000000 		.4byte	0x25
 6152 187f 93180000 		.4byte	0x1893
 6153 1883 0F       		.uleb128 0xf
 6154 1884 99010000 		.4byte	0x199
ARM GAS  C:\Users\koseki\AppData\Local\Temp\ccT0XNG9.s 			page 134


 6155 1888 0F       		.uleb128 0xf
 6156 1889 99010000 		.4byte	0x199
 6157 188d 0F       		.uleb128 0xf
 6158 188e 2C000000 		.4byte	0x2c
 6159 1892 00       		.byte	0
 6160 1893 2E       		.uleb128 0x2e
 6161 1894 33030000 		.4byte	.LASF151
 6162 1898 12       		.byte	0x12
 6163 1899 64       		.byte	0x64
 6164 189a A4180000 		.4byte	0x18a4
 6165 189e 0F       		.uleb128 0xf
 6166 189f 0B010000 		.4byte	0x10b
 6167 18a3 00       		.byte	0
 6168 18a4 30       		.uleb128 0x30
 6169 18a5 2C060000 		.4byte	.LASF152
 6170 18a9 12       		.byte	0x12
 6171 18aa 62       		.byte	0x62
 6172 18ab 0B010000 		.4byte	0x10b
 6173 18af 31       		.uleb128 0x31
 6174 18b0 66020000 		.4byte	.LASF153
 6175 18b4 13       		.byte	0x13
 6176 18b5 DE       		.byte	0xde
 6177 18b6 25000000 		.4byte	0x25
 6178 18ba CA180000 		.4byte	0x18ca
 6179 18be 0F       		.uleb128 0xf
 6180 18bf B2000000 		.4byte	0xb2
 6181 18c3 0F       		.uleb128 0xf
 6182 18c4 BF000000 		.4byte	0xbf
 6183 18c8 33       		.uleb128 0x33
 6184 18c9 00       		.byte	0
 6185 18ca 2E       		.uleb128 0x2e
 6186 18cb 2F050000 		.4byte	.LASF154
 6187 18cf 14       		.byte	0x14
 6188 18d0 77       		.byte	0x77
 6189 18d1 DB180000 		.4byte	0x18db
 6190 18d5 0F       		.uleb128 0xf
 6191 18d6 23010000 		.4byte	0x123
 6192 18da 00       		.byte	0
 6193 18db 34       		.uleb128 0x34
 6194 18dc F2050000 		.4byte	.LASF192
 6195 18e0 21       		.byte	0x21
 6196 18e1 00       		.byte	0
 6197 18e2 EB020000 		.4byte	.LASF193
 6198 18e6 B2000000 		.4byte	0xb2
 6199 18ea F9180000 		.4byte	0x18f9
 6200 18ee 0F       		.uleb128 0xf
 6201 18ef B2000000 		.4byte	0xb2
 6202 18f3 0F       		.uleb128 0xf
 6203 18f4 BF000000 		.4byte	0xbf
 6204 18f8 00       		.byte	0
 6205 18f9 35       		.uleb128 0x35
 6206 18fa 12010000 		.4byte	.LASF155
 6207 18fe 09       		.byte	0x9
 6208 18ff 9103     		.2byte	0x391
 6209 1901 D7010000 		.4byte	0x1d7
 6210 1905 1E190000 		.4byte	0x191e
 6211 1909 0F       		.uleb128 0xf
ARM GAS  C:\Users\koseki\AppData\Local\Temp\ccT0XNG9.s 			page 135


 6212 190a 4A020000 		.4byte	0x24a
 6213 190e 0F       		.uleb128 0xf
 6214 190f 1E190000 		.4byte	0x191e
 6215 1913 0F       		.uleb128 0xf
 6216 1914 ED010000 		.4byte	0x1ed
 6217 1918 0F       		.uleb128 0xf
 6218 1919 23190000 		.4byte	0x1923
 6219 191d 00       		.byte	0
 6220 191e 08       		.uleb128 0x8
 6221 191f A9000000 		.4byte	0xa9
 6222 1923 08       		.uleb128 0x8
 6223 1924 D7010000 		.4byte	0x1d7
 6224 1928 35       		.uleb128 0x35
 6225 1929 1E000000 		.4byte	.LASF156
 6226 192d 09       		.byte	0x9
 6227 192e A003     		.2byte	0x3a0
 6228 1930 E2010000 		.4byte	0x1e2
 6229 1934 3E190000 		.4byte	0x193e
 6230 1938 0F       		.uleb128 0xf
 6231 1939 3E190000 		.4byte	0x193e
 6232 193d 00       		.byte	0
 6233 193e 08       		.uleb128 0x8
 6234 193f 4A020000 		.4byte	0x24a
 6235 1943 35       		.uleb128 0x35
 6236 1944 84060000 		.4byte	.LASF157
 6237 1948 09       		.byte	0x9
 6238 1949 5002     		.2byte	0x250
 6239 194b D7010000 		.4byte	0x1d7
 6240 194f 68190000 		.4byte	0x1968
 6241 1953 0F       		.uleb128 0xf
 6242 1954 4A020000 		.4byte	0x24a
 6243 1958 0F       		.uleb128 0xf
 6244 1959 68190000 		.4byte	0x1968
 6245 195d 0F       		.uleb128 0xf
 6246 195e ED010000 		.4byte	0x1ed
 6247 1962 0F       		.uleb128 0xf
 6248 1963 23190000 		.4byte	0x1923
 6249 1967 00       		.byte	0
 6250 1968 08       		.uleb128 0x8
 6251 1969 99010000 		.4byte	0x199
 6252 196d 36       		.uleb128 0x36
 6253 196e EE070000 		.4byte	.LASF158
 6254 1972 12       		.byte	0x12
 6255 1973 53       		.byte	0x53
 6256 1974 36       		.uleb128 0x36
 6257 1975 8D030000 		.4byte	.LASF159
 6258 1979 15       		.byte	0x15
 6259 197a 93       		.byte	0x93
 6260 197b 36       		.uleb128 0x36
 6261 197c 00000000 		.4byte	.LASF160
 6262 1980 0F       		.byte	0xf
 6263 1981 3F       		.byte	0x3f
 6264 1982 36       		.uleb128 0x36
 6265 1983 99030000 		.4byte	.LASF161
 6266 1987 16       		.byte	0x16
 6267 1988 3F       		.byte	0x3f
 6268 1989 36       		.uleb128 0x36
ARM GAS  C:\Users\koseki\AppData\Local\Temp\ccT0XNG9.s 			page 136


 6269 198a 8A040000 		.4byte	.LASF162
 6270 198e 17       		.byte	0x17
 6271 198f 33       		.byte	0x33
 6272 1990 36       		.uleb128 0x36
 6273 1991 77050000 		.4byte	.LASF163
 6274 1995 10       		.byte	0x10
 6275 1996 3E       		.byte	0x3e
 6276 1997 36       		.uleb128 0x36
 6277 1998 96060000 		.4byte	.LASF164
 6278 199c 18       		.byte	0x18
 6279 199d 33       		.byte	0x33
 6280 199e 36       		.uleb128 0x36
 6281 199f 98010000 		.4byte	.LASF165
 6282 19a3 0E       		.byte	0xe
 6283 19a4 3A       		.byte	0x3a
 6284 19a5 36       		.uleb128 0x36
 6285 19a6 84050000 		.4byte	.LASF166
 6286 19aa 19       		.byte	0x19
 6287 19ab 23       		.byte	0x23
 6288 19ac 2E       		.uleb128 0x2e
 6289 19ad DE070000 		.4byte	.LASF167
 6290 19b1 1A       		.byte	0x1a
 6291 19b2 18       		.byte	0x18
 6292 19b3 BD190000 		.4byte	0x19bd
 6293 19b7 0F       		.uleb128 0xf
 6294 19b8 8D010000 		.4byte	0x18d
 6295 19bc 00       		.byte	0
 6296 19bd 36       		.uleb128 0x36
 6297 19be ED000000 		.4byte	.LASF168
 6298 19c2 0E       		.byte	0xe
 6299 19c3 3D       		.byte	0x3d
 6300 19c4 2E       		.uleb128 0x2e
 6301 19c5 57010000 		.4byte	.LASF169
 6302 19c9 0F       		.byte	0xf
 6303 19ca 44       		.byte	0x44
 6304 19cb D5190000 		.4byte	0x19d5
 6305 19cf 0F       		.uleb128 0xf
 6306 19d0 0B010000 		.4byte	0x10b
 6307 19d4 00       		.byte	0
 6308 19d5 36       		.uleb128 0x36
 6309 19d6 05010000 		.4byte	.LASF170
 6310 19da 1B       		.byte	0x1b
 6311 19db 1F       		.byte	0x1f
 6312 19dc 30       		.uleb128 0x30
 6313 19dd 8A020000 		.4byte	.LASF171
 6314 19e1 1C       		.byte	0x1c
 6315 19e2 46       		.byte	0x46
 6316 19e3 6B010000 		.4byte	0x16b
 6317 19e7 31       		.uleb128 0x31
 6318 19e8 A2040000 		.4byte	.LASF172
 6319 19ec 1B       		.byte	0x1b
 6320 19ed 26       		.byte	0x26
 6321 19ee 6B010000 		.4byte	0x16b
 6322 19f2 011A0000 		.4byte	0x1a01
 6323 19f6 0F       		.uleb128 0xf
 6324 19f7 011A0000 		.4byte	0x1a01
 6325 19fb 0F       		.uleb128 0xf
ARM GAS  C:\Users\koseki\AppData\Local\Temp\ccT0XNG9.s 			page 137


 6326 19fc 0B010000 		.4byte	0x10b
 6327 1a00 00       		.byte	0
 6328 1a01 06       		.uleb128 0x6
 6329 1a02 04       		.byte	0x4
 6330 1a03 071A0000 		.4byte	0x1a07
 6331 1a07 08       		.uleb128 0x8
 6332 1a08 0B010000 		.4byte	0x10b
 6333 1a0c 35       		.uleb128 0x35
 6334 1a0d 07040000 		.4byte	.LASF173
 6335 1a11 09       		.byte	0x9
 6336 1a12 C905     		.2byte	0x5c9
 6337 1a14 4A020000 		.4byte	0x24a
 6338 1a18 221A0000 		.4byte	0x1a22
 6339 1a1c 0F       		.uleb128 0xf
 6340 1a1d 221A0000 		.4byte	0x1a22
 6341 1a21 00       		.byte	0
 6342 1a22 08       		.uleb128 0x8
 6343 1a23 DF000000 		.4byte	0xdf
 6344 1a27 35       		.uleb128 0x35
 6345 1a28 4B060000 		.4byte	.LASF174
 6346 1a2c 09       		.byte	0x9
 6347 1a2d 0606     		.2byte	0x606
 6348 1a2f 4A020000 		.4byte	0x24a
 6349 1a33 471A0000 		.4byte	0x1a47
 6350 1a37 0F       		.uleb128 0xf
 6351 1a38 471A0000 		.4byte	0x1a47
 6352 1a3c 0F       		.uleb128 0xf
 6353 1a3d 471A0000 		.4byte	0x1a47
 6354 1a41 0F       		.uleb128 0xf
 6355 1a42 221A0000 		.4byte	0x1a22
 6356 1a46 00       		.byte	0
 6357 1a47 08       		.uleb128 0x8
 6358 1a48 E2010000 		.4byte	0x1e2
 6359 1a4c 35       		.uleb128 0x35
 6360 1a4d 8A000000 		.4byte	.LASF175
 6361 1a51 08       		.byte	0x8
 6362 1a52 C207     		.2byte	0x7c2
 6363 1a54 D7010000 		.4byte	0x1d7
 6364 1a58 851A0000 		.4byte	0x1a85
 6365 1a5c 0F       		.uleb128 0xf
 6366 1a5d B0010000 		.4byte	0x1b0
 6367 1a61 0F       		.uleb128 0xf
 6368 1a62 3F020000 		.4byte	0x23f
 6369 1a66 0F       		.uleb128 0xf
 6370 1a67 851A0000 		.4byte	0x1a85
 6371 1a6b 0F       		.uleb128 0xf
 6372 1a6c 1E190000 		.4byte	0x191e
 6373 1a70 0F       		.uleb128 0xf
 6374 1a71 E2010000 		.4byte	0x1e2
 6375 1a75 0F       		.uleb128 0xf
 6376 1a76 8A1A0000 		.4byte	0x1a8a
 6377 1a7a 0F       		.uleb128 0xf
 6378 1a7b 951A0000 		.4byte	0x1a95
 6379 1a7f 0F       		.uleb128 0xf
 6380 1a80 9A1A0000 		.4byte	0x1a9a
 6381 1a84 00       		.byte	0
 6382 1a85 08       		.uleb128 0x8
ARM GAS  C:\Users\koseki\AppData\Local\Temp\ccT0XNG9.s 			page 138


 6383 1a86 EA000000 		.4byte	0xea
 6384 1a8a 08       		.uleb128 0x8
 6385 1a8b 8F1A0000 		.4byte	0x1a8f
 6386 1a8f 06       		.uleb128 0x6
 6387 1a90 04       		.byte	0x4
 6388 1a91 F8010000 		.4byte	0x1f8
 6389 1a95 08       		.uleb128 0x8
 6390 1a96 44020000 		.4byte	0x244
 6391 1a9a 08       		.uleb128 0x8
 6392 1a9b 9F1A0000 		.4byte	0x1a9f
 6393 1a9f 06       		.uleb128 0x6
 6394 1aa0 04       		.byte	0x4
 6395 1aa1 A51A0000 		.4byte	0x1aa5
 6396 1aa5 08       		.uleb128 0x8
 6397 1aa6 34020000 		.4byte	0x234
 6398 1aaa 1C       		.uleb128 0x1c
 6399 1aab D7020000 		.4byte	.LASF176
 6400 1aaf 08       		.byte	0x8
 6401 1ab0 7B03     		.2byte	0x37b
 6402 1ab2 2E       		.uleb128 0x2e
 6403 1ab3 42050000 		.4byte	.LASF177
 6404 1ab7 1D       		.byte	0x1d
 6405 1ab8 3B       		.byte	0x3b
 6406 1ab9 C31A0000 		.4byte	0x1ac3
 6407 1abd 0F       		.uleb128 0xf
 6408 1abe 03070000 		.4byte	0x703
 6409 1ac2 00       		.byte	0
 6410 1ac3 30       		.uleb128 0x30
 6411 1ac4 62030000 		.4byte	.LASF178
 6412 1ac8 1D       		.byte	0x1d
 6413 1ac9 36       		.byte	0x36
 6414 1aca 0B010000 		.4byte	0x10b
 6415 1ace 30       		.uleb128 0x30
 6416 1acf 44030000 		.4byte	.LASF179
 6417 1ad3 1E       		.byte	0x1e
 6418 1ad4 29       		.byte	0x29
 6419 1ad5 0B010000 		.4byte	0x10b
 6420 1ad9 2E       		.uleb128 0x2e
 6421 1ada 71000000 		.4byte	.LASF180
 6422 1ade 1D       		.byte	0x1d
 6423 1adf 3E       		.byte	0x3e
 6424 1ae0 EA1A0000 		.4byte	0x1aea
 6425 1ae4 0F       		.uleb128 0xf
 6426 1ae5 03070000 		.4byte	0x703
 6427 1ae9 00       		.byte	0
 6428 1aea 36       		.uleb128 0x36
 6429 1aeb 7E090000 		.4byte	.LASF181
 6430 1aef 1F       		.byte	0x1f
 6431 1af0 69       		.byte	0x69
 6432 1af1 2F       		.uleb128 0x2f
 6433 1af2 32080000 		.4byte	.LASF182
 6434 1af6 20       		.byte	0x20
 6435 1af7 2A01     		.2byte	0x12a
 6436 1af9 081B0000 		.4byte	0x1b08
 6437 1afd 0F       		.uleb128 0xf
 6438 1afe 0B010000 		.4byte	0x10b
 6439 1b02 0F       		.uleb128 0xf
ARM GAS  C:\Users\koseki\AppData\Local\Temp\ccT0XNG9.s 			page 139


 6440 1b03 0B010000 		.4byte	0x10b
 6441 1b07 00       		.byte	0
 6442 1b08 37       		.uleb128 0x37
 6443 1b09 30010000 		.4byte	.LASF183
 6444 1b0d 20       		.byte	0x20
 6445 1b0e 2D01     		.2byte	0x12d
 6446 1b10 0B010000 		.4byte	0x10b
 6447 1b14 30       		.uleb128 0x30
 6448 1b15 79040000 		.4byte	.LASF184
 6449 1b19 1E       		.byte	0x1e
 6450 1b1a 22       		.byte	0x22
 6451 1b1b 0B010000 		.4byte	0x10b
 6452 1b1f 1C       		.uleb128 0x1c
 6453 1b20 3C000000 		.4byte	.LASF185
 6454 1b24 20       		.byte	0x20
 6455 1b25 2C01     		.2byte	0x12c
 6456 1b27 30       		.uleb128 0x30
 6457 1b28 09030000 		.4byte	.LASF186
 6458 1b2c 1E       		.byte	0x1e
 6459 1b2d 2D       		.byte	0x2d
 6460 1b2e 0B010000 		.4byte	0x10b
 6461 1b32 38       		.uleb128 0x38
 6462 1b33 D8040000 		.4byte	.LASF194
 6463 1b37 22       		.byte	0x22
 6464 1b38 28       		.byte	0x28
 6465 1b39 0F       		.uleb128 0xf
 6466 1b3a 0B010000 		.4byte	0x10b
 6467 1b3e 00       		.byte	0
 6468 1b3f 00       		.byte	0
 6469              		.section	.debug_abbrev,"",%progbits
 6470              	.Ldebug_abbrev0:
 6471 0000 01       		.uleb128 0x1
 6472 0001 11       		.uleb128 0x11
 6473 0002 01       		.byte	0x1
 6474 0003 25       		.uleb128 0x25
 6475 0004 0E       		.uleb128 0xe
 6476 0005 13       		.uleb128 0x13
 6477 0006 0B       		.uleb128 0xb
 6478 0007 03       		.uleb128 0x3
 6479 0008 0E       		.uleb128 0xe
 6480 0009 1B       		.uleb128 0x1b
 6481 000a 0E       		.uleb128 0xe
 6482 000b 55       		.uleb128 0x55
 6483 000c 17       		.uleb128 0x17
 6484 000d 11       		.uleb128 0x11
 6485 000e 01       		.uleb128 0x1
 6486 000f 10       		.uleb128 0x10
 6487 0010 17       		.uleb128 0x17
 6488 0011 00       		.byte	0
 6489 0012 00       		.byte	0
 6490 0013 02       		.uleb128 0x2
 6491 0014 24       		.uleb128 0x24
 6492 0015 00       		.byte	0
 6493 0016 0B       		.uleb128 0xb
 6494 0017 0B       		.uleb128 0xb
 6495 0018 3E       		.uleb128 0x3e
 6496 0019 0B       		.uleb128 0xb
ARM GAS  C:\Users\koseki\AppData\Local\Temp\ccT0XNG9.s 			page 140


 6497 001a 03       		.uleb128 0x3
 6498 001b 08       		.uleb128 0x8
 6499 001c 00       		.byte	0
 6500 001d 00       		.byte	0
 6501 001e 03       		.uleb128 0x3
 6502 001f 16       		.uleb128 0x16
 6503 0020 00       		.byte	0
 6504 0021 03       		.uleb128 0x3
 6505 0022 0E       		.uleb128 0xe
 6506 0023 3A       		.uleb128 0x3a
 6507 0024 0B       		.uleb128 0xb
 6508 0025 3B       		.uleb128 0x3b
 6509 0026 0B       		.uleb128 0xb
 6510 0027 49       		.uleb128 0x49
 6511 0028 13       		.uleb128 0x13
 6512 0029 00       		.byte	0
 6513 002a 00       		.byte	0
 6514 002b 04       		.uleb128 0x4
 6515 002c 24       		.uleb128 0x24
 6516 002d 00       		.byte	0
 6517 002e 0B       		.uleb128 0xb
 6518 002f 0B       		.uleb128 0xb
 6519 0030 3E       		.uleb128 0x3e
 6520 0031 0B       		.uleb128 0xb
 6521 0032 03       		.uleb128 0x3
 6522 0033 0E       		.uleb128 0xe
 6523 0034 00       		.byte	0
 6524 0035 00       		.byte	0
 6525 0036 05       		.uleb128 0x5
 6526 0037 0F       		.uleb128 0xf
 6527 0038 00       		.byte	0
 6528 0039 0B       		.uleb128 0xb
 6529 003a 0B       		.uleb128 0xb
 6530 003b 00       		.byte	0
 6531 003c 00       		.byte	0
 6532 003d 06       		.uleb128 0x6
 6533 003e 0F       		.uleb128 0xf
 6534 003f 00       		.byte	0
 6535 0040 0B       		.uleb128 0xb
 6536 0041 0B       		.uleb128 0xb
 6537 0042 49       		.uleb128 0x49
 6538 0043 13       		.uleb128 0x13
 6539 0044 00       		.byte	0
 6540 0045 00       		.byte	0
 6541 0046 07       		.uleb128 0x7
 6542 0047 15       		.uleb128 0x15
 6543 0048 00       		.byte	0
 6544 0049 27       		.uleb128 0x27
 6545 004a 19       		.uleb128 0x19
 6546 004b 00       		.byte	0
 6547 004c 00       		.byte	0
 6548 004d 08       		.uleb128 0x8
 6549 004e 26       		.uleb128 0x26
 6550 004f 00       		.byte	0
 6551 0050 49       		.uleb128 0x49
 6552 0051 13       		.uleb128 0x13
 6553 0052 00       		.byte	0
ARM GAS  C:\Users\koseki\AppData\Local\Temp\ccT0XNG9.s 			page 141


 6554 0053 00       		.byte	0
 6555 0054 09       		.uleb128 0x9
 6556 0055 16       		.uleb128 0x16
 6557 0056 00       		.byte	0
 6558 0057 03       		.uleb128 0x3
 6559 0058 0E       		.uleb128 0xe
 6560 0059 3A       		.uleb128 0x3a
 6561 005a 0B       		.uleb128 0xb
 6562 005b 3B       		.uleb128 0x3b
 6563 005c 05       		.uleb128 0x5
 6564 005d 49       		.uleb128 0x49
 6565 005e 13       		.uleb128 0x13
 6566 005f 00       		.byte	0
 6567 0060 00       		.byte	0
 6568 0061 0A       		.uleb128 0xa
 6569 0062 35       		.uleb128 0x35
 6570 0063 00       		.byte	0
 6571 0064 49       		.uleb128 0x49
 6572 0065 13       		.uleb128 0x13
 6573 0066 00       		.byte	0
 6574 0067 00       		.byte	0
 6575 0068 0B       		.uleb128 0xb
 6576 0069 26       		.uleb128 0x26
 6577 006a 00       		.byte	0
 6578 006b 00       		.byte	0
 6579 006c 00       		.byte	0
 6580 006d 0C       		.uleb128 0xc
 6581 006e 01       		.uleb128 0x1
 6582 006f 01       		.byte	0x1
 6583 0070 49       		.uleb128 0x49
 6584 0071 13       		.uleb128 0x13
 6585 0072 01       		.uleb128 0x1
 6586 0073 13       		.uleb128 0x13
 6587 0074 00       		.byte	0
 6588 0075 00       		.byte	0
 6589 0076 0D       		.uleb128 0xd
 6590 0077 21       		.uleb128 0x21
 6591 0078 00       		.byte	0
 6592 0079 49       		.uleb128 0x49
 6593 007a 13       		.uleb128 0x13
 6594 007b 2F       		.uleb128 0x2f
 6595 007c 0B       		.uleb128 0xb
 6596 007d 00       		.byte	0
 6597 007e 00       		.byte	0
 6598 007f 0E       		.uleb128 0xe
 6599 0080 15       		.uleb128 0x15
 6600 0081 01       		.byte	0x1
 6601 0082 27       		.uleb128 0x27
 6602 0083 19       		.uleb128 0x19
 6603 0084 01       		.uleb128 0x1
 6604 0085 13       		.uleb128 0x13
 6605 0086 00       		.byte	0
 6606 0087 00       		.byte	0
 6607 0088 0F       		.uleb128 0xf
 6608 0089 05       		.uleb128 0x5
 6609 008a 00       		.byte	0
 6610 008b 49       		.uleb128 0x49
ARM GAS  C:\Users\koseki\AppData\Local\Temp\ccT0XNG9.s 			page 142


 6611 008c 13       		.uleb128 0x13
 6612 008d 00       		.byte	0
 6613 008e 00       		.byte	0
 6614 008f 10       		.uleb128 0x10
 6615 0090 13       		.uleb128 0x13
 6616 0091 01       		.byte	0x1
 6617 0092 03       		.uleb128 0x3
 6618 0093 0E       		.uleb128 0xe
 6619 0094 0B       		.uleb128 0xb
 6620 0095 0B       		.uleb128 0xb
 6621 0096 3A       		.uleb128 0x3a
 6622 0097 0B       		.uleb128 0xb
 6623 0098 3B       		.uleb128 0x3b
 6624 0099 0B       		.uleb128 0xb
 6625 009a 01       		.uleb128 0x1
 6626 009b 13       		.uleb128 0x13
 6627 009c 00       		.byte	0
 6628 009d 00       		.byte	0
 6629 009e 11       		.uleb128 0x11
 6630 009f 0D       		.uleb128 0xd
 6631 00a0 00       		.byte	0
 6632 00a1 03       		.uleb128 0x3
 6633 00a2 0E       		.uleb128 0xe
 6634 00a3 3A       		.uleb128 0x3a
 6635 00a4 0B       		.uleb128 0xb
 6636 00a5 3B       		.uleb128 0x3b
 6637 00a6 0B       		.uleb128 0xb
 6638 00a7 49       		.uleb128 0x49
 6639 00a8 13       		.uleb128 0x13
 6640 00a9 38       		.uleb128 0x38
 6641 00aa 0B       		.uleb128 0xb
 6642 00ab 00       		.byte	0
 6643 00ac 00       		.byte	0
 6644 00ad 12       		.uleb128 0x12
 6645 00ae 13       		.uleb128 0x13
 6646 00af 01       		.byte	0x1
 6647 00b0 0B       		.uleb128 0xb
 6648 00b1 0B       		.uleb128 0xb
 6649 00b2 3A       		.uleb128 0x3a
 6650 00b3 0B       		.uleb128 0xb
 6651 00b4 3B       		.uleb128 0x3b
 6652 00b5 0B       		.uleb128 0xb
 6653 00b6 01       		.uleb128 0x1
 6654 00b7 13       		.uleb128 0x13
 6655 00b8 00       		.byte	0
 6656 00b9 00       		.byte	0
 6657 00ba 13       		.uleb128 0x13
 6658 00bb 2E       		.uleb128 0x2e
 6659 00bc 01       		.byte	0x1
 6660 00bd 3F       		.uleb128 0x3f
 6661 00be 19       		.uleb128 0x19
 6662 00bf 03       		.uleb128 0x3
 6663 00c0 0E       		.uleb128 0xe
 6664 00c1 3A       		.uleb128 0x3a
 6665 00c2 0B       		.uleb128 0xb
 6666 00c3 3B       		.uleb128 0x3b
 6667 00c4 05       		.uleb128 0x5
ARM GAS  C:\Users\koseki\AppData\Local\Temp\ccT0XNG9.s 			page 143


 6668 00c5 27       		.uleb128 0x27
 6669 00c6 19       		.uleb128 0x19
 6670 00c7 11       		.uleb128 0x11
 6671 00c8 01       		.uleb128 0x1
 6672 00c9 12       		.uleb128 0x12
 6673 00ca 06       		.uleb128 0x6
 6674 00cb 40       		.uleb128 0x40
 6675 00cc 18       		.uleb128 0x18
 6676 00cd 9742     		.uleb128 0x2117
 6677 00cf 19       		.uleb128 0x19
 6678 00d0 01       		.uleb128 0x1
 6679 00d1 13       		.uleb128 0x13
 6680 00d2 00       		.byte	0
 6681 00d3 00       		.byte	0
 6682 00d4 14       		.uleb128 0x14
 6683 00d5 05       		.uleb128 0x5
 6684 00d6 00       		.byte	0
 6685 00d7 03       		.uleb128 0x3
 6686 00d8 0E       		.uleb128 0xe
 6687 00d9 3A       		.uleb128 0x3a
 6688 00da 0B       		.uleb128 0xb
 6689 00db 3B       		.uleb128 0x3b
 6690 00dc 05       		.uleb128 0x5
 6691 00dd 49       		.uleb128 0x49
 6692 00de 13       		.uleb128 0x13
 6693 00df 02       		.uleb128 0x2
 6694 00e0 17       		.uleb128 0x17
 6695 00e1 00       		.byte	0
 6696 00e2 00       		.byte	0
 6697 00e3 15       		.uleb128 0x15
 6698 00e4 34       		.uleb128 0x34
 6699 00e5 00       		.byte	0
 6700 00e6 03       		.uleb128 0x3
 6701 00e7 0E       		.uleb128 0xe
 6702 00e8 3A       		.uleb128 0x3a
 6703 00e9 0B       		.uleb128 0xb
 6704 00ea 3B       		.uleb128 0x3b
 6705 00eb 05       		.uleb128 0x5
 6706 00ec 49       		.uleb128 0x49
 6707 00ed 13       		.uleb128 0x13
 6708 00ee 00       		.byte	0
 6709 00ef 00       		.byte	0
 6710 00f0 16       		.uleb128 0x16
 6711 00f1 898201   		.uleb128 0x4109
 6712 00f4 01       		.byte	0x1
 6713 00f5 11       		.uleb128 0x11
 6714 00f6 01       		.uleb128 0x1
 6715 00f7 31       		.uleb128 0x31
 6716 00f8 13       		.uleb128 0x13
 6717 00f9 01       		.uleb128 0x1
 6718 00fa 13       		.uleb128 0x13
 6719 00fb 00       		.byte	0
 6720 00fc 00       		.byte	0
 6721 00fd 17       		.uleb128 0x17
 6722 00fe 8A8201   		.uleb128 0x410a
 6723 0101 00       		.byte	0
 6724 0102 02       		.uleb128 0x2
ARM GAS  C:\Users\koseki\AppData\Local\Temp\ccT0XNG9.s 			page 144


 6725 0103 18       		.uleb128 0x18
 6726 0104 9142     		.uleb128 0x2111
 6727 0106 18       		.uleb128 0x18
 6728 0107 00       		.byte	0
 6729 0108 00       		.byte	0
 6730 0109 18       		.uleb128 0x18
 6731 010a 898201   		.uleb128 0x4109
 6732 010d 01       		.byte	0x1
 6733 010e 11       		.uleb128 0x11
 6734 010f 01       		.uleb128 0x1
 6735 0110 31       		.uleb128 0x31
 6736 0111 13       		.uleb128 0x13
 6737 0112 00       		.byte	0
 6738 0113 00       		.byte	0
 6739 0114 19       		.uleb128 0x19
 6740 0115 34       		.uleb128 0x34
 6741 0116 00       		.byte	0
 6742 0117 03       		.uleb128 0x3
 6743 0118 0E       		.uleb128 0xe
 6744 0119 3A       		.uleb128 0x3a
 6745 011a 0B       		.uleb128 0xb
 6746 011b 3B       		.uleb128 0x3b
 6747 011c 05       		.uleb128 0x5
 6748 011d 49       		.uleb128 0x49
 6749 011e 13       		.uleb128 0x13
 6750 011f 02       		.uleb128 0x2
 6751 0120 17       		.uleb128 0x17
 6752 0121 00       		.byte	0
 6753 0122 00       		.byte	0
 6754 0123 1A       		.uleb128 0x1a
 6755 0124 34       		.uleb128 0x34
 6756 0125 00       		.byte	0
 6757 0126 03       		.uleb128 0x3
 6758 0127 08       		.uleb128 0x8
 6759 0128 3A       		.uleb128 0x3a
 6760 0129 0B       		.uleb128 0xb
 6761 012a 3B       		.uleb128 0x3b
 6762 012b 05       		.uleb128 0x5
 6763 012c 49       		.uleb128 0x49
 6764 012d 13       		.uleb128 0x13
 6765 012e 02       		.uleb128 0x2
 6766 012f 17       		.uleb128 0x17
 6767 0130 00       		.byte	0
 6768 0131 00       		.byte	0
 6769 0132 1B       		.uleb128 0x1b
 6770 0133 898201   		.uleb128 0x4109
 6771 0136 00       		.byte	0
 6772 0137 11       		.uleb128 0x11
 6773 0138 01       		.uleb128 0x1
 6774 0139 31       		.uleb128 0x31
 6775 013a 13       		.uleb128 0x13
 6776 013b 00       		.byte	0
 6777 013c 00       		.byte	0
 6778 013d 1C       		.uleb128 0x1c
 6779 013e 2E       		.uleb128 0x2e
 6780 013f 00       		.byte	0
 6781 0140 3F       		.uleb128 0x3f
ARM GAS  C:\Users\koseki\AppData\Local\Temp\ccT0XNG9.s 			page 145


 6782 0141 19       		.uleb128 0x19
 6783 0142 03       		.uleb128 0x3
 6784 0143 0E       		.uleb128 0xe
 6785 0144 3A       		.uleb128 0x3a
 6786 0145 0B       		.uleb128 0xb
 6787 0146 3B       		.uleb128 0x3b
 6788 0147 05       		.uleb128 0x5
 6789 0148 27       		.uleb128 0x27
 6790 0149 19       		.uleb128 0x19
 6791 014a 3C       		.uleb128 0x3c
 6792 014b 19       		.uleb128 0x19
 6793 014c 00       		.byte	0
 6794 014d 00       		.byte	0
 6795 014e 1D       		.uleb128 0x1d
 6796 014f 34       		.uleb128 0x34
 6797 0150 00       		.byte	0
 6798 0151 03       		.uleb128 0x3
 6799 0152 0E       		.uleb128 0xe
 6800 0153 3A       		.uleb128 0x3a
 6801 0154 0B       		.uleb128 0xb
 6802 0155 3B       		.uleb128 0x3b
 6803 0156 05       		.uleb128 0x5
 6804 0157 49       		.uleb128 0x49
 6805 0158 13       		.uleb128 0x13
 6806 0159 3F       		.uleb128 0x3f
 6807 015a 19       		.uleb128 0x19
 6808 015b 3C       		.uleb128 0x3c
 6809 015c 19       		.uleb128 0x19
 6810 015d 00       		.byte	0
 6811 015e 00       		.byte	0
 6812 015f 1E       		.uleb128 0x1e
 6813 0160 21       		.uleb128 0x21
 6814 0161 00       		.byte	0
 6815 0162 00       		.byte	0
 6816 0163 00       		.byte	0
 6817 0164 1F       		.uleb128 0x1f
 6818 0165 34       		.uleb128 0x34
 6819 0166 00       		.byte	0
 6820 0167 03       		.uleb128 0x3
 6821 0168 0E       		.uleb128 0xe
 6822 0169 3A       		.uleb128 0x3a
 6823 016a 0B       		.uleb128 0xb
 6824 016b 3B       		.uleb128 0x3b
 6825 016c 05       		.uleb128 0x5
 6826 016d 49       		.uleb128 0x49
 6827 016e 13       		.uleb128 0x13
 6828 016f 02       		.uleb128 0x2
 6829 0170 18       		.uleb128 0x18
 6830 0171 00       		.byte	0
 6831 0172 00       		.byte	0
 6832 0173 20       		.uleb128 0x20
 6833 0174 34       		.uleb128 0x34
 6834 0175 00       		.byte	0
 6835 0176 03       		.uleb128 0x3
 6836 0177 08       		.uleb128 0x8
 6837 0178 3A       		.uleb128 0x3a
 6838 0179 0B       		.uleb128 0xb
ARM GAS  C:\Users\koseki\AppData\Local\Temp\ccT0XNG9.s 			page 146


 6839 017a 3B       		.uleb128 0x3b
 6840 017b 05       		.uleb128 0x5
 6841 017c 49       		.uleb128 0x49
 6842 017d 13       		.uleb128 0x13
 6843 017e 02       		.uleb128 0x2
 6844 017f 18       		.uleb128 0x18
 6845 0180 00       		.byte	0
 6846 0181 00       		.byte	0
 6847 0182 21       		.uleb128 0x21
 6848 0183 05       		.uleb128 0x5
 6849 0184 00       		.byte	0
 6850 0185 03       		.uleb128 0x3
 6851 0186 08       		.uleb128 0x8
 6852 0187 3A       		.uleb128 0x3a
 6853 0188 0B       		.uleb128 0xb
 6854 0189 3B       		.uleb128 0x3b
 6855 018a 05       		.uleb128 0x5
 6856 018b 49       		.uleb128 0x49
 6857 018c 13       		.uleb128 0x13
 6858 018d 02       		.uleb128 0x2
 6859 018e 17       		.uleb128 0x17
 6860 018f 00       		.byte	0
 6861 0190 00       		.byte	0
 6862 0191 22       		.uleb128 0x22
 6863 0192 2E       		.uleb128 0x2e
 6864 0193 01       		.byte	0x1
 6865 0194 3F       		.uleb128 0x3f
 6866 0195 19       		.uleb128 0x19
 6867 0196 03       		.uleb128 0x3
 6868 0197 0E       		.uleb128 0xe
 6869 0198 3A       		.uleb128 0x3a
 6870 0199 0B       		.uleb128 0xb
 6871 019a 3B       		.uleb128 0x3b
 6872 019b 05       		.uleb128 0x5
 6873 019c 27       		.uleb128 0x27
 6874 019d 19       		.uleb128 0x19
 6875 019e 49       		.uleb128 0x49
 6876 019f 13       		.uleb128 0x13
 6877 01a0 11       		.uleb128 0x11
 6878 01a1 01       		.uleb128 0x1
 6879 01a2 12       		.uleb128 0x12
 6880 01a3 06       		.uleb128 0x6
 6881 01a4 40       		.uleb128 0x40
 6882 01a5 18       		.uleb128 0x18
 6883 01a6 9742     		.uleb128 0x2117
 6884 01a8 19       		.uleb128 0x19
 6885 01a9 01       		.uleb128 0x1
 6886 01aa 13       		.uleb128 0x13
 6887 01ab 00       		.byte	0
 6888 01ac 00       		.byte	0
 6889 01ad 23       		.uleb128 0x23
 6890 01ae 2E       		.uleb128 0x2e
 6891 01af 01       		.byte	0x1
 6892 01b0 3F       		.uleb128 0x3f
 6893 01b1 19       		.uleb128 0x19
 6894 01b2 03       		.uleb128 0x3
 6895 01b3 0E       		.uleb128 0xe
ARM GAS  C:\Users\koseki\AppData\Local\Temp\ccT0XNG9.s 			page 147


 6896 01b4 3A       		.uleb128 0x3a
 6897 01b5 0B       		.uleb128 0xb
 6898 01b6 3B       		.uleb128 0x3b
 6899 01b7 05       		.uleb128 0x5
 6900 01b8 27       		.uleb128 0x27
 6901 01b9 19       		.uleb128 0x19
 6902 01ba 11       		.uleb128 0x11
 6903 01bb 01       		.uleb128 0x1
 6904 01bc 12       		.uleb128 0x12
 6905 01bd 06       		.uleb128 0x6
 6906 01be 40       		.uleb128 0x40
 6907 01bf 18       		.uleb128 0x18
 6908 01c0 9642     		.uleb128 0x2116
 6909 01c2 19       		.uleb128 0x19
 6910 01c3 01       		.uleb128 0x1
 6911 01c4 13       		.uleb128 0x13
 6912 01c5 00       		.byte	0
 6913 01c6 00       		.byte	0
 6914 01c7 24       		.uleb128 0x24
 6915 01c8 34       		.uleb128 0x34
 6916 01c9 00       		.byte	0
 6917 01ca 03       		.uleb128 0x3
 6918 01cb 0E       		.uleb128 0xe
 6919 01cc 3A       		.uleb128 0x3a
 6920 01cd 0B       		.uleb128 0xb
 6921 01ce 3B       		.uleb128 0x3b
 6922 01cf 05       		.uleb128 0x5
 6923 01d0 49       		.uleb128 0x49
 6924 01d1 13       		.uleb128 0x13
 6925 01d2 1C       		.uleb128 0x1c
 6926 01d3 0B       		.uleb128 0xb
 6927 01d4 00       		.byte	0
 6928 01d5 00       		.byte	0
 6929 01d6 25       		.uleb128 0x25
 6930 01d7 2E       		.uleb128 0x2e
 6931 01d8 01       		.byte	0x1
 6932 01d9 3F       		.uleb128 0x3f
 6933 01da 19       		.uleb128 0x19
 6934 01db 03       		.uleb128 0x3
 6935 01dc 0E       		.uleb128 0xe
 6936 01dd 3A       		.uleb128 0x3a
 6937 01de 0B       		.uleb128 0xb
 6938 01df 3B       		.uleb128 0x3b
 6939 01e0 0B       		.uleb128 0xb
 6940 01e1 27       		.uleb128 0x27
 6941 01e2 19       		.uleb128 0x19
 6942 01e3 11       		.uleb128 0x11
 6943 01e4 01       		.uleb128 0x1
 6944 01e5 12       		.uleb128 0x12
 6945 01e6 06       		.uleb128 0x6
 6946 01e7 40       		.uleb128 0x40
 6947 01e8 18       		.uleb128 0x18
 6948 01e9 9742     		.uleb128 0x2117
 6949 01eb 19       		.uleb128 0x19
 6950 01ec 01       		.uleb128 0x1
 6951 01ed 13       		.uleb128 0x13
 6952 01ee 00       		.byte	0
ARM GAS  C:\Users\koseki\AppData\Local\Temp\ccT0XNG9.s 			page 148


 6953 01ef 00       		.byte	0
 6954 01f0 26       		.uleb128 0x26
 6955 01f1 34       		.uleb128 0x34
 6956 01f2 00       		.byte	0
 6957 01f3 03       		.uleb128 0x3
 6958 01f4 08       		.uleb128 0x8
 6959 01f5 3A       		.uleb128 0x3a
 6960 01f6 0B       		.uleb128 0xb
 6961 01f7 3B       		.uleb128 0x3b
 6962 01f8 0B       		.uleb128 0xb
 6963 01f9 49       		.uleb128 0x49
 6964 01fa 13       		.uleb128 0x13
 6965 01fb 02       		.uleb128 0x2
 6966 01fc 17       		.uleb128 0x17
 6967 01fd 00       		.byte	0
 6968 01fe 00       		.byte	0
 6969 01ff 27       		.uleb128 0x27
 6970 0200 34       		.uleb128 0x34
 6971 0201 00       		.byte	0
 6972 0202 03       		.uleb128 0x3
 6973 0203 08       		.uleb128 0x8
 6974 0204 3A       		.uleb128 0x3a
 6975 0205 0B       		.uleb128 0xb
 6976 0206 3B       		.uleb128 0x3b
 6977 0207 0B       		.uleb128 0xb
 6978 0208 49       		.uleb128 0x49
 6979 0209 13       		.uleb128 0x13
 6980 020a 02       		.uleb128 0x2
 6981 020b 18       		.uleb128 0x18
 6982 020c 00       		.byte	0
 6983 020d 00       		.byte	0
 6984 020e 28       		.uleb128 0x28
 6985 020f 34       		.uleb128 0x34
 6986 0210 00       		.byte	0
 6987 0211 03       		.uleb128 0x3
 6988 0212 08       		.uleb128 0x8
 6989 0213 3A       		.uleb128 0x3a
 6990 0214 0B       		.uleb128 0xb
 6991 0215 3B       		.uleb128 0x3b
 6992 0216 0B       		.uleb128 0xb
 6993 0217 49       		.uleb128 0x49
 6994 0218 13       		.uleb128 0x13
 6995 0219 00       		.byte	0
 6996 021a 00       		.byte	0
 6997 021b 29       		.uleb128 0x29
 6998 021c 2E       		.uleb128 0x2e
 6999 021d 01       		.byte	0x1
 7000 021e 3F       		.uleb128 0x3f
 7001 021f 19       		.uleb128 0x19
 7002 0220 03       		.uleb128 0x3
 7003 0221 0E       		.uleb128 0xe
 7004 0222 3A       		.uleb128 0x3a
 7005 0223 0B       		.uleb128 0xb
 7006 0224 3B       		.uleb128 0x3b
 7007 0225 0B       		.uleb128 0xb
 7008 0226 49       		.uleb128 0x49
 7009 0227 13       		.uleb128 0x13
ARM GAS  C:\Users\koseki\AppData\Local\Temp\ccT0XNG9.s 			page 149


 7010 0228 11       		.uleb128 0x11
 7011 0229 01       		.uleb128 0x1
 7012 022a 12       		.uleb128 0x12
 7013 022b 06       		.uleb128 0x6
 7014 022c 40       		.uleb128 0x40
 7015 022d 18       		.uleb128 0x18
 7016 022e 9742     		.uleb128 0x2117
 7017 0230 19       		.uleb128 0x19
 7018 0231 01       		.uleb128 0x1
 7019 0232 13       		.uleb128 0x13
 7020 0233 00       		.byte	0
 7021 0234 00       		.byte	0
 7022 0235 2A       		.uleb128 0x2a
 7023 0236 21       		.uleb128 0x21
 7024 0237 00       		.byte	0
 7025 0238 49       		.uleb128 0x49
 7026 0239 13       		.uleb128 0x13
 7027 023a 2F       		.uleb128 0x2f
 7028 023b 05       		.uleb128 0x5
 7029 023c 00       		.byte	0
 7030 023d 00       		.byte	0
 7031 023e 2B       		.uleb128 0x2b
 7032 023f 34       		.uleb128 0x34
 7033 0240 00       		.byte	0
 7034 0241 03       		.uleb128 0x3
 7035 0242 0E       		.uleb128 0xe
 7036 0243 3A       		.uleb128 0x3a
 7037 0244 0B       		.uleb128 0xb
 7038 0245 3B       		.uleb128 0x3b
 7039 0246 0B       		.uleb128 0xb
 7040 0247 49       		.uleb128 0x49
 7041 0248 13       		.uleb128 0x13
 7042 0249 3F       		.uleb128 0x3f
 7043 024a 19       		.uleb128 0x19
 7044 024b 3C       		.uleb128 0x3c
 7045 024c 19       		.uleb128 0x19
 7046 024d 00       		.byte	0
 7047 024e 00       		.byte	0
 7048 024f 2C       		.uleb128 0x2c
 7049 0250 34       		.uleb128 0x34
 7050 0251 00       		.byte	0
 7051 0252 03       		.uleb128 0x3
 7052 0253 0E       		.uleb128 0xe
 7053 0254 3A       		.uleb128 0x3a
 7054 0255 0B       		.uleb128 0xb
 7055 0256 3B       		.uleb128 0x3b
 7056 0257 0B       		.uleb128 0xb
 7057 0258 49       		.uleb128 0x49
 7058 0259 13       		.uleb128 0x13
 7059 025a 3F       		.uleb128 0x3f
 7060 025b 19       		.uleb128 0x19
 7061 025c 02       		.uleb128 0x2
 7062 025d 18       		.uleb128 0x18
 7063 025e 00       		.byte	0
 7064 025f 00       		.byte	0
 7065 0260 2D       		.uleb128 0x2d
 7066 0261 34       		.uleb128 0x34
ARM GAS  C:\Users\koseki\AppData\Local\Temp\ccT0XNG9.s 			page 150


 7067 0262 00       		.byte	0
 7068 0263 03       		.uleb128 0x3
 7069 0264 08       		.uleb128 0x8
 7070 0265 3A       		.uleb128 0x3a
 7071 0266 0B       		.uleb128 0xb
 7072 0267 3B       		.uleb128 0x3b
 7073 0268 0B       		.uleb128 0xb
 7074 0269 49       		.uleb128 0x49
 7075 026a 13       		.uleb128 0x13
 7076 026b 3F       		.uleb128 0x3f
 7077 026c 19       		.uleb128 0x19
 7078 026d 02       		.uleb128 0x2
 7079 026e 18       		.uleb128 0x18
 7080 026f 00       		.byte	0
 7081 0270 00       		.byte	0
 7082 0271 2E       		.uleb128 0x2e
 7083 0272 2E       		.uleb128 0x2e
 7084 0273 01       		.byte	0x1
 7085 0274 3F       		.uleb128 0x3f
 7086 0275 19       		.uleb128 0x19
 7087 0276 03       		.uleb128 0x3
 7088 0277 0E       		.uleb128 0xe
 7089 0278 3A       		.uleb128 0x3a
 7090 0279 0B       		.uleb128 0xb
 7091 027a 3B       		.uleb128 0x3b
 7092 027b 0B       		.uleb128 0xb
 7093 027c 27       		.uleb128 0x27
 7094 027d 19       		.uleb128 0x19
 7095 027e 3C       		.uleb128 0x3c
 7096 027f 19       		.uleb128 0x19
 7097 0280 01       		.uleb128 0x1
 7098 0281 13       		.uleb128 0x13
 7099 0282 00       		.byte	0
 7100 0283 00       		.byte	0
 7101 0284 2F       		.uleb128 0x2f
 7102 0285 2E       		.uleb128 0x2e
 7103 0286 01       		.byte	0x1
 7104 0287 3F       		.uleb128 0x3f
 7105 0288 19       		.uleb128 0x19
 7106 0289 03       		.uleb128 0x3
 7107 028a 0E       		.uleb128 0xe
 7108 028b 3A       		.uleb128 0x3a
 7109 028c 0B       		.uleb128 0xb
 7110 028d 3B       		.uleb128 0x3b
 7111 028e 05       		.uleb128 0x5
 7112 028f 27       		.uleb128 0x27
 7113 0290 19       		.uleb128 0x19
 7114 0291 3C       		.uleb128 0x3c
 7115 0292 19       		.uleb128 0x19
 7116 0293 01       		.uleb128 0x1
 7117 0294 13       		.uleb128 0x13
 7118 0295 00       		.byte	0
 7119 0296 00       		.byte	0
 7120 0297 30       		.uleb128 0x30
 7121 0298 2E       		.uleb128 0x2e
 7122 0299 00       		.byte	0
 7123 029a 3F       		.uleb128 0x3f
ARM GAS  C:\Users\koseki\AppData\Local\Temp\ccT0XNG9.s 			page 151


 7124 029b 19       		.uleb128 0x19
 7125 029c 03       		.uleb128 0x3
 7126 029d 0E       		.uleb128 0xe
 7127 029e 3A       		.uleb128 0x3a
 7128 029f 0B       		.uleb128 0xb
 7129 02a0 3B       		.uleb128 0x3b
 7130 02a1 0B       		.uleb128 0xb
 7131 02a2 27       		.uleb128 0x27
 7132 02a3 19       		.uleb128 0x19
 7133 02a4 49       		.uleb128 0x49
 7134 02a5 13       		.uleb128 0x13
 7135 02a6 3C       		.uleb128 0x3c
 7136 02a7 19       		.uleb128 0x19
 7137 02a8 00       		.byte	0
 7138 02a9 00       		.byte	0
 7139 02aa 31       		.uleb128 0x31
 7140 02ab 2E       		.uleb128 0x2e
 7141 02ac 01       		.byte	0x1
 7142 02ad 3F       		.uleb128 0x3f
 7143 02ae 19       		.uleb128 0x19
 7144 02af 03       		.uleb128 0x3
 7145 02b0 0E       		.uleb128 0xe
 7146 02b1 3A       		.uleb128 0x3a
 7147 02b2 0B       		.uleb128 0xb
 7148 02b3 3B       		.uleb128 0x3b
 7149 02b4 0B       		.uleb128 0xb
 7150 02b5 27       		.uleb128 0x27
 7151 02b6 19       		.uleb128 0x19
 7152 02b7 49       		.uleb128 0x49
 7153 02b8 13       		.uleb128 0x13
 7154 02b9 3C       		.uleb128 0x3c
 7155 02ba 19       		.uleb128 0x19
 7156 02bb 01       		.uleb128 0x1
 7157 02bc 13       		.uleb128 0x13
 7158 02bd 00       		.byte	0
 7159 02be 00       		.byte	0
 7160 02bf 32       		.uleb128 0x32
 7161 02c0 2E       		.uleb128 0x2e
 7162 02c1 01       		.byte	0x1
 7163 02c2 3F       		.uleb128 0x3f
 7164 02c3 19       		.uleb128 0x19
 7165 02c4 03       		.uleb128 0x3
 7166 02c5 0E       		.uleb128 0xe
 7167 02c6 27       		.uleb128 0x27
 7168 02c7 19       		.uleb128 0x19
 7169 02c8 49       		.uleb128 0x49
 7170 02c9 13       		.uleb128 0x13
 7171 02ca 34       		.uleb128 0x34
 7172 02cb 19       		.uleb128 0x19
 7173 02cc 3C       		.uleb128 0x3c
 7174 02cd 19       		.uleb128 0x19
 7175 02ce 01       		.uleb128 0x1
 7176 02cf 13       		.uleb128 0x13
 7177 02d0 00       		.byte	0
 7178 02d1 00       		.byte	0
 7179 02d2 33       		.uleb128 0x33
 7180 02d3 18       		.uleb128 0x18
ARM GAS  C:\Users\koseki\AppData\Local\Temp\ccT0XNG9.s 			page 152


 7181 02d4 00       		.byte	0
 7182 02d5 00       		.byte	0
 7183 02d6 00       		.byte	0
 7184 02d7 34       		.uleb128 0x34
 7185 02d8 2E       		.uleb128 0x2e
 7186 02d9 01       		.byte	0x1
 7187 02da 3F       		.uleb128 0x3f
 7188 02db 19       		.uleb128 0x19
 7189 02dc 03       		.uleb128 0x3
 7190 02dd 0E       		.uleb128 0xe
 7191 02de 3A       		.uleb128 0x3a
 7192 02df 0B       		.uleb128 0xb
 7193 02e0 3B       		.uleb128 0x3b
 7194 02e1 0B       		.uleb128 0xb
 7195 02e2 6E       		.uleb128 0x6e
 7196 02e3 0E       		.uleb128 0xe
 7197 02e4 27       		.uleb128 0x27
 7198 02e5 19       		.uleb128 0x19
 7199 02e6 49       		.uleb128 0x49
 7200 02e7 13       		.uleb128 0x13
 7201 02e8 3C       		.uleb128 0x3c
 7202 02e9 19       		.uleb128 0x19
 7203 02ea 01       		.uleb128 0x1
 7204 02eb 13       		.uleb128 0x13
 7205 02ec 00       		.byte	0
 7206 02ed 00       		.byte	0
 7207 02ee 35       		.uleb128 0x35
 7208 02ef 2E       		.uleb128 0x2e
 7209 02f0 01       		.byte	0x1
 7210 02f1 3F       		.uleb128 0x3f
 7211 02f2 19       		.uleb128 0x19
 7212 02f3 03       		.uleb128 0x3
 7213 02f4 0E       		.uleb128 0xe
 7214 02f5 3A       		.uleb128 0x3a
 7215 02f6 0B       		.uleb128 0xb
 7216 02f7 3B       		.uleb128 0x3b
 7217 02f8 05       		.uleb128 0x5
 7218 02f9 27       		.uleb128 0x27
 7219 02fa 19       		.uleb128 0x19
 7220 02fb 49       		.uleb128 0x49
 7221 02fc 13       		.uleb128 0x13
 7222 02fd 3C       		.uleb128 0x3c
 7223 02fe 19       		.uleb128 0x19
 7224 02ff 01       		.uleb128 0x1
 7225 0300 13       		.uleb128 0x13
 7226 0301 00       		.byte	0
 7227 0302 00       		.byte	0
 7228 0303 36       		.uleb128 0x36
 7229 0304 2E       		.uleb128 0x2e
 7230 0305 00       		.byte	0
 7231 0306 3F       		.uleb128 0x3f
 7232 0307 19       		.uleb128 0x19
 7233 0308 03       		.uleb128 0x3
 7234 0309 0E       		.uleb128 0xe
 7235 030a 3A       		.uleb128 0x3a
 7236 030b 0B       		.uleb128 0xb
 7237 030c 3B       		.uleb128 0x3b
ARM GAS  C:\Users\koseki\AppData\Local\Temp\ccT0XNG9.s 			page 153


 7238 030d 0B       		.uleb128 0xb
 7239 030e 27       		.uleb128 0x27
 7240 030f 19       		.uleb128 0x19
 7241 0310 3C       		.uleb128 0x3c
 7242 0311 19       		.uleb128 0x19
 7243 0312 00       		.byte	0
 7244 0313 00       		.byte	0
 7245 0314 37       		.uleb128 0x37
 7246 0315 2E       		.uleb128 0x2e
 7247 0316 00       		.byte	0
 7248 0317 3F       		.uleb128 0x3f
 7249 0318 19       		.uleb128 0x19
 7250 0319 03       		.uleb128 0x3
 7251 031a 0E       		.uleb128 0xe
 7252 031b 3A       		.uleb128 0x3a
 7253 031c 0B       		.uleb128 0xb
 7254 031d 3B       		.uleb128 0x3b
 7255 031e 05       		.uleb128 0x5
 7256 031f 27       		.uleb128 0x27
 7257 0320 19       		.uleb128 0x19
 7258 0321 49       		.uleb128 0x49
 7259 0322 13       		.uleb128 0x13
 7260 0323 3C       		.uleb128 0x3c
 7261 0324 19       		.uleb128 0x19
 7262 0325 00       		.byte	0
 7263 0326 00       		.byte	0
 7264 0327 38       		.uleb128 0x38
 7265 0328 2E       		.uleb128 0x2e
 7266 0329 01       		.byte	0x1
 7267 032a 3F       		.uleb128 0x3f
 7268 032b 19       		.uleb128 0x19
 7269 032c 03       		.uleb128 0x3
 7270 032d 0E       		.uleb128 0xe
 7271 032e 3A       		.uleb128 0x3a
 7272 032f 0B       		.uleb128 0xb
 7273 0330 3B       		.uleb128 0x3b
 7274 0331 0B       		.uleb128 0xb
 7275 0332 27       		.uleb128 0x27
 7276 0333 19       		.uleb128 0x19
 7277 0334 3C       		.uleb128 0x3c
 7278 0335 19       		.uleb128 0x19
 7279 0336 00       		.byte	0
 7280 0337 00       		.byte	0
 7281 0338 00       		.byte	0
 7282              		.section	.debug_loc,"",%progbits
 7283              	.Ldebug_loc0:
 7284              	.LLST0:
 7285 0000 00000000 		.4byte	.LVL0
 7286 0004 02000000 		.4byte	.LVL1
 7287 0008 0100     		.2byte	0x1
 7288 000a 50       		.byte	0x50
 7289 000b 02000000 		.4byte	.LVL1
 7290 000f 1E000000 		.4byte	.LFE69
 7291 0013 0400     		.2byte	0x4
 7292 0015 F3       		.byte	0xf3
 7293 0016 01       		.uleb128 0x1
 7294 0017 50       		.byte	0x50
ARM GAS  C:\Users\koseki\AppData\Local\Temp\ccT0XNG9.s 			page 154


 7295 0018 9F       		.byte	0x9f
 7296 0019 00000000 		.4byte	0
 7297 001d 00000000 		.4byte	0
 7298              	.LLST1:
 7299 0021 1E000000 		.4byte	.LVL8
 7300 0025 3E000000 		.4byte	.LVL9
 7301 0029 0100     		.2byte	0x1
 7302 002b 50       		.byte	0x50
 7303 002c 3E000000 		.4byte	.LVL9
 7304 0030 64000000 		.4byte	.LVL10
 7305 0034 0100     		.2byte	0x1
 7306 0036 54       		.byte	0x54
 7307 0037 64000000 		.4byte	.LVL10
 7308 003b 66000000 		.4byte	.LVL11
 7309 003f 0100     		.2byte	0x1
 7310 0041 53       		.byte	0x53
 7311 0042 66000000 		.4byte	.LVL11
 7312 0046 68000000 		.4byte	.LVL12
 7313 004a 0100     		.2byte	0x1
 7314 004c 54       		.byte	0x54
 7315 004d 7A000000 		.4byte	.LVL14
 7316 0051 96000000 		.4byte	.LVL15
 7317 0055 0100     		.2byte	0x1
 7318 0057 50       		.byte	0x50
 7319 0058 9A000000 		.4byte	.LVL16
 7320 005c F4000000 		.4byte	.LVL23
 7321 0060 0100     		.2byte	0x1
 7322 0062 54       		.byte	0x54
 7323 0063 F4000000 		.4byte	.LVL23
 7324 0067 F6000000 		.4byte	.LVL24
 7325 006b 0100     		.2byte	0x1
 7326 006d 55       		.byte	0x55
 7327 006e F6000000 		.4byte	.LVL24
 7328 0072 5E010000 		.4byte	.LVL42
 7329 0076 0100     		.2byte	0x1
 7330 0078 54       		.byte	0x54
 7331 0079 00000000 		.4byte	0
 7332 007d 00000000 		.4byte	0
 7333              	.LLST2:
 7334 0081 BC000000 		.4byte	.LVL18
 7335 0085 BE000000 		.4byte	.LVL19
 7336 0089 0100     		.2byte	0x1
 7337 008b 50       		.byte	0x50
 7338 008c D2000000 		.4byte	.LVL21
 7339 0090 DA000000 		.4byte	.LVL22
 7340 0094 0100     		.2byte	0x1
 7341 0096 50       		.byte	0x50
 7342 0097 2A010000 		.4byte	.LVL37
 7343 009b 34010000 		.4byte	.LVL40
 7344 009f 0100     		.2byte	0x1
 7345 00a1 56       		.byte	0x56
 7346 00a2 00000000 		.4byte	0
 7347 00a6 00000000 		.4byte	0
 7348              	.LLST3:
 7349 00aa 02000000 		.4byte	.LVL6
 7350 00ae 00010000 		.4byte	.LVL26
 7351 00b2 0200     		.2byte	0x2
ARM GAS  C:\Users\koseki\AppData\Local\Temp\ccT0XNG9.s 			page 155


 7352 00b4 30       		.byte	0x30
 7353 00b5 9F       		.byte	0x9f
 7354 00b6 00010000 		.4byte	.LVL26
 7355 00ba 10010000 		.4byte	.LVL29
 7356 00be 0100     		.2byte	0x1
 7357 00c0 51       		.byte	0x51
 7358 00c1 12010000 		.4byte	.LVL30
 7359 00c5 38010000 		.4byte	.LVL41
 7360 00c9 0100     		.2byte	0x1
 7361 00cb 51       		.byte	0x51
 7362 00cc 00000000 		.4byte	0
 7363 00d0 00000000 		.4byte	0
 7364              	.LLST4:
 7365 00d4 00010000 		.4byte	.LVL26
 7366 00d8 08010000 		.4byte	.LVL27
 7367 00dc 0100     		.2byte	0x1
 7368 00de 56       		.byte	0x56
 7369 00df 08010000 		.4byte	.LVL27
 7370 00e3 10010000 		.4byte	.LVL29
 7371 00e7 0600     		.2byte	0x6
 7372 00e9 70       		.byte	0x70
 7373 00ea 00       		.sleb128 0
 7374 00eb 71       		.byte	0x71
 7375 00ec 00       		.sleb128 0
 7376 00ed 22       		.byte	0x22
 7377 00ee 9F       		.byte	0x9f
 7378 00ef 10010000 		.4byte	.LVL29
 7379 00f3 12010000 		.4byte	.LVL30
 7380 00f7 0100     		.2byte	0x1
 7381 00f9 51       		.byte	0x51
 7382 00fa 12010000 		.4byte	.LVL30
 7383 00fe 16010000 		.4byte	.LVL31
 7384 0102 0100     		.2byte	0x1
 7385 0104 56       		.byte	0x56
 7386 0105 16010000 		.4byte	.LVL31
 7387 0109 1E010000 		.4byte	.LVL33
 7388 010d 0600     		.2byte	0x6
 7389 010f 71       		.byte	0x71
 7390 0110 00       		.sleb128 0
 7391 0111 70       		.byte	0x70
 7392 0112 00       		.sleb128 0
 7393 0113 1C       		.byte	0x1c
 7394 0114 9F       		.byte	0x9f
 7395 0115 1E010000 		.4byte	.LVL33
 7396 0119 24010000 		.4byte	.LVL36
 7397 011d 0100     		.2byte	0x1
 7398 011f 51       		.byte	0x51
 7399 0120 24010000 		.4byte	.LVL36
 7400 0124 2A010000 		.4byte	.LVL37
 7401 0128 0100     		.2byte	0x1
 7402 012a 56       		.byte	0x56
 7403 012b 00000000 		.4byte	0
 7404 012f 00000000 		.4byte	0
 7405              	.LLST5:
 7406 0133 02000000 		.4byte	.LVL6
 7407 0137 FA000000 		.4byte	.LVL25
 7408 013b 0200     		.2byte	0x2
ARM GAS  C:\Users\koseki\AppData\Local\Temp\ccT0XNG9.s 			page 156


 7409 013d 30       		.byte	0x30
 7410 013e 9F       		.byte	0x9f
 7411 013f FA000000 		.4byte	.LVL25
 7412 0143 0E010000 		.4byte	.LVL28
 7413 0147 0100     		.2byte	0x1
 7414 0149 52       		.byte	0x52
 7415 014a 12010000 		.4byte	.LVL30
 7416 014e 1C010000 		.4byte	.LVL32
 7417 0152 0100     		.2byte	0x1
 7418 0154 52       		.byte	0x52
 7419 0155 1E010000 		.4byte	.LVL33
 7420 0159 2C010000 		.4byte	.LVL38
 7421 015d 0100     		.2byte	0x1
 7422 015f 52       		.byte	0x52
 7423 0160 00000000 		.4byte	0
 7424 0164 00000000 		.4byte	0
 7425              	.LLST6:
 7426 0168 0E010000 		.4byte	.LVL28
 7427 016c 12010000 		.4byte	.LVL30
 7428 0170 0100     		.2byte	0x1
 7429 0172 52       		.byte	0x52
 7430 0173 1C010000 		.4byte	.LVL32
 7431 0177 24010000 		.4byte	.LVL36
 7432 017b 0100     		.2byte	0x1
 7433 017d 52       		.byte	0x52
 7434 017e 00000000 		.4byte	0
 7435 0182 00000000 		.4byte	0
 7436              	.LLST7:
 7437 0186 FA000000 		.4byte	.LVL25
 7438 018a 00010000 		.4byte	.LVL26
 7439 018e 0200     		.2byte	0x2
 7440 0190 30       		.byte	0x30
 7441 0191 9F       		.byte	0x9f
 7442 0192 00010000 		.4byte	.LVL26
 7443 0196 20010000 		.4byte	.LVL34
 7444 019a 0100     		.2byte	0x1
 7445 019c 53       		.byte	0x53
 7446 019d 22010000 		.4byte	.LVL35
 7447 01a1 2E010000 		.4byte	.LVL39
 7448 01a5 0100     		.2byte	0x1
 7449 01a7 53       		.byte	0x53
 7450 01a8 00000000 		.4byte	0
 7451 01ac 00000000 		.4byte	0
 7452              	.LLST8:
 7453 01b0 00000000 		.4byte	.LVL43
 7454 01b4 05000000 		.4byte	.LVL44-1
 7455 01b8 0100     		.2byte	0x1
 7456 01ba 50       		.byte	0x50
 7457 01bb 05000000 		.4byte	.LVL44-1
 7458 01bf 08000000 		.4byte	.LFE67
 7459 01c3 0400     		.2byte	0x4
 7460 01c5 F3       		.byte	0xf3
 7461 01c6 01       		.uleb128 0x1
 7462 01c7 50       		.byte	0x50
 7463 01c8 9F       		.byte	0x9f
 7464 01c9 00000000 		.4byte	0
 7465 01cd 00000000 		.4byte	0
ARM GAS  C:\Users\koseki\AppData\Local\Temp\ccT0XNG9.s 			page 157


 7466              	.LLST9:
 7467 01d1 00000000 		.4byte	.LVL43
 7468 01d5 05000000 		.4byte	.LVL44-1
 7469 01d9 0100     		.2byte	0x1
 7470 01db 51       		.byte	0x51
 7471 01dc 05000000 		.4byte	.LVL44-1
 7472 01e0 08000000 		.4byte	.LFE67
 7473 01e4 0400     		.2byte	0x4
 7474 01e6 F3       		.byte	0xf3
 7475 01e7 01       		.uleb128 0x1
 7476 01e8 51       		.byte	0x51
 7477 01e9 9F       		.byte	0x9f
 7478 01ea 00000000 		.4byte	0
 7479 01ee 00000000 		.4byte	0
 7480              	.LLST10:
 7481 01f2 00000000 		.4byte	.LVL46
 7482 01f6 10000000 		.4byte	.LVL47
 7483 01fa 0100     		.2byte	0x1
 7484 01fc 50       		.byte	0x50
 7485 01fd 10000000 		.4byte	.LVL47
 7486 0201 1C000000 		.4byte	.LVL49
 7487 0205 0400     		.2byte	0x4
 7488 0207 F3       		.byte	0xf3
 7489 0208 01       		.uleb128 0x1
 7490 0209 50       		.byte	0x50
 7491 020a 9F       		.byte	0x9f
 7492 020b 1C000000 		.4byte	.LVL49
 7493 020f 22000000 		.4byte	.LVL50
 7494 0213 0100     		.2byte	0x1
 7495 0215 50       		.byte	0x50
 7496 0216 22000000 		.4byte	.LVL50
 7497 021a 2E000000 		.4byte	.LVL52
 7498 021e 0400     		.2byte	0x4
 7499 0220 F3       		.byte	0xf3
 7500 0221 01       		.uleb128 0x1
 7501 0222 50       		.byte	0x50
 7502 0223 9F       		.byte	0x9f
 7503 0224 2E000000 		.4byte	.LVL52
 7504 0228 34000000 		.4byte	.LVL53
 7505 022c 0100     		.2byte	0x1
 7506 022e 50       		.byte	0x50
 7507 022f 34000000 		.4byte	.LVL53
 7508 0233 44000000 		.4byte	.LVL55
 7509 0237 0400     		.2byte	0x4
 7510 0239 F3       		.byte	0xf3
 7511 023a 01       		.uleb128 0x1
 7512 023b 50       		.byte	0x50
 7513 023c 9F       		.byte	0x9f
 7514 023d 44000000 		.4byte	.LVL55
 7515 0241 4A000000 		.4byte	.LVL56
 7516 0245 0100     		.2byte	0x1
 7517 0247 50       		.byte	0x50
 7518 0248 4A000000 		.4byte	.LVL56
 7519 024c 56000000 		.4byte	.LVL58
 7520 0250 0400     		.2byte	0x4
 7521 0252 F3       		.byte	0xf3
 7522 0253 01       		.uleb128 0x1
ARM GAS  C:\Users\koseki\AppData\Local\Temp\ccT0XNG9.s 			page 158


 7523 0254 50       		.byte	0x50
 7524 0255 9F       		.byte	0x9f
 7525 0256 56000000 		.4byte	.LVL58
 7526 025a 5C000000 		.4byte	.LVL59
 7527 025e 0100     		.2byte	0x1
 7528 0260 50       		.byte	0x50
 7529 0261 5C000000 		.4byte	.LVL59
 7530 0265 68000000 		.4byte	.LVL61
 7531 0269 0400     		.2byte	0x4
 7532 026b F3       		.byte	0xf3
 7533 026c 01       		.uleb128 0x1
 7534 026d 50       		.byte	0x50
 7535 026e 9F       		.byte	0x9f
 7536 026f 68000000 		.4byte	.LVL61
 7537 0273 6E000000 		.4byte	.LVL62
 7538 0277 0100     		.2byte	0x1
 7539 0279 50       		.byte	0x50
 7540 027a 6E000000 		.4byte	.LVL62
 7541 027e 5C010000 		.4byte	.LFE72
 7542 0282 0400     		.2byte	0x4
 7543 0284 F3       		.byte	0xf3
 7544 0285 01       		.uleb128 0x1
 7545 0286 50       		.byte	0x50
 7546 0287 9F       		.byte	0x9f
 7547 0288 00000000 		.4byte	0
 7548 028c 00000000 		.4byte	0
 7549              	.LLST11:
 7550 0290 7A000000 		.4byte	.LVL64
 7551 0294 A2000000 		.4byte	.LVL71
 7552 0298 0100     		.2byte	0x1
 7553 029a 53       		.byte	0x53
 7554 029b A4000000 		.4byte	.LVL72
 7555 029f B3000000 		.4byte	.LVL74-1
 7556 02a3 0100     		.2byte	0x1
 7557 02a5 53       		.byte	0x53
 7558 02a6 00000000 		.4byte	0
 7559 02aa 00000000 		.4byte	0
 7560              	.LLST12:
 7561 02ae 7A000000 		.4byte	.LVL64
 7562 02b2 84000000 		.4byte	.LVL66
 7563 02b6 0100     		.2byte	0x1
 7564 02b8 51       		.byte	0x51
 7565 02b9 84000000 		.4byte	.LVL66
 7566 02bd 8C000000 		.4byte	.LVL67
 7567 02c1 0100     		.2byte	0x1
 7568 02c3 50       		.byte	0x50
 7569 02c4 8C000000 		.4byte	.LVL67
 7570 02c8 94000000 		.4byte	.LVL68
 7571 02cc 0100     		.2byte	0x1
 7572 02ce 51       		.byte	0x51
 7573 02cf 94000000 		.4byte	.LVL68
 7574 02d3 9C000000 		.4byte	.LVL70
 7575 02d7 0100     		.2byte	0x1
 7576 02d9 50       		.byte	0x50
 7577 02da 9C000000 		.4byte	.LVL70
 7578 02de AC000000 		.4byte	.LVL73
 7579 02e2 0100     		.2byte	0x1
ARM GAS  C:\Users\koseki\AppData\Local\Temp\ccT0XNG9.s 			page 159


 7580 02e4 51       		.byte	0x51
 7581 02e5 00000000 		.4byte	0
 7582 02e9 00000000 		.4byte	0
 7583              	.LLST13:
 7584 02ed 80000000 		.4byte	.LVL65
 7585 02f1 96000000 		.4byte	.LVL69
 7586 02f5 0100     		.2byte	0x1
 7587 02f7 52       		.byte	0x52
 7588 02f8 00000000 		.4byte	0
 7589 02fc 00000000 		.4byte	0
 7590              	.LLST14:
 7591 0300 00000000 		.4byte	.LVL77
 7592 0304 4E000000 		.4byte	.LVL78
 7593 0308 0100     		.2byte	0x1
 7594 030a 50       		.byte	0x50
 7595 030b 4E000000 		.4byte	.LVL78
 7596 030f 56000000 		.4byte	.LVL79
 7597 0313 0500     		.2byte	0x5
 7598 0315 03       		.byte	0x3
 7599 0316 00000000 		.4byte	Mode
 7600 031a 56000000 		.4byte	.LVL79
 7601 031e 5C000000 		.4byte	.LVL80
 7602 0322 0100     		.2byte	0x1
 7603 0324 50       		.byte	0x50
 7604 0325 5C000000 		.4byte	.LVL80
 7605 0329 64000000 		.4byte	.LVL81
 7606 032d 0500     		.2byte	0x5
 7607 032f 03       		.byte	0x3
 7608 0330 00000000 		.4byte	Mode
 7609 0334 64000000 		.4byte	.LVL81
 7610 0338 6A000000 		.4byte	.LVL82
 7611 033c 0100     		.2byte	0x1
 7612 033e 50       		.byte	0x50
 7613 033f 6A000000 		.4byte	.LVL82
 7614 0343 72000000 		.4byte	.LVL83
 7615 0347 0500     		.2byte	0x5
 7616 0349 03       		.byte	0x3
 7617 034a 00000000 		.4byte	Mode
 7618 034e 72000000 		.4byte	.LVL83
 7619 0352 78000000 		.4byte	.LVL84
 7620 0356 0100     		.2byte	0x1
 7621 0358 50       		.byte	0x50
 7622 0359 78000000 		.4byte	.LVL84
 7623 035d 80000000 		.4byte	.LVL85
 7624 0361 0500     		.2byte	0x5
 7625 0363 03       		.byte	0x3
 7626 0364 00000000 		.4byte	Mode
 7627 0368 80000000 		.4byte	.LVL85
 7628 036c 86000000 		.4byte	.LVL86
 7629 0370 0100     		.2byte	0x1
 7630 0372 50       		.byte	0x50
 7631 0373 86000000 		.4byte	.LVL86
 7632 0377 93000000 		.4byte	.LVL87-1
 7633 037b 0500     		.2byte	0x5
 7634 037d 03       		.byte	0x3
 7635 037e 00000000 		.4byte	Mode
 7636 0382 93000000 		.4byte	.LVL87-1
ARM GAS  C:\Users\koseki\AppData\Local\Temp\ccT0XNG9.s 			page 160


 7637 0386 C0000000 		.4byte	.LFE74
 7638 038a 0400     		.2byte	0x4
 7639 038c F3       		.byte	0xf3
 7640 038d 01       		.uleb128 0x1
 7641 038e 50       		.byte	0x50
 7642 038f 9F       		.byte	0x9f
 7643 0390 00000000 		.4byte	0
 7644 0394 00000000 		.4byte	0
 7645              	.LLST15:
 7646 0398 00000000 		.4byte	.LVL89
 7647 039c 0A000000 		.4byte	.LVL91
 7648 03a0 0100     		.2byte	0x1
 7649 03a2 50       		.byte	0x50
 7650 03a3 0A000000 		.4byte	.LVL91
 7651 03a7 20000000 		.4byte	.LVL97
 7652 03ab 0300     		.2byte	0x3
 7653 03ad 70       		.byte	0x70
 7654 03ae 01       		.sleb128 1
 7655 03af 9F       		.byte	0x9f
 7656 03b0 20000000 		.4byte	.LVL97
 7657 03b4 26000000 		.4byte	.LVL98
 7658 03b8 0100     		.2byte	0x1
 7659 03ba 50       		.byte	0x50
 7660 03bb 00000000 		.4byte	0
 7661 03bf 00000000 		.4byte	0
 7662              	.LLST16:
 7663 03c3 02000000 		.4byte	.LVL90
 7664 03c7 0A000000 		.4byte	.LVL91
 7665 03cb 0200     		.2byte	0x2
 7666 03cd 30       		.byte	0x30
 7667 03ce 9F       		.byte	0x9f
 7668 03cf 0A000000 		.4byte	.LVL91
 7669 03d3 1C000000 		.4byte	.LVL95
 7670 03d7 0100     		.2byte	0x1
 7671 03d9 53       		.byte	0x53
 7672 03da 1E000000 		.4byte	.LVL96
 7673 03de 34000000 		.4byte	.LFE75
 7674 03e2 0100     		.2byte	0x1
 7675 03e4 53       		.byte	0x53
 7676 03e5 00000000 		.4byte	0
 7677 03e9 00000000 		.4byte	0
 7678              	.LLST17:
 7679 03ed 02000000 		.4byte	.LVL90
 7680 03f1 0A000000 		.4byte	.LVL91
 7681 03f5 0200     		.2byte	0x2
 7682 03f7 30       		.byte	0x30
 7683 03f8 9F       		.byte	0x9f
 7684 03f9 0A000000 		.4byte	.LVL91
 7685 03fd 2A000000 		.4byte	.LVL99
 7686 0401 0100     		.2byte	0x1
 7687 0403 54       		.byte	0x54
 7688 0404 2A000000 		.4byte	.LVL99
 7689 0408 34000000 		.4byte	.LFE75
 7690 040c 0100     		.2byte	0x1
 7691 040e 50       		.byte	0x50
 7692 040f 00000000 		.4byte	0
 7693 0413 00000000 		.4byte	0
ARM GAS  C:\Users\koseki\AppData\Local\Temp\ccT0XNG9.s 			page 161


 7694              	.LLST18:
 7695 0417 02000000 		.4byte	.LVL90
 7696 041b 0A000000 		.4byte	.LVL91
 7697 041f 0600     		.2byte	0x6
 7698 0421 0C       		.byte	0xc
 7699 0422 80969800 		.4byte	0x989680
 7700 0426 9F       		.byte	0x9f
 7701 0427 0A000000 		.4byte	.LVL91
 7702 042b 18000000 		.4byte	.LVL93
 7703 042f 0100     		.2byte	0x1
 7704 0431 52       		.byte	0x52
 7705 0432 1A000000 		.4byte	.LVL94
 7706 0436 34000000 		.4byte	.LFE75
 7707 043a 0100     		.2byte	0x1
 7708 043c 52       		.byte	0x52
 7709 043d 00000000 		.4byte	0
 7710 0441 00000000 		.4byte	0
 7711              	.LLST19:
 7712 0445 26000000 		.4byte	.LVL101
 7713 0449 78000000 		.4byte	.LVL102
 7714 044d 0100     		.2byte	0x1
 7715 044f 50       		.byte	0x50
 7716 0450 78000000 		.4byte	.LVL102
 7717 0454 8A000000 		.4byte	.LVL103
 7718 0458 0100     		.2byte	0x1
 7719 045a 53       		.byte	0x53
 7720 045b 8A000000 		.4byte	.LVL103
 7721 045f CA000000 		.4byte	.LVL110
 7722 0463 0100     		.2byte	0x1
 7723 0465 56       		.byte	0x56
 7724 0466 CA000000 		.4byte	.LVL110
 7725 046a 34010000 		.4byte	.LVL124
 7726 046e 0300     		.2byte	0x3
 7727 0470 76       		.byte	0x76
 7728 0471 01       		.sleb128 1
 7729 0472 9F       		.byte	0x9f
 7730 0473 00000000 		.4byte	0
 7731 0477 00000000 		.4byte	0
 7732              	.LLST20:
 7733 047b 8A000000 		.4byte	.LVL103
 7734 047f 90000000 		.4byte	.LVL105
 7735 0483 0500     		.2byte	0x5
 7736 0485 76       		.byte	0x76
 7737 0486 00       		.sleb128 0
 7738 0487 32       		.byte	0x32
 7739 0488 24       		.byte	0x24
 7740 0489 9F       		.byte	0x9f
 7741 048a 90000000 		.4byte	.LVL105
 7742 048e 99000000 		.4byte	.LVL106-1
 7743 0492 0100     		.2byte	0x1
 7744 0494 51       		.byte	0x51
 7745 0495 99000000 		.4byte	.LVL106-1
 7746 0499 CA000000 		.4byte	.LVL110
 7747 049d 0500     		.2byte	0x5
 7748 049f 76       		.byte	0x76
 7749 04a0 00       		.sleb128 0
 7750 04a1 32       		.byte	0x32
ARM GAS  C:\Users\koseki\AppData\Local\Temp\ccT0XNG9.s 			page 162


 7751 04a2 24       		.byte	0x24
 7752 04a3 9F       		.byte	0x9f
 7753 04a4 CA000000 		.4byte	.LVL110
 7754 04a8 34010000 		.4byte	.LVL124
 7755 04ac 0500     		.2byte	0x5
 7756 04ae 76       		.byte	0x76
 7757 04af 01       		.sleb128 1
 7758 04b0 32       		.byte	0x32
 7759 04b1 24       		.byte	0x24
 7760 04b2 9F       		.byte	0x9f
 7761 04b3 00000000 		.4byte	0
 7762 04b7 00000000 		.4byte	0
 7763              	.LLST21:
 7764 04bb 9A000000 		.4byte	.LVL106
 7765 04bf DA000000 		.4byte	.LVL112
 7766 04c3 0600     		.2byte	0x6
 7767 04c5 50       		.byte	0x50
 7768 04c6 93       		.byte	0x93
 7769 04c7 04       		.uleb128 0x4
 7770 04c8 51       		.byte	0x51
 7771 04c9 93       		.byte	0x93
 7772 04ca 04       		.uleb128 0x4
 7773 04cb 16010000 		.4byte	.LVL120
 7774 04cf 1C010000 		.4byte	.LVL121
 7775 04d3 0600     		.2byte	0x6
 7776 04d5 50       		.byte	0x50
 7777 04d6 93       		.byte	0x93
 7778 04d7 04       		.uleb128 0x4
 7779 04d8 51       		.byte	0x51
 7780 04d9 93       		.byte	0x93
 7781 04da 04       		.uleb128 0x4
 7782 04db 00000000 		.4byte	0
 7783 04df 00000000 		.4byte	0
 7784              	.LLST22:
 7785 04e3 9A000000 		.4byte	.LVL106
 7786 04e7 9E000000 		.4byte	.LVL107
 7787 04eb 0200     		.2byte	0x2
 7788 04ed 30       		.byte	0x30
 7789 04ee 9F       		.byte	0x9f
 7790 04ef 9E000000 		.4byte	.LVL107
 7791 04f3 C2000000 		.4byte	.LVL108
 7792 04f7 0100     		.2byte	0x1
 7793 04f9 53       		.byte	0x53
 7794 04fa C4000000 		.4byte	.LVL109
 7795 04fe CC000000 		.4byte	.LVL111
 7796 0502 0100     		.2byte	0x1
 7797 0504 53       		.byte	0x53
 7798 0505 00000000 		.4byte	0
 7799 0509 00000000 		.4byte	0
 7800              	.LLST23:
 7801 050d 00000000 		.4byte	.LVL125
 7802 0511 16000000 		.4byte	.LVL126
 7803 0515 0100     		.2byte	0x1
 7804 0517 50       		.byte	0x50
 7805 0518 16000000 		.4byte	.LVL126
 7806 051c 84000000 		.4byte	.LFE71
 7807 0520 0400     		.2byte	0x4
ARM GAS  C:\Users\koseki\AppData\Local\Temp\ccT0XNG9.s 			page 163


 7808 0522 F3       		.byte	0xf3
 7809 0523 01       		.uleb128 0x1
 7810 0524 50       		.byte	0x50
 7811 0525 9F       		.byte	0x9f
 7812 0526 00000000 		.4byte	0
 7813 052a 00000000 		.4byte	0
 7814              	.LLST24:
 7815 052e 00000000 		.4byte	.LVL134
 7816 0532 0C000000 		.4byte	.LVL136
 7817 0536 0100     		.2byte	0x1
 7818 0538 50       		.byte	0x50
 7819 0539 0C000000 		.4byte	.LVL136
 7820 053d 58010000 		.4byte	.LFE70
 7821 0541 0400     		.2byte	0x4
 7822 0543 F3       		.byte	0xf3
 7823 0544 01       		.uleb128 0x1
 7824 0545 50       		.byte	0x50
 7825 0546 9F       		.byte	0x9f
 7826 0547 00000000 		.4byte	0
 7827 054b 00000000 		.4byte	0
 7828              	.LLST25:
 7829 054f 5E000000 		.4byte	.LVL144
 7830 0553 76000000 		.4byte	.LVL146
 7831 0557 0100     		.2byte	0x1
 7832 0559 55       		.byte	0x55
 7833 055a 00000000 		.4byte	0
 7834 055e 00000000 		.4byte	0
 7835              	.LLST26:
 7836 0562 04000000 		.4byte	.LVL135
 7837 0566 24000000 		.4byte	.LVL140
 7838 056a 0300     		.2byte	0x3
 7839 056c 08       		.byte	0x8
 7840 056d 20       		.byte	0x20
 7841 056e 9F       		.byte	0x9f
 7842 056f 24000000 		.4byte	.LVL140
 7843 0573 D4000000 		.4byte	.LVL151
 7844 0577 0100     		.2byte	0x1
 7845 0579 54       		.byte	0x54
 7846 057a D6000000 		.4byte	.LVL152
 7847 057e EE000000 		.4byte	.LVL153
 7848 0582 0100     		.2byte	0x1
 7849 0584 54       		.byte	0x54
 7850 0585 0A010000 		.4byte	.LVL156
 7851 0589 10010000 		.4byte	.LVL157
 7852 058d 0300     		.2byte	0x3
 7853 058f 08       		.byte	0x8
 7854 0590 20       		.byte	0x20
 7855 0591 9F       		.byte	0x9f
 7856 0592 10010000 		.4byte	.LVL157
 7857 0596 58010000 		.4byte	.LFE70
 7858 059a 0100     		.2byte	0x1
 7859 059c 54       		.byte	0x54
 7860 059d 00000000 		.4byte	0
 7861 05a1 00000000 		.4byte	0
 7862              	.LLST27:
 7863 05a5 8E000000 		.4byte	.LVL182
 7864 05a9 92000000 		.4byte	.LVL183
ARM GAS  C:\Users\koseki\AppData\Local\Temp\ccT0XNG9.s 			page 164


 7865 05ad 0200     		.2byte	0x2
 7866 05af 30       		.byte	0x30
 7867 05b0 9F       		.byte	0x9f
 7868 05b1 92000000 		.4byte	.LVL183
 7869 05b5 A6000000 		.4byte	.LVL185
 7870 05b9 0100     		.2byte	0x1
 7871 05bb 53       		.byte	0x53
 7872 05bc CE000000 		.4byte	.LVL190
 7873 05c0 D2000000 		.4byte	.LVL191
 7874 05c4 0200     		.2byte	0x2
 7875 05c6 30       		.byte	0x30
 7876 05c7 9F       		.byte	0x9f
 7877 05c8 D2000000 		.4byte	.LVL191
 7878 05cc E9000000 		.4byte	.LVL193-1
 7879 05d0 0100     		.2byte	0x1
 7880 05d2 53       		.byte	0x53
 7881 05d3 00000000 		.4byte	0
 7882 05d7 00000000 		.4byte	0
 7883              	.LLST28:
 7884 05db 02000000 		.4byte	.LVL213
 7885 05df 6E000000 		.4byte	.LVL215
 7886 05e3 0200     		.2byte	0x2
 7887 05e5 30       		.byte	0x30
 7888 05e6 9F       		.byte	0x9f
 7889 05e7 6E000000 		.4byte	.LVL215
 7890 05eb 72000000 		.4byte	.LVL216
 7891 05ef 0200     		.2byte	0x2
 7892 05f1 39       		.byte	0x39
 7893 05f2 9F       		.byte	0x9f
 7894 05f3 72000000 		.4byte	.LVL216
 7895 05f7 86000000 		.4byte	.LVL217
 7896 05fb 0200     		.2byte	0x2
 7897 05fd 30       		.byte	0x30
 7898 05fe 9F       		.byte	0x9f
 7899 05ff 86000000 		.4byte	.LVL217
 7900 0603 8A000000 		.4byte	.LVL218
 7901 0607 0200     		.2byte	0x2
 7902 0609 3A       		.byte	0x3a
 7903 060a 9F       		.byte	0x9f
 7904 060b 8A000000 		.4byte	.LVL218
 7905 060f 3A010000 		.4byte	.LVL238
 7906 0613 0200     		.2byte	0x2
 7907 0615 30       		.byte	0x30
 7908 0616 9F       		.byte	0x9f
 7909 0617 3A010000 		.4byte	.LVL238
 7910 061b 45010000 		.4byte	.LVL239-1
 7911 061f 0100     		.2byte	0x1
 7912 0621 53       		.byte	0x53
 7913 0622 00000000 		.4byte	0
 7914 0626 00000000 		.4byte	0
 7915              	.LLST29:
 7916 062a CC000000 		.4byte	.LVL223
 7917 062e D0000000 		.4byte	.LVL224
 7918 0632 0200     		.2byte	0x2
 7919 0634 30       		.byte	0x30
 7920 0635 9F       		.byte	0x9f
 7921 0636 D0000000 		.4byte	.LVL224
ARM GAS  C:\Users\koseki\AppData\Local\Temp\ccT0XNG9.s 			page 165


 7922 063a DE000000 		.4byte	.LVL225
 7923 063e 0100     		.2byte	0x1
 7924 0640 53       		.byte	0x53
 7925 0641 E0000000 		.4byte	.LVL226
 7926 0645 E9000000 		.4byte	.LVL227-1
 7927 0649 0100     		.2byte	0x1
 7928 064b 53       		.byte	0x53
 7929 064c FA000000 		.4byte	.LVL229
 7930 0650 08010000 		.4byte	.LVL230
 7931 0654 0100     		.2byte	0x1
 7932 0656 53       		.byte	0x53
 7933 0657 0A010000 		.4byte	.LVL231
 7934 065b 12010000 		.4byte	.LVL232
 7935 065f 0100     		.2byte	0x1
 7936 0661 53       		.byte	0x53
 7937 0662 14010000 		.4byte	.LVL233
 7938 0666 18010000 		.4byte	.LVL234
 7939 066a 0200     		.2byte	0x2
 7940 066c 30       		.byte	0x30
 7941 066d 9F       		.byte	0x9f
 7942 066e 18010000 		.4byte	.LVL234
 7943 0672 2A010000 		.4byte	.LVL235
 7944 0676 0100     		.2byte	0x1
 7945 0678 53       		.byte	0x53
 7946 0679 2C010000 		.4byte	.LVL236
 7947 067d 32010000 		.4byte	.LVL237
 7948 0681 0100     		.2byte	0x1
 7949 0683 53       		.byte	0x53
 7950 0684 00000000 		.4byte	0
 7951 0688 00000000 		.4byte	0
 7952              	.LLST30:
 7953 068c 22000000 		.4byte	.LVL247
 7954 0690 AA000000 		.4byte	.LVL264
 7955 0694 0100     		.2byte	0x1
 7956 0696 55       		.byte	0x55
 7957 0697 00000000 		.4byte	0
 7958 069b 00000000 		.4byte	0
 7959              	.LLST31:
 7960 069f 2A000000 		.4byte	.LVL249
 7961 06a3 56000000 		.4byte	.LVL250
 7962 06a7 0100     		.2byte	0x1
 7963 06a9 52       		.byte	0x52
 7964 06aa 56000000 		.4byte	.LVL250
 7965 06ae 5B000000 		.4byte	.LVL251-1
 7966 06b2 0800     		.2byte	0x8
 7967 06b4 74       		.byte	0x74
 7968 06b5 00       		.sleb128 0
 7969 06b6 03       		.byte	0x3
 7970 06b7 00000000 		.4byte	UsbRxBuffer
 7971 06bb 22       		.byte	0x22
 7972 06bc 72000000 		.4byte	.LVL254
 7973 06c0 7C000000 		.4byte	.LVL255
 7974 06c4 0100     		.2byte	0x1
 7975 06c6 52       		.byte	0x52
 7976 06c7 7C000000 		.4byte	.LVL255
 7977 06cb 81000000 		.4byte	.LVL256-1
 7978 06cf 0800     		.2byte	0x8
ARM GAS  C:\Users\koseki\AppData\Local\Temp\ccT0XNG9.s 			page 166


 7979 06d1 74       		.byte	0x74
 7980 06d2 00       		.sleb128 0
 7981 06d3 03       		.byte	0x3
 7982 06d4 00000000 		.4byte	UsbRxBuffer
 7983 06d8 22       		.byte	0x22
 7984 06d9 9A000000 		.4byte	.LVL259
 7985 06dd A0000000 		.4byte	.LVL260
 7986 06e1 0100     		.2byte	0x1
 7987 06e3 52       		.byte	0x52
 7988 06e4 A0000000 		.4byte	.LVL260
 7989 06e8 A2000000 		.4byte	.LVL261
 7990 06ec 0500     		.2byte	0x5
 7991 06ee 70       		.byte	0x70
 7992 06ef 00       		.sleb128 0
 7993 06f0 71       		.byte	0x71
 7994 06f1 00       		.sleb128 0
 7995 06f2 22       		.byte	0x22
 7996 06f3 00000000 		.4byte	0
 7997 06f7 00000000 		.4byte	0
 7998              	.LLST32:
 7999 06fb 10000000 		.4byte	.LVL243
 8000 06ff 14000000 		.4byte	.LVL244
 8001 0703 0200     		.2byte	0x2
 8002 0705 30       		.byte	0x30
 8003 0706 9F       		.byte	0x9f
 8004 0707 14000000 		.4byte	.LVL244
 8005 070b 1C000000 		.4byte	.LVL245
 8006 070f 0100     		.2byte	0x1
 8007 0711 55       		.byte	0x55
 8008 0712 1E000000 		.4byte	.LVL246
 8009 0716 22000000 		.4byte	.LVL247
 8010 071a 0100     		.2byte	0x1
 8011 071c 55       		.byte	0x55
 8012 071d 22000000 		.4byte	.LVL247
 8013 0721 26000000 		.4byte	.LVL248
 8014 0725 0200     		.2byte	0x2
 8015 0727 30       		.byte	0x30
 8016 0728 9F       		.byte	0x9f
 8017 0729 26000000 		.4byte	.LVL248
 8018 072d A4000000 		.4byte	.LVL262
 8019 0731 0100     		.2byte	0x1
 8020 0733 54       		.byte	0x54
 8021 0734 A6000000 		.4byte	.LVL263
 8022 0738 AA000000 		.4byte	.LVL264
 8023 073c 0100     		.2byte	0x1
 8024 073e 54       		.byte	0x54
 8025 073f 00000000 		.4byte	0
 8026 0743 00000000 		.4byte	0
 8027              	.LLST33:
 8028 0747 00000000 		.4byte	.LVL265
 8029 074b 04000000 		.4byte	.LVL267
 8030 074f 0100     		.2byte	0x1
 8031 0751 50       		.byte	0x50
 8032 0752 04000000 		.4byte	.LVL267
 8033 0756 C0000000 		.4byte	.LFE76
 8034 075a 0400     		.2byte	0x4
 8035 075c F3       		.byte	0xf3
ARM GAS  C:\Users\koseki\AppData\Local\Temp\ccT0XNG9.s 			page 167


 8036 075d 01       		.uleb128 0x1
 8037 075e 50       		.byte	0x50
 8038 075f 9F       		.byte	0x9f
 8039 0760 00000000 		.4byte	0
 8040 0764 00000000 		.4byte	0
 8041              	.LLST34:
 8042 0768 0A000000 		.4byte	.LVL268
 8043 076c 0E000000 		.4byte	.LVL269
 8044 0770 0200     		.2byte	0x2
 8045 0772 30       		.byte	0x30
 8046 0773 9F       		.byte	0x9f
 8047 0774 0E000000 		.4byte	.LVL269
 8048 0778 2E000000 		.4byte	.LVL273
 8049 077c 0100     		.2byte	0x1
 8050 077e 54       		.byte	0x54
 8051 077f 30000000 		.4byte	.LVL274
 8052 0783 36000000 		.4byte	.LVL276
 8053 0787 0100     		.2byte	0x1
 8054 0789 54       		.byte	0x54
 8055 078a 00000000 		.4byte	0
 8056 078e 00000000 		.4byte	0
 8057              	.LLST35:
 8058 0792 02000000 		.4byte	.LVL266
 8059 0796 36000000 		.4byte	.LVL276
 8060 079a 0200     		.2byte	0x2
 8061 079c 31       		.byte	0x31
 8062 079d 9F       		.byte	0x9f
 8063 079e 36000000 		.4byte	.LVL276
 8064 07a2 46000000 		.4byte	.LVL279
 8065 07a6 0100     		.2byte	0x1
 8066 07a8 54       		.byte	0x54
 8067 07a9 46000000 		.4byte	.LVL279
 8068 07ad 8E000000 		.4byte	.LVL291
 8069 07b1 0200     		.2byte	0x2
 8070 07b3 30       		.byte	0x30
 8071 07b4 9F       		.byte	0x9f
 8072 07b5 8E000000 		.4byte	.LVL291
 8073 07b9 C0000000 		.4byte	.LFE76
 8074 07bd 0100     		.2byte	0x1
 8075 07bf 54       		.byte	0x54
 8076 07c0 00000000 		.4byte	0
 8077 07c4 00000000 		.4byte	0
 8078              	.LLST36:
 8079 07c8 3A000000 		.4byte	.LVL277
 8080 07cc 42000000 		.4byte	.LVL278
 8081 07d0 0100     		.2byte	0x1
 8082 07d2 50       		.byte	0x50
 8083 07d3 00000000 		.4byte	0
 8084 07d7 00000000 		.4byte	0
 8085              	.LLST37:
 8086 07db A4000000 		.4byte	.LVL295
 8087 07df B6000000 		.4byte	.LVL296
 8088 07e3 0100     		.2byte	0x1
 8089 07e5 52       		.byte	0x52
 8090 07e6 BA000000 		.4byte	.LVL297
 8091 07ea C4000000 		.4byte	.LVL298
 8092 07ee 0100     		.2byte	0x1
ARM GAS  C:\Users\koseki\AppData\Local\Temp\ccT0XNG9.s 			page 168


 8093 07f0 52       		.byte	0x52
 8094 07f1 00000000 		.4byte	0
 8095 07f5 00000000 		.4byte	0
 8096              	.LLST38:
 8097 07f9 00000000 		.4byte	.LVL299
 8098 07fd 02000000 		.4byte	.LVL300
 8099 0801 0100     		.2byte	0x1
 8100 0803 50       		.byte	0x50
 8101 0804 02000000 		.4byte	.LVL300
 8102 0808 0E000000 		.4byte	.LFE79
 8103 080c 0400     		.2byte	0x4
 8104 080e F3       		.byte	0xf3
 8105 080f 01       		.uleb128 0x1
 8106 0810 50       		.byte	0x50
 8107 0811 9F       		.byte	0x9f
 8108 0812 00000000 		.4byte	0
 8109 0816 00000000 		.4byte	0
 8110              		.section	.debug_aranges,"",%progbits
 8111 0000 A4000000 		.4byte	0xa4
 8112 0004 0200     		.2byte	0x2
 8113 0006 00000000 		.4byte	.Ldebug_info0
 8114 000a 04       		.byte	0x4
 8115 000b 00       		.byte	0
 8116 000c 0000     		.2byte	0
 8117 000e 0000     		.2byte	0
 8118 0010 00000000 		.4byte	.LFB69
 8119 0014 1E000000 		.4byte	.LFE69-.LFB69
 8120 0018 00000000 		.4byte	.LFB80
 8121 001c 9C010000 		.4byte	.LFE80-.LFB80
 8122 0020 00000000 		.4byte	.LFB66
 8123 0024 20000000 		.4byte	.LFE66-.LFB66
 8124 0028 00000000 		.4byte	.LFB67
 8125 002c 08000000 		.4byte	.LFE67-.LFB67
 8126 0030 00000000 		.4byte	.LFB68
 8127 0034 08000000 		.4byte	.LFE68-.LFB68
 8128 0038 00000000 		.4byte	.LFB72
 8129 003c 5C010000 		.4byte	.LFE72-.LFB72
 8130 0040 00000000 		.4byte	.LFB74
 8131 0044 C0000000 		.4byte	.LFE74-.LFB74
 8132 0048 00000000 		.4byte	.LFB75
 8133 004c 34000000 		.4byte	.LFE75-.LFB75
 8134 0050 00000000 		.4byte	.LFB73
 8135 0054 7C010000 		.4byte	.LFE73-.LFB73
 8136 0058 00000000 		.4byte	.LFB71
 8137 005c 84000000 		.4byte	.LFE71-.LFB71
 8138 0060 00000000 		.4byte	.LFB70
 8139 0064 58010000 		.4byte	.LFE70-.LFB70
 8140 0068 00000000 		.4byte	.LFB65
 8141 006c 78010000 		.4byte	.LFE65-.LFB65
 8142 0070 00000000 		.4byte	.LFB64
 8143 0074 20010000 		.4byte	.LFE64-.LFB64
 8144 0078 00000000 		.4byte	.LFB78
 8145 007c 98010000 		.4byte	.LFE78-.LFB78
 8146 0080 00000000 		.4byte	.LFB77
 8147 0084 BC000000 		.4byte	.LFE77-.LFB77
 8148 0088 00000000 		.4byte	.LFB76
 8149 008c C0000000 		.4byte	.LFE76-.LFB76
ARM GAS  C:\Users\koseki\AppData\Local\Temp\ccT0XNG9.s 			page 169


 8150 0090 00000000 		.4byte	.LFB81
 8151 0094 FC000000 		.4byte	.LFE81-.LFB81
 8152 0098 00000000 		.4byte	.LFB79
 8153 009c 0E000000 		.4byte	.LFE79-.LFB79
 8154 00a0 00000000 		.4byte	0
 8155 00a4 00000000 		.4byte	0
 8156              		.section	.debug_ranges,"",%progbits
 8157              	.Ldebug_ranges0:
 8158 0000 00000000 		.4byte	.LFB69
 8159 0004 1E000000 		.4byte	.LFE69
 8160 0008 00000000 		.4byte	.LFB80
 8161 000c 9C010000 		.4byte	.LFE80
 8162 0010 00000000 		.4byte	.LFB66
 8163 0014 20000000 		.4byte	.LFE66
 8164 0018 00000000 		.4byte	.LFB67
 8165 001c 08000000 		.4byte	.LFE67
 8166 0020 00000000 		.4byte	.LFB68
 8167 0024 08000000 		.4byte	.LFE68
 8168 0028 00000000 		.4byte	.LFB72
 8169 002c 5C010000 		.4byte	.LFE72
 8170 0030 00000000 		.4byte	.LFB74
 8171 0034 C0000000 		.4byte	.LFE74
 8172 0038 00000000 		.4byte	.LFB75
 8173 003c 34000000 		.4byte	.LFE75
 8174 0040 00000000 		.4byte	.LFB73
 8175 0044 7C010000 		.4byte	.LFE73
 8176 0048 00000000 		.4byte	.LFB71
 8177 004c 84000000 		.4byte	.LFE71
 8178 0050 00000000 		.4byte	.LFB70
 8179 0054 58010000 		.4byte	.LFE70
 8180 0058 00000000 		.4byte	.LFB65
 8181 005c 78010000 		.4byte	.LFE65
 8182 0060 00000000 		.4byte	.LFB64
 8183 0064 20010000 		.4byte	.LFE64
 8184 0068 00000000 		.4byte	.LFB78
 8185 006c 98010000 		.4byte	.LFE78
 8186 0070 00000000 		.4byte	.LFB77
 8187 0074 BC000000 		.4byte	.LFE77
 8188 0078 00000000 		.4byte	.LFB76
 8189 007c C0000000 		.4byte	.LFE76
 8190 0080 00000000 		.4byte	.LFB81
 8191 0084 FC000000 		.4byte	.LFE81
 8192 0088 00000000 		.4byte	.LFB79
 8193 008c 0E000000 		.4byte	.LFE79
 8194 0090 00000000 		.4byte	0
 8195 0094 00000000 		.4byte	0
 8196              		.section	.debug_line,"",%progbits
 8197              	.Ldebug_line0:
 8198 0000 4C070000 		.section	.debug_str,"MS",%progbits,1
 8198      02003603 
 8198      00000201 
 8198      FB0E0D00 
 8198      01010101 
 8199              	.LASF160:
 8200 0000 4932435F 		.ascii	"I2C_CLCD_Start\000"
 8200      434C4344 
 8200      5F537461 
ARM GAS  C:\Users\koseki\AppData\Local\Temp\ccT0XNG9.s 			page 170


 8200      727400
 8201              	.LASF75:
 8202 000f 6E657766 		.ascii	"newfreq\000"
 8202      72657100 
 8203              	.LASF24:
 8204 0017 75696E74 		.ascii	"uint16\000"
 8204      313600
 8205              	.LASF156:
 8206 001e 75785175 		.ascii	"uxQueueMessagesWaiting\000"
 8206      6575654D 
 8206      65737361 
 8206      67657357 
 8206      61697469 
 8207              	.LASF2:
 8208 0035 73697A65 		.ascii	"size_t\000"
 8208      5F7400
 8209              	.LASF185:
 8210 003c 55534255 		.ascii	"USBUART_Stop\000"
 8210      4152545F 
 8210      53746F70 
 8210      00
 8211              	.LASF79:
 8212 0049 636C6963 		.ascii	"click\000"
 8212      6B00
 8213              	.LASF106:
 8214 004f 70534552 		.ascii	"pSERIAL_NUM\000"
 8214      49414C5F 
 8214      4E554D00 
 8215              	.LASF1:
 8216 005b 7369676E 		.ascii	"signed char\000"
 8216      65642063 
 8216      68617200 
 8217              	.LASF3:
 8218 0067 5F5F7569 		.ascii	"__uint8_t\000"
 8218      6E74385F 
 8218      7400
 8219              	.LASF180:
 8220 0071 55534255 		.ascii	"USBUART_ReadAll\000"
 8220      4152545F 
 8220      52656164 
 8220      416C6C00 
 8221              	.LASF115:
 8222 0081 436F6D52 		.ascii	"ComRxPtr\000"
 8222      78507472 
 8222      00
 8223              	.LASF175:
 8224 008a 78546173 		.ascii	"xTaskGenericCreate\000"
 8224      6B47656E 
 8224      65726963 
 8224      43726561 
 8224      746500
 8225              	.LASF13:
 8226 009d 6C6F6E67 		.ascii	"long long unsigned int\000"
 8226      206C6F6E 
 8226      6720756E 
 8226      7369676E 
 8226      65642069 
ARM GAS  C:\Users\koseki\AppData\Local\Temp\ccT0XNG9.s 			page 171


 8227              	.LASF63:
 8228 00b4 78506F72 		.ascii	"xPortSysTickHandler\000"
 8228      74537973 
 8228      5469636B 
 8228      48616E64 
 8228      6C657200 
 8229              	.LASF8:
 8230 00c8 5F5F696E 		.ascii	"__int32_t\000"
 8230      7433325F 
 8230      7400
 8231              	.LASF44:
 8232 00d2 51756575 		.ascii	"QueueHandle_t\000"
 8232      6548616E 
 8232      646C655F 
 8232      7400
 8233              	.LASF97:
 8234 00e0 49544D5F 		.ascii	"ITM_RxBuffer\000"
 8234      52784275 
 8234      66666572 
 8234      00
 8235              	.LASF168:
 8236 00ed 4144435F 		.ascii	"ADC_StartConvert\000"
 8236      53746172 
 8236      74436F6E 
 8236      76657274 
 8236      00
 8237              	.LASF58:
 8238 00fe 73616D70 		.ascii	"sample\000"
 8238      6C6500
 8239              	.LASF170:
 8240 0105 45455052 		.ascii	"EEPROM_Start\000"
 8240      4F4D5F53 
 8240      74617274 
 8240      00
 8241              	.LASF155:
 8242 0112 78517565 		.ascii	"xQueueGenericReceive\000"
 8242      75654765 
 8242      6E657269 
 8242      63526563 
 8242      65697665 
 8243              	.LASF125:
 8244 0127 41676354 		.ascii	"AgcTimer\000"
 8244      696D6572 
 8244      00
 8245              	.LASF183:
 8246 0130 55534255 		.ascii	"USBUART_GetConfiguration\000"
 8246      4152545F 
 8246      47657443 
 8246      6F6E6669 
 8246      67757261 
 8247              	.LASF12:
 8248 0149 6C6F6E67 		.ascii	"long long int\000"
 8248      206C6F6E 
 8248      6720696E 
 8248      7400
 8249              	.LASF169:
 8250 0157 4932435F 		.ascii	"I2C_CLCD_ClearLine\000"
ARM GAS  C:\Users\koseki\AppData\Local\Temp\ccT0XNG9.s 			page 172


 8250      434C4344 
 8250      5F436C65 
 8250      61724C69 
 8250      6E6500
 8251              	.LASF87:
 8252 016a 52656164 		.ascii	"ReadUSB\000"
 8252      55534200 
 8253              	.LASF143:
 8254 0172 76546173 		.ascii	"vTaskDelay\000"
 8254      6B44656C 
 8254      617900
 8255              	.LASF130:
 8256 017d 44697370 		.ascii	"DisplayIndex\000"
 8256      6C617949 
 8256      6E646578 
 8256      00
 8257              	.LASF121:
 8258 018a 41646350 		.ascii	"AdcPeak\000"
 8258      65616B00 
 8259              	.LASF28:
 8260 0192 696E7433 		.ascii	"int32\000"
 8260      3200
 8261              	.LASF165:
 8262 0198 4144435F 		.ascii	"ADC_Start\000"
 8262      53746172 
 8262      7400
 8263              	.LASF110:
 8264 01a2 73746174 		.ascii	"station\000"
 8264      696F6E00 
 8265              	.LASF91:
 8266 01aa 73746174 		.ascii	"state\000"
 8266      6500
 8267              	.LASF105:
 8268 01b0 70465245 		.ascii	"pFREQ_ERROR\000"
 8268      515F4552 
 8268      524F5200 
 8269              	.LASF9:
 8270 01bc 6C6F6E67 		.ascii	"long int\000"
 8270      20696E74 
 8270      00
 8271              	.LASF86:
 8272 01c5 73656E64 		.ascii	"sendUsb\000"
 8272      55736200 
 8273              	.LASF148:
 8274 01cd 4932435F 		.ascii	"I2C_CLCD_PrintString\000"
 8274      434C4344 
 8274      5F507269 
 8274      6E745374 
 8274      72696E67 
 8275              	.LASF129:
 8276 01e2 4C656454 		.ascii	"LedTimer\000"
 8276      696D6572 
 8276      00
 8277              	.LASF42:
 8278 01eb 756C5061 		.ascii	"ulParameters\000"
 8278      72616D65 
 8278      74657273 
ARM GAS  C:\Users\koseki\AppData\Local\Temp\ccT0XNG9.s 			page 173


 8278      00
 8279              	.LASF90:
 8280 01f8 466C6167 		.ascii	"Flag\000"
 8280      00
 8281              	.LASF69:
 8282 01fd 76417070 		.ascii	"vApplicationMallocFailedHook\000"
 8282      6C696361 
 8282      74696F6E 
 8282      4D616C6C 
 8282      6F634661 
 8283              	.LASF39:
 8284 021a 5461736B 		.ascii	"TaskHandle_t\000"
 8284      48616E64 
 8284      6C655F74 
 8284      00
 8285              	.LASF146:
 8286 0227 6D656D63 		.ascii	"memcpy\000"
 8286      707900
 8287              	.LASF23:
 8288 022e 75696E74 		.ascii	"uint8\000"
 8288      3800
 8289              	.LASF136:
 8290 0234 4944656C 		.ascii	"IDelay\000"
 8290      617900
 8291              	.LASF62:
 8292 023b 78506F72 		.ascii	"xPortPendSVHandler\000"
 8292      7450656E 
 8292      64535648 
 8292      616E646C 
 8292      657200
 8293              	.LASF43:
 8294 024e 4D656D6F 		.ascii	"MemoryRegion_t\000"
 8294      72795265 
 8294      67696F6E 
 8294      5F7400
 8295              	.LASF20:
 8296 025d 75696E74 		.ascii	"uint16_t\000"
 8296      31365F74 
 8296      00
 8297              	.LASF153:
 8298 0266 73707269 		.ascii	"sprintf\000"
 8298      6E746600 
 8299              	.LASF102:
 8300 026e 46696C74 		.ascii	"Filter_data_b_cw\000"
 8300      65725F64 
 8300      6174615F 
 8300      625F6377 
 8300      00
 8301              	.LASF36:
 8302 027f 42617365 		.ascii	"BaseType_t\000"
 8302      54797065 
 8302      5F7400
 8303              	.LASF171:
 8304 028a 43795365 		.ascii	"CySetTemp\000"
 8304      7454656D 
 8304      7000
 8305              	.LASF77:
ARM GAS  C:\Users\koseki\AppData\Local\Temp\ccT0XNG9.s 			page 174


 8306 0294 4368616E 		.ascii	"ChannelSet\000"
 8306      6E656C53 
 8306      657400
 8307              	.LASF25:
 8308 029f 75696E74 		.ascii	"uint32\000"
 8308      333200
 8309              	.LASF118:
 8310 02a6 41646354 		.ascii	"AdcTick\000"
 8310      69636B00 
 8311              	.LASF18:
 8312 02ae 6C6F6E67 		.ascii	"long double\000"
 8312      20646F75 
 8312      626C6500 
 8313              	.LASF147:
 8314 02ba 4932435F 		.ascii	"I2C_CLCD_Position\000"
 8314      434C4344 
 8314      5F506F73 
 8314      6974696F 
 8314      6E00
 8315              	.LASF10:
 8316 02cc 5F5F7569 		.ascii	"__uint32_t\000"
 8316      6E743332 
 8316      5F7400
 8317              	.LASF176:
 8318 02d7 76546173 		.ascii	"vTaskStartScheduler\000"
 8318      6B537461 
 8318      72745363 
 8318      68656475 
 8318      6C657200 
 8319              	.LASF193:
 8320 02eb 73747263 		.ascii	"strcpy\000"
 8320      707900
 8321              	.LASF128:
 8322 02f2 41676354 		.ascii	"AgcTimeConstant\000"
 8322      696D6543 
 8322      6F6E7374 
 8322      616E7400 
 8323              	.LASF67:
 8324 0302 70785461 		.ascii	"pxTask\000"
 8324      736B00
 8325              	.LASF186:
 8326 0309 55534255 		.ascii	"USBUART_IsLineChanged\000"
 8326      4152545F 
 8326      49734C69 
 8326      6E654368 
 8326      616E6765 
 8327              	.LASF48:
 8328 031f 4F666673 		.ascii	"Offset\000"
 8328      657400
 8329              	.LASF0:
 8330 0326 756E7369 		.ascii	"unsigned int\000"
 8330      676E6564 
 8330      20696E74 
 8330      00
 8331              	.LASF151:
 8332 0333 5350494D 		.ascii	"SPIM_WriteTxData\000"
 8332      5F577269 
ARM GAS  C:\Users\koseki\AppData\Local\Temp\ccT0XNG9.s 			page 175


 8332      74655478 
 8332      44617461 
 8332      00
 8333              	.LASF179:
 8334 0344 55534255 		.ascii	"USBUART_DataIsReady\000"
 8334      4152545F 
 8334      44617461 
 8334      49735265 
 8334      61647900 
 8335              	.LASF112:
 8336 0358 46726571 		.ascii	"Frequency\000"
 8336      75656E63 
 8336      7900
 8337              	.LASF178:
 8338 0362 55534255 		.ascii	"USBUART_bTxIsReady\000"
 8338      4152545F 
 8338      62547849 
 8338      73526561 
 8338      647900
 8339              	.LASF122:
 8340 0375 41646350 		.ascii	"AdcPeakAve\000"
 8340      65616B41 
 8340      766500
 8341              	.LASF66:
 8342 0380 70765061 		.ascii	"pvParameters\000"
 8342      72616D65 
 8342      74657273 
 8342      00
 8343              	.LASF159:
 8344 038d 4932435F 		.ascii	"I2C_1_Start\000"
 8344      315F5374 
 8344      61727400 
 8345              	.LASF161:
 8346 0399 436F6D70 		.ascii	"Comp_1_Start\000"
 8346      5F315F53 
 8346      74617274 
 8346      00
 8347              	.LASF65:
 8348 03a6 76417070 		.ascii	"vApplicationStackOverflowHook\000"
 8348      6C696361 
 8348      74696F6E 
 8348      53746163 
 8348      6B4F7665 
 8349              	.LASF131:
 8350 03c4 55707065 		.ascii	"UpperSideBand\000"
 8350      72536964 
 8350      6542616E 
 8350      6400
 8351              	.LASF7:
 8352 03d2 73686F72 		.ascii	"short unsigned int\000"
 8352      7420756E 
 8352      7369676E 
 8352      65642069 
 8352      6E7400
 8353              	.LASF35:
 8354 03e5 53746163 		.ascii	"StackType_t\000"
 8354      6B547970 
ARM GAS  C:\Users\koseki\AppData\Local\Temp\ccT0XNG9.s 			page 176


 8354      655F7400 
 8355              	.LASF26:
 8356 03f1 696E7438 		.ascii	"int8\000"
 8356      00
 8357              	.LASF54:
 8358 03f6 4F666644 		.ascii	"OffDelay\000"
 8358      656C6179 
 8358      00
 8359              	.LASF52:
 8360 03ff 53746174 		.ascii	"Station\000"
 8360      696F6E00 
 8361              	.LASF173:
 8362 0407 78517565 		.ascii	"xQueueCreateMutex\000"
 8362      75654372 
 8362      65617465 
 8362      4D757465 
 8362      7800
 8363              	.LASF73:
 8364 0419 5365744D 		.ascii	"SetMode\000"
 8364      6F646500 
 8365              	.LASF188:
 8366 0421 6D61696E 		.ascii	"main.c\000"
 8366      2E6300
 8367              	.LASF119:
 8368 0428 4944434F 		.ascii	"IDCOffset\000"
 8368      66667365 
 8368      7400
 8369              	.LASF190:
 8370 0432 784D454D 		.ascii	"xMEMORY_REGION\000"
 8370      4F52595F 
 8370      52454749 
 8370      4F4E00
 8371              	.LASF72:
 8372 0441 78627566 		.ascii	"xbuf\000"
 8372      00
 8373              	.LASF117:
 8374 0446 55736252 		.ascii	"UsbRxBuffer\000"
 8374      78427566 
 8374      66657200 
 8375              	.LASF142:
 8376 0452 424C5545 		.ascii	"BLUELED_Write\000"
 8376      4C45445F 
 8376      57726974 
 8376      6500
 8377              	.LASF76:
 8378 0460 77646174 		.ascii	"wdata\000"
 8378      6100
 8379              	.LASF100:
 8380 0466 46696C74 		.ascii	"Filter_data_b_2000\000"
 8380      65725F64 
 8380      6174615F 
 8380      625F3230 
 8380      303000
 8381              	.LASF184:
 8382 0479 55534255 		.ascii	"USBUART_CDC_Init\000"
 8382      4152545F 
 8382      4344435F 
ARM GAS  C:\Users\koseki\AppData\Local\Temp\ccT0XNG9.s 			page 177


 8382      496E6974 
 8382      00
 8383              	.LASF162:
 8384 048a 56444143 		.ascii	"VDAC_1_Start\000"
 8384      5F315F53 
 8384      74617274 
 8384      00
 8385              	.LASF83:
 8386 0497 496E6974 		.ascii	"Initialize\000"
 8386      69616C69 
 8386      7A6500
 8387              	.LASF172:
 8388 04a2 45455052 		.ascii	"EEPROM_Write\000"
 8388      4F4D5F57 
 8388      72697465 
 8388      00
 8389              	.LASF14:
 8390 04af 73697A65 		.ascii	"sizetype\000"
 8390      74797065 
 8390      00
 8391              	.LASF60:
 8392 04b8 515F6368 		.ascii	"Q_chan\000"
 8392      616E00
 8393              	.LASF96:
 8394 04bf 46696C74 		.ascii	"Filter_data_b\000"
 8394      65725F64 
 8394      6174615F 
 8394      6200
 8395              	.LASF38:
 8396 04cd 5469636B 		.ascii	"TickType_t\000"
 8396      54797065 
 8396      5F7400
 8397              	.LASF194:
 8398 04d8 4C45445F 		.ascii	"LED_Write\000"
 8398      57726974 
 8398      6500
 8399              	.LASF111:
 8400 04e2 4C617374 		.ascii	"LastFreq\000"
 8400      46726571 
 8400      00
 8401              	.LASF123:
 8402 04eb 41676344 		.ascii	"AgcDisable\000"
 8402      69736162 
 8402      6C6500
 8403              	.LASF99:
 8404 04f6 46696C74 		.ascii	"Filter_data_b_2500\000"
 8404      65725F64 
 8404      6174615F 
 8404      625F3235 
 8404      303000
 8405              	.LASF127:
 8406 0509 41676349 		.ascii	"AgcIndicator\000"
 8406      6E646963 
 8406      61746F72 
 8406      00
 8407              	.LASF41:
 8408 0516 756C4C65 		.ascii	"ulLengthInBytes\000"
ARM GAS  C:\Users\koseki\AppData\Local\Temp\ccT0XNG9.s 			page 178


 8408      6E677468 
 8408      496E4279 
 8408      74657300 
 8409              	.LASF135:
 8410 0526 41646353 		.ascii	"AdcState\000"
 8410      74617465 
 8410      00
 8411              	.LASF154:
 8412 052f 43794465 		.ascii	"CyDelay\000"
 8412      6C617900 
 8413              	.LASF94:
 8414 0537 5461736B 		.ascii	"Task_RADIO\000"
 8414      5F524144 
 8414      494F00
 8415              	.LASF177:
 8416 0542 55534255 		.ascii	"USBUART_Write\000"
 8416      4152545F 
 8416      57726974 
 8416      6500
 8417              	.LASF55:
 8418 0550 5461736B 		.ascii	"Task_LED\000"
 8418      5F4C4544 
 8418      00
 8419              	.LASF17:
 8420 0559 666C6F61 		.ascii	"float\000"
 8420      7400
 8421              	.LASF93:
 8422 055f 61747465 		.ascii	"atten\000"
 8422      6E00
 8423              	.LASF92:
 8424 0565 41646A75 		.ascii	"AdjustAgc\000"
 8424      73744167 
 8424      6300
 8425              	.LASF124:
 8426 056f 41676347 		.ascii	"AgcGain\000"
 8426      61696E00 
 8427              	.LASF163:
 8428 0577 46696C74 		.ascii	"Filter_Start\000"
 8428      65725F53 
 8428      74617274 
 8428      00
 8429              	.LASF166:
 8430 0584 4144435F 		.ascii	"ADC_IRQ_Enable\000"
 8430      4952515F 
 8430      456E6162 
 8430      6C6500
 8431              	.LASF74:
 8432 0593 53657446 		.ascii	"SetFrequency\000"
 8432      72657175 
 8432      656E6379 
 8432      00
 8433              	.LASF120:
 8434 05a0 5144434F 		.ascii	"QDCOffset\000"
 8434      66667365 
 8434      7400
 8435              	.LASF32:
 8436 05aa 72656738 		.ascii	"reg8\000"
ARM GAS  C:\Users\koseki\AppData\Local\Temp\ccT0XNG9.s 			page 179


 8436      00
 8437              	.LASF70:
 8438 05af 4C6F6164 		.ascii	"LoadFilter\000"
 8438      46696C74 
 8438      657200
 8439              	.LASF107:
 8440 05ba 46524551 		.ascii	"FREQ_ERROR\000"
 8440      5F455252 
 8440      4F5200
 8441              	.LASF21:
 8442 05c5 696E7433 		.ascii	"int32_t\000"
 8442      325F7400 
 8443              	.LASF4:
 8444 05cd 756E7369 		.ascii	"unsigned char\000"
 8444      676E6564 
 8444      20636861 
 8444      7200
 8445              	.LASF145:
 8446 05db 756C506F 		.ascii	"ulPortSetInterruptMask\000"
 8446      72745365 
 8446      74496E74 
 8446      65727275 
 8446      70744D61 
 8447              	.LASF192:
 8448 05f2 5F5F6275 		.ascii	"__builtin_strcpy\000"
 8448      696C7469 
 8448      6E5F7374 
 8448      72637079 
 8448      00
 8449              	.LASF29:
 8450 0603 75696E74 		.ascii	"uint64\000"
 8450      363400
 8451              	.LASF80:
 8452 060a 716D7367 		.ascii	"qmsg\000"
 8452      00
 8453              	.LASF5:
 8454 060f 73686F72 		.ascii	"short int\000"
 8454      7420696E 
 8454      7400
 8455              	.LASF101:
 8456 0619 46696C74 		.ascii	"Filter_data_b_1500\000"
 8456      65725F64 
 8456      6174615F 
 8456      625F3135 
 8456      303000
 8457              	.LASF152:
 8458 062c 5350494D 		.ascii	"SPIM_ReadTxStatus\000"
 8458      5F526561 
 8458      64547853 
 8458      74617475 
 8458      7300
 8459              	.LASF95:
 8460 063e 43795261 		.ascii	"CyRamVectors\000"
 8460      6D566563 
 8460      746F7273 
 8460      00
 8461              	.LASF174:
ARM GAS  C:\Users\koseki\AppData\Local\Temp\ccT0XNG9.s 			page 180


 8462 064b 78517565 		.ascii	"xQueueGenericCreate\000"
 8462      75654765 
 8462      6E657269 
 8462      63437265 
 8462      61746500 
 8463              	.LASF141:
 8464 065f 78517565 		.ascii	"xQueue_FREQ\000"
 8464      75655F46 
 8464      52455100 
 8465              	.LASF98:
 8466 066b 48455832 		.ascii	"HEX2ASCII\000"
 8466      41534349 
 8466      4900
 8467              	.LASF109:
 8468 0675 67555342 		.ascii	"gUSBUART_Ready\000"
 8468      55415254 
 8468      5F526561 
 8468      647900
 8469              	.LASF157:
 8470 0684 78517565 		.ascii	"xQueueGenericSend\000"
 8470      75654765 
 8470      6E657269 
 8470      6353656E 
 8470      6400
 8471              	.LASF164:
 8472 0696 56444143 		.ascii	"VDAC_Start\000"
 8472      5F537461 
 8472      727400
 8473              	.LASF22:
 8474 06a1 75696E74 		.ascii	"uint32_t\000"
 8474      33325F74 
 8474      00
 8475              	.LASF64:
 8476 06aa 76506F72 		.ascii	"vPortSVCHandler\000"
 8476      74535643 
 8476      48616E64 
 8476      6C657200 
 8477              	.LASF189:
 8478 06ba 453A5C50 		.ascii	"E:\\PSoC_Creator\\CY8CKIT-059\\CY8CKIT-059_Simple_S"
 8478      536F435F 
 8478      43726561 
 8478      746F725C 
 8478      43593843 
 8479 06ea 44525F52 		.ascii	"DR_Receiver\\CY8CKIT-059_Simple_SDR_Receiver.cydsn\000"
 8479      65636569 
 8479      7665725C 
 8479      43593843 
 8479      4B49542D 
 8480              	.LASF61:
 8481 071c 70727648 		.ascii	"prvHardwareSetup\000"
 8481      61726477 
 8481      61726553 
 8481      65747570 
 8481      00
 8482              	.LASF11:
 8483 072d 6C6F6E67 		.ascii	"long unsigned int\000"
 8483      20756E73 
ARM GAS  C:\Users\koseki\AppData\Local\Temp\ccT0XNG9.s 			page 181


 8483      69676E65 
 8483      6420696E 
 8483      7400
 8484              	.LASF45:
 8485 073f 53656D61 		.ascii	"SemaphoreHandle_t\000"
 8485      70686F72 
 8485      6548616E 
 8485      646C655F 
 8485      7400
 8486              	.LASF15:
 8487 0751 63686172 		.ascii	"char\000"
 8487      00
 8488              	.LASF53:
 8489 0756 4F6E4465 		.ascii	"OnDelay\000"
 8489      6C617900 
 8490              	.LASF113:
 8491 075e 46726571 		.ascii	"FrequencyError\000"
 8491      75656E63 
 8491      79457272 
 8491      6F7200
 8492              	.LASF50:
 8493 076d 4D6F6465 		.ascii	"Mode\000"
 8493      00
 8494              	.LASF6:
 8495 0772 5F5F7569 		.ascii	"__uint16_t\000"
 8495      6E743136 
 8495      5F7400
 8496              	.LASF71:
 8497 077d 666C7472 		.ascii	"fltr\000"
 8497      00
 8498              	.LASF30:
 8499 0782 63686172 		.ascii	"char8\000"
 8499      3800
 8500              	.LASF33:
 8501 0788 63796973 		.ascii	"cyisraddress\000"
 8501      72616464 
 8501      72657373 
 8501      00
 8502              	.LASF150:
 8503 0795 6D656D63 		.ascii	"memcmp\000"
 8503      6D7000
 8504              	.LASF139:
 8505 079c 78517565 		.ascii	"xQueue_KEY\000"
 8505      75655F4B 
 8505      455900
 8506              	.LASF126:
 8507 07a7 41676349 		.ascii	"AgcIntegrator\000"
 8507      6E746567 
 8507      7261746F 
 8507      7200
 8508              	.LASF132:
 8509 07b5 41747465 		.ascii	"AttenuatorOn\000"
 8509      6E756174 
 8509      6F724F6E 
 8509      00
 8510              	.LASF34:
 8511 07c2 5461736B 		.ascii	"TaskFunction_t\000"
ARM GAS  C:\Users\koseki\AppData\Local\Temp\ccT0XNG9.s 			page 182


 8511      46756E63 
 8511      74696F6E 
 8511      5F7400
 8512              	.LASF46:
 8513 07d1 4E616D65 		.ascii	"Name\000"
 8513      00
 8514              	.LASF133:
 8515 07d6 53717565 		.ascii	"Squelch\000"
 8515      6C636800 
 8516              	.LASF167:
 8517 07de 6973725F 		.ascii	"isr_adc_StartEx\000"
 8517      6164635F 
 8517      53746172 
 8517      74457800 
 8518              	.LASF158:
 8519 07ee 5350494D 		.ascii	"SPIM_Start\000"
 8519      5F537461 
 8519      727400
 8520              	.LASF138:
 8521 07f9 784D7574 		.ascii	"xMutex_DDS\000"
 8521      65785F44 
 8521      445300
 8522              	.LASF88:
 8523 0804 62436F75 		.ascii	"bCount\000"
 8523      6E7400
 8524              	.LASF140:
 8525 080b 78517565 		.ascii	"xQueue_ROT\000"
 8525      75655F52 
 8525      4F5400
 8526              	.LASF137:
 8527 0816 4944656C 		.ascii	"IDelayPtr\000"
 8527      61795074 
 8527      7200
 8528              	.LASF89:
 8529 0820 5461736B 		.ascii	"Task_USBUART\000"
 8529      5F555342 
 8529      55415254 
 8529      00
 8530              	.LASF49:
 8531 082d 53746570 		.ascii	"Step\000"
 8531      00
 8532              	.LASF182:
 8533 0832 55534255 		.ascii	"USBUART_Start\000"
 8533      4152545F 
 8533      53746172 
 8533      7400
 8534              	.LASF187:
 8535 0840 474E5520 		.ascii	"GNU C 4.9.3 20150303 (release) [ARM/embedded-4_9-br"
 8535      4320342E 
 8535      392E3320 
 8535      32303135 
 8535      30333033 
 8536 0873 616E6368 		.ascii	"anch revision 221220] -mcpu=cortex-m3 -mthumb -g -O"
 8536      20726576 
 8536      6973696F 
 8536      6E203232 
 8536      31323230 
ARM GAS  C:\Users\koseki\AppData\Local\Temp\ccT0XNG9.s 			page 183


 8537 08a6 67202D66 		.ascii	"g -ffunction-sections -ffat-lto-objects\000"
 8537      66756E63 
 8537      74696F6E 
 8537      2D736563 
 8537      74696F6E 
 8538              	.LASF85:
 8539 08ce 46616374 		.ascii	"FactorySetup\000"
 8539      6F727953 
 8539      65747570 
 8539      00
 8540              	.LASF78:
 8541 08db 5461736B 		.ascii	"Task_CLCD\000"
 8541      5F434C43 
 8541      4400
 8542              	.LASF191:
 8543 08e5 42696E61 		.ascii	"BinaryFrequency\000"
 8543      72794672 
 8543      65717565 
 8543      6E637900 
 8544              	.LASF56:
 8545 08f5 4144435F 		.ascii	"ADC_ISR_Handler\000"
 8545      4953525F 
 8545      48616E64 
 8545      6C657200 
 8546              	.LASF68:
 8547 0905 70635461 		.ascii	"pcTaskName\000"
 8547      736B4E61 
 8547      6D6500
 8548              	.LASF19:
 8549 0910 75696E74 		.ascii	"uint8_t\000"
 8549      385F7400 
 8550              	.LASF57:
 8551 0918 72785261 		.ascii	"rxRaw\000"
 8551      7700
 8552              	.LASF116:
 8553 091e 55736254 		.ascii	"UsbTxBuffer\000"
 8553      78427566 
 8553      66657200 
 8554              	.LASF27:
 8555 092a 696E7431 		.ascii	"int16\000"
 8555      3600
 8556              	.LASF104:
 8557 0930 48696C62 		.ascii	"Hilbert\000"
 8557      65727400 
 8558              	.LASF81:
 8559 0938 73746570 		.ascii	"step_freq\000"
 8559      5F667265 
 8559      7100
 8560              	.LASF149:
 8561 0942 46696C74 		.ascii	"Filter_Read16\000"
 8561      65725F52 
 8561      65616431 
 8561      3600
 8562              	.LASF51:
 8563 0950 46696C74 		.ascii	"Filter\000"
 8563      657200
 8564              	.LASF31:
ARM GAS  C:\Users\koseki\AppData\Local\Temp\ccT0XNG9.s 			page 184


 8565 0957 63797374 		.ascii	"cystatus\000"
 8565      61747573 
 8565      00
 8566              	.LASF59:
 8567 0960 495F6368 		.ascii	"I_chan\000"
 8567      616E00
 8568              	.LASF134:
 8569 0967 44656275 		.ascii	"Debug\000"
 8569      6700
 8570              	.LASF103:
 8571 096d 46696C74 		.ascii	"Filter_data_b_am\000"
 8571      65725F64 
 8571      6174615F 
 8571      625F616D 
 8571      00
 8572              	.LASF181:
 8573 097e 50726F63 		.ascii	"ProcessComRx\000"
 8573      65737343 
 8573      6F6D5278 
 8573      00
 8574              	.LASF84:
 8575 098b 6D61696E 		.ascii	"main\000"
 8575      00
 8576              	.LASF37:
 8577 0990 55426173 		.ascii	"UBaseType_t\000"
 8577      65547970 
 8577      655F7400 
 8578              	.LASF114:
 8579 099c 436F6D52 		.ascii	"ComRxCmd\000"
 8579      78436D64 
 8579      00
 8580              	.LASF108:
 8581 09a5 53455249 		.ascii	"SERIAL_NUM\000"
 8581      414C5F4E 
 8581      554D00
 8582              	.LASF16:
 8583 09b0 646F7562 		.ascii	"double\000"
 8583      6C6500
 8584              	.LASF47:
 8585 09b7 46726571 		.ascii	"Freq\000"
 8585      00
 8586              	.LASF144:
 8587 09bc 4144435F 		.ascii	"ADC_GetResult16\000"
 8587      47657452 
 8587      6573756C 
 8587      74313600 
 8588              	.LASF40:
 8589 09cc 70764261 		.ascii	"pvBaseAddress\000"
 8589      73654164 
 8589      64726573 
 8589      7300
 8590              	.LASF82:
 8591 09da 7844656C 		.ascii	"xDelay\000"
 8591      617900
 8592              		.ident	"GCC: (GNU Tools for ARM Embedded Processors) 4.9.3 20150303 (release) [ARM/embedded-4_9-br
