ARM GAS  C:\Users\koseki\AppData\Local\Temp\ccUo5xKA.s 			page 1


   1              		.syntax unified
   2              		.cpu cortex-m3
   3              		.fpu softvfp
   4              		.eabi_attribute 20, 1
   5              		.eabi_attribute 21, 1
   6              		.eabi_attribute 23, 3
   7              		.eabi_attribute 24, 1
   8              		.eabi_attribute 25, 1
   9              		.eabi_attribute 26, 1
  10              		.eabi_attribute 30, 1
  11              		.eabi_attribute 34, 1
  12              		.eabi_attribute 18, 4
  13              		.thumb
  14              		.file	"port.c"
  15              		.text
  16              	.Ltext0:
  17              		.cfi_sections	.debug_frame
  18              		.section	.text.prvPortStartFirstTask,"ax",%progbits
  19              		.align	2
  20              		.thumb
  21              		.thumb_func
  22              		.type	prvPortStartFirstTask, %function
  23              	prvPortStartFirstTask:
  24              	.LFB67:
  25              		.file 1 "..\\FreeRTOS\\port.c"
   1:..\FreeRTOS/port.c **** /*
   2:..\FreeRTOS/port.c ****     FreeRTOS V8.2.3 - Copyright (C) 2015 Real Time Engineers Ltd.
   3:..\FreeRTOS/port.c ****     All rights reserved
   4:..\FreeRTOS/port.c **** 
   5:..\FreeRTOS/port.c ****     VISIT http://www.FreeRTOS.org TO ENSURE YOU ARE USING THE LATEST VERSION.
   6:..\FreeRTOS/port.c **** 
   7:..\FreeRTOS/port.c ****     This file is part of the FreeRTOS distribution.
   8:..\FreeRTOS/port.c **** 
   9:..\FreeRTOS/port.c ****     FreeRTOS is free software; you can redistribute it and/or modify it under
  10:..\FreeRTOS/port.c ****     the terms of the GNU General Public License (version 2) as published by the
  11:..\FreeRTOS/port.c ****     Free Software Foundation >>>> AND MODIFIED BY <<<< the FreeRTOS exception.
  12:..\FreeRTOS/port.c **** 
  13:..\FreeRTOS/port.c ****     ***************************************************************************
  14:..\FreeRTOS/port.c ****     >>!   NOTE: The modification to the GPL is included to allow you to     !<<
  15:..\FreeRTOS/port.c ****     >>!   distribute a combined work that includes FreeRTOS without being   !<<
  16:..\FreeRTOS/port.c ****     >>!   obliged to provide the source code for proprietary components     !<<
  17:..\FreeRTOS/port.c ****     >>!   outside of the FreeRTOS kernel.                                   !<<
  18:..\FreeRTOS/port.c ****     ***************************************************************************
  19:..\FreeRTOS/port.c **** 
  20:..\FreeRTOS/port.c ****     FreeRTOS is distributed in the hope that it will be useful, but WITHOUT ANY
  21:..\FreeRTOS/port.c ****     WARRANTY; without even the implied warranty of MERCHANTABILITY or FITNESS
  22:..\FreeRTOS/port.c ****     FOR A PARTICULAR PURPOSE.  Full license text is available on the following
  23:..\FreeRTOS/port.c ****     link: http://www.freertos.org/a00114.html
  24:..\FreeRTOS/port.c **** 
  25:..\FreeRTOS/port.c ****     ***************************************************************************
  26:..\FreeRTOS/port.c ****      *                                                                       *
  27:..\FreeRTOS/port.c ****      *    FreeRTOS provides completely free yet professionally developed,    *
  28:..\FreeRTOS/port.c ****      *    robust, strictly quality controlled, supported, and cross          *
  29:..\FreeRTOS/port.c ****      *    platform software that is more than just the market leader, it     *
  30:..\FreeRTOS/port.c ****      *    is the industry's de facto standard.                               *
  31:..\FreeRTOS/port.c ****      *                                                                       *
  32:..\FreeRTOS/port.c ****      *    Help yourself get started quickly while simultaneously helping     *
ARM GAS  C:\Users\koseki\AppData\Local\Temp\ccUo5xKA.s 			page 2


  33:..\FreeRTOS/port.c ****      *    to support the FreeRTOS project by purchasing a FreeRTOS           *
  34:..\FreeRTOS/port.c ****      *    tutorial book, reference manual, or both:                          *
  35:..\FreeRTOS/port.c ****      *    http://www.FreeRTOS.org/Documentation                              *
  36:..\FreeRTOS/port.c ****      *                                                                       *
  37:..\FreeRTOS/port.c ****     ***************************************************************************
  38:..\FreeRTOS/port.c **** 
  39:..\FreeRTOS/port.c ****     http://www.FreeRTOS.org/FAQHelp.html - Having a problem?  Start by reading
  40:..\FreeRTOS/port.c ****     the FAQ page "My application does not run, what could be wrong?".  Have you
  41:..\FreeRTOS/port.c ****     defined configASSERT()?
  42:..\FreeRTOS/port.c **** 
  43:..\FreeRTOS/port.c ****     http://www.FreeRTOS.org/support - In return for receiving this top quality
  44:..\FreeRTOS/port.c ****     embedded software for free we request you assist our global community by
  45:..\FreeRTOS/port.c ****     participating in the support forum.
  46:..\FreeRTOS/port.c **** 
  47:..\FreeRTOS/port.c ****     http://www.FreeRTOS.org/training - Investing in training allows your team to
  48:..\FreeRTOS/port.c ****     be as productive as possible as early as possible.  Now you can receive
  49:..\FreeRTOS/port.c ****     FreeRTOS training directly from Richard Barry, CEO of Real Time Engineers
  50:..\FreeRTOS/port.c ****     Ltd, and the world's leading authority on the world's leading RTOS.
  51:..\FreeRTOS/port.c **** 
  52:..\FreeRTOS/port.c ****     http://www.FreeRTOS.org/plus - A selection of FreeRTOS ecosystem products,
  53:..\FreeRTOS/port.c ****     including FreeRTOS+Trace - an indispensable productivity tool, a DOS
  54:..\FreeRTOS/port.c ****     compatible FAT file system, and our tiny thread aware UDP/IP stack.
  55:..\FreeRTOS/port.c **** 
  56:..\FreeRTOS/port.c ****     http://www.FreeRTOS.org/labs - Where new FreeRTOS products go to incubate.
  57:..\FreeRTOS/port.c ****     Come and try FreeRTOS+TCP, our new open source TCP/IP stack for FreeRTOS.
  58:..\FreeRTOS/port.c **** 
  59:..\FreeRTOS/port.c ****     http://www.OpenRTOS.com - Real Time Engineers ltd. license FreeRTOS to High
  60:..\FreeRTOS/port.c ****     Integrity Systems ltd. to sell under the OpenRTOS brand.  Low cost OpenRTOS
  61:..\FreeRTOS/port.c ****     licenses offer ticketed support, indemnification and commercial middleware.
  62:..\FreeRTOS/port.c **** 
  63:..\FreeRTOS/port.c ****     http://www.SafeRTOS.com - High Integrity Systems also provide a safety
  64:..\FreeRTOS/port.c ****     engineered and independently SIL3 certified version for use in safety and
  65:..\FreeRTOS/port.c ****     mission critical applications that require provable dependability.
  66:..\FreeRTOS/port.c **** 
  67:..\FreeRTOS/port.c ****     1 tab == 4 spaces!
  68:..\FreeRTOS/port.c **** */
  69:..\FreeRTOS/port.c **** 
  70:..\FreeRTOS/port.c **** /*-----------------------------------------------------------
  71:..\FreeRTOS/port.c ****  * Implementation of functions defined in portable.h for the ARM CM3 port.
  72:..\FreeRTOS/port.c ****  *----------------------------------------------------------*/
  73:..\FreeRTOS/port.c **** 
  74:..\FreeRTOS/port.c **** /* Scheduler includes. */
  75:..\FreeRTOS/port.c **** #include "FreeRTOS.h"
  76:..\FreeRTOS/port.c **** #include "task.h"
  77:..\FreeRTOS/port.c **** 
  78:..\FreeRTOS/port.c **** /* For backward compatibility, ensure configKERNEL_INTERRUPT_PRIORITY is
  79:..\FreeRTOS/port.c **** defined.  The value should also ensure backward compatibility.
  80:..\FreeRTOS/port.c **** FreeRTOS.org versions prior to V4.4.0 did not include this definition. */
  81:..\FreeRTOS/port.c **** #ifndef configKERNEL_INTERRUPT_PRIORITY
  82:..\FreeRTOS/port.c **** 	#define configKERNEL_INTERRUPT_PRIORITY 255
  83:..\FreeRTOS/port.c **** #endif
  84:..\FreeRTOS/port.c **** 
  85:..\FreeRTOS/port.c **** #ifndef configSYSTICK_CLOCK_HZ
  86:..\FreeRTOS/port.c **** 	#define configSYSTICK_CLOCK_HZ configCPU_CLOCK_HZ
  87:..\FreeRTOS/port.c **** 	/* Ensure the SysTick is clocked at the same frequency as the core. */
  88:..\FreeRTOS/port.c **** 	#define portNVIC_SYSTICK_CLK_BIT	( 1UL << 2UL )
  89:..\FreeRTOS/port.c **** #else
ARM GAS  C:\Users\koseki\AppData\Local\Temp\ccUo5xKA.s 			page 3


  90:..\FreeRTOS/port.c **** 	/* The way the SysTick is clocked is not modified in case it is not the same
  91:..\FreeRTOS/port.c **** 	as the core. */
  92:..\FreeRTOS/port.c **** 	#define portNVIC_SYSTICK_CLK_BIT	( 0 )
  93:..\FreeRTOS/port.c **** #endif
  94:..\FreeRTOS/port.c **** 
  95:..\FreeRTOS/port.c **** /* Constants required to manipulate the core.  Registers first... */
  96:..\FreeRTOS/port.c **** #define portNVIC_SYSTICK_CTRL_REG			( * ( ( volatile uint32_t * ) 0xe000e010 ) )
  97:..\FreeRTOS/port.c **** #define portNVIC_SYSTICK_LOAD_REG			( * ( ( volatile uint32_t * ) 0xe000e014 ) )
  98:..\FreeRTOS/port.c **** #define portNVIC_SYSTICK_CURRENT_VALUE_REG	( * ( ( volatile uint32_t * ) 0xe000e018 ) )
  99:..\FreeRTOS/port.c **** #define portNVIC_SYSPRI2_REG				( * ( ( volatile uint32_t * ) 0xe000ed20 ) )
 100:..\FreeRTOS/port.c **** /* ...then bits in the registers. */
 101:..\FreeRTOS/port.c **** #define portNVIC_SYSTICK_INT_BIT			( 1UL << 1UL )
 102:..\FreeRTOS/port.c **** #define portNVIC_SYSTICK_ENABLE_BIT			( 1UL << 0UL )
 103:..\FreeRTOS/port.c **** #define portNVIC_SYSTICK_COUNT_FLAG_BIT		( 1UL << 16UL )
 104:..\FreeRTOS/port.c **** #define portNVIC_PENDSVCLEAR_BIT 			( 1UL << 27UL )
 105:..\FreeRTOS/port.c **** #define portNVIC_PEND_SYSTICK_CLEAR_BIT		( 1UL << 25UL )
 106:..\FreeRTOS/port.c **** 
 107:..\FreeRTOS/port.c **** #define portNVIC_PENDSV_PRI					( ( ( uint32_t ) configKERNEL_INTERRUPT_PRIORITY ) << 16UL )
 108:..\FreeRTOS/port.c **** #define portNVIC_SYSTICK_PRI				( ( ( uint32_t ) configKERNEL_INTERRUPT_PRIORITY ) << 24UL )
 109:..\FreeRTOS/port.c **** 
 110:..\FreeRTOS/port.c **** /* Constants required to check the validity of an interrupt priority. */
 111:..\FreeRTOS/port.c **** #define portFIRST_USER_INTERRUPT_NUMBER		( 16 )
 112:..\FreeRTOS/port.c **** #define portNVIC_IP_REGISTERS_OFFSET_16 	( 0xE000E3F0 )
 113:..\FreeRTOS/port.c **** #define portAIRCR_REG						( * ( ( volatile uint32_t * ) 0xE000ED0C ) )
 114:..\FreeRTOS/port.c **** #define portMAX_8_BIT_VALUE					( ( uint8_t ) 0xff )
 115:..\FreeRTOS/port.c **** #define portTOP_BIT_OF_BYTE					( ( uint8_t ) 0x80 )
 116:..\FreeRTOS/port.c **** #define portMAX_PRIGROUP_BITS				( ( uint8_t ) 7 )
 117:..\FreeRTOS/port.c **** #define portPRIORITY_GROUP_MASK				( 0x07UL << 8UL )
 118:..\FreeRTOS/port.c **** #define portPRIGROUP_SHIFT					( 8UL )
 119:..\FreeRTOS/port.c **** 
 120:..\FreeRTOS/port.c **** /* Masks off all bits but the VECTACTIVE bits in the ICSR register. */
 121:..\FreeRTOS/port.c **** #define portVECTACTIVE_MASK					( 0xFFUL )
 122:..\FreeRTOS/port.c **** 
 123:..\FreeRTOS/port.c **** /* Constants required to set up the initial stack. */
 124:..\FreeRTOS/port.c **** #define portINITIAL_XPSR					( 0x01000000UL )
 125:..\FreeRTOS/port.c **** 
 126:..\FreeRTOS/port.c **** /* The systick is a 24-bit counter. */
 127:..\FreeRTOS/port.c **** #define portMAX_24_BIT_NUMBER				( 0xffffffUL )
 128:..\FreeRTOS/port.c **** 
 129:..\FreeRTOS/port.c **** /* A fiddle factor to estimate the number of SysTick counts that would have
 130:..\FreeRTOS/port.c **** occurred while the SysTick counter is stopped during tickless idle
 131:..\FreeRTOS/port.c **** calculations. */
 132:..\FreeRTOS/port.c **** #define portMISSED_COUNTS_FACTOR			( 45UL )
 133:..\FreeRTOS/port.c **** 
 134:..\FreeRTOS/port.c **** /* Let the user override the pre-loading of the initial LR with the address of
 135:..\FreeRTOS/port.c **** prvTaskExitError() in case it messes up unwinding of the stack in the
 136:..\FreeRTOS/port.c **** debugger. */
 137:..\FreeRTOS/port.c **** #ifdef configTASK_RETURN_ADDRESS
 138:..\FreeRTOS/port.c **** 	#define portTASK_RETURN_ADDRESS	configTASK_RETURN_ADDRESS
 139:..\FreeRTOS/port.c **** #else
 140:..\FreeRTOS/port.c **** 	#define portTASK_RETURN_ADDRESS	prvTaskExitError
 141:..\FreeRTOS/port.c **** #endif
 142:..\FreeRTOS/port.c **** 
 143:..\FreeRTOS/port.c **** /* Each task maintains its own interrupt status in the critical nesting
 144:..\FreeRTOS/port.c **** variable. */
 145:..\FreeRTOS/port.c **** static UBaseType_t uxCriticalNesting = 0xaaaaaaaa;
 146:..\FreeRTOS/port.c **** 
ARM GAS  C:\Users\koseki\AppData\Local\Temp\ccUo5xKA.s 			page 4


 147:..\FreeRTOS/port.c **** /*
 148:..\FreeRTOS/port.c ****  * Setup the timer to generate the tick interrupts.  The implementation in this
 149:..\FreeRTOS/port.c ****  * file is weak to allow application writers to change the timer used to
 150:..\FreeRTOS/port.c ****  * generate the tick interrupt.
 151:..\FreeRTOS/port.c ****  */
 152:..\FreeRTOS/port.c **** void vPortSetupTimerInterrupt( void );
 153:..\FreeRTOS/port.c **** 
 154:..\FreeRTOS/port.c **** /*
 155:..\FreeRTOS/port.c ****  * Exception handlers.
 156:..\FreeRTOS/port.c ****  */
 157:..\FreeRTOS/port.c **** void xPortPendSVHandler( void ) __attribute__ (( naked ));
 158:..\FreeRTOS/port.c **** void xPortSysTickHandler( void );
 159:..\FreeRTOS/port.c **** void vPortSVCHandler( void ) __attribute__ (( naked ));
 160:..\FreeRTOS/port.c **** 
 161:..\FreeRTOS/port.c **** /*
 162:..\FreeRTOS/port.c ****  * Start first task is a separate function so it can be tested in isolation.
 163:..\FreeRTOS/port.c ****  */
 164:..\FreeRTOS/port.c **** static void prvPortStartFirstTask( void ) __attribute__ (( naked ));
 165:..\FreeRTOS/port.c **** 
 166:..\FreeRTOS/port.c **** /*
 167:..\FreeRTOS/port.c ****  * Used to catch tasks that attempt to return from their implementing function.
 168:..\FreeRTOS/port.c ****  */
 169:..\FreeRTOS/port.c **** static void prvTaskExitError( void );
 170:..\FreeRTOS/port.c **** 
 171:..\FreeRTOS/port.c **** /*-----------------------------------------------------------*/
 172:..\FreeRTOS/port.c **** 
 173:..\FreeRTOS/port.c **** /*
 174:..\FreeRTOS/port.c ****  * The number of SysTick increments that make up one tick period.
 175:..\FreeRTOS/port.c ****  */
 176:..\FreeRTOS/port.c **** #if configUSE_TICKLESS_IDLE == 1
 177:..\FreeRTOS/port.c **** 	static uint32_t ulTimerCountsForOneTick = 0;
 178:..\FreeRTOS/port.c **** #endif /* configUSE_TICKLESS_IDLE */
 179:..\FreeRTOS/port.c **** 
 180:..\FreeRTOS/port.c **** /*
 181:..\FreeRTOS/port.c ****  * The maximum number of tick periods that can be suppressed is limited by the
 182:..\FreeRTOS/port.c ****  * 24 bit resolution of the SysTick timer.
 183:..\FreeRTOS/port.c ****  */
 184:..\FreeRTOS/port.c **** #if configUSE_TICKLESS_IDLE == 1
 185:..\FreeRTOS/port.c **** 	static uint32_t xMaximumPossibleSuppressedTicks = 0;
 186:..\FreeRTOS/port.c **** #endif /* configUSE_TICKLESS_IDLE */
 187:..\FreeRTOS/port.c **** 
 188:..\FreeRTOS/port.c **** /*
 189:..\FreeRTOS/port.c ****  * Compensate for the CPU cycles that pass while the SysTick is stopped (low
 190:..\FreeRTOS/port.c ****  * power functionality only.
 191:..\FreeRTOS/port.c ****  */
 192:..\FreeRTOS/port.c **** #if configUSE_TICKLESS_IDLE == 1
 193:..\FreeRTOS/port.c **** 	static uint32_t ulStoppedTimerCompensation = 0;
 194:..\FreeRTOS/port.c **** #endif /* configUSE_TICKLESS_IDLE */
 195:..\FreeRTOS/port.c **** 
 196:..\FreeRTOS/port.c **** /*
 197:..\FreeRTOS/port.c ****  * Used by the portASSERT_IF_INTERRUPT_PRIORITY_INVALID() macro to ensure
 198:..\FreeRTOS/port.c ****  * FreeRTOS API functions are not called from interrupts that have been assigned
 199:..\FreeRTOS/port.c ****  * a priority above configMAX_SYSCALL_INTERRUPT_PRIORITY.
 200:..\FreeRTOS/port.c ****  */
 201:..\FreeRTOS/port.c **** #if ( configASSERT_DEFINED == 1 )
 202:..\FreeRTOS/port.c **** 	 static uint8_t ucMaxSysCallPriority = 0;
 203:..\FreeRTOS/port.c **** 	 static uint32_t ulMaxPRIGROUPValue = 0;
ARM GAS  C:\Users\koseki\AppData\Local\Temp\ccUo5xKA.s 			page 5


 204:..\FreeRTOS/port.c **** 	 static const volatile uint8_t * const pcInterruptPriorityRegisters = ( const volatile uint8_t * c
 205:..\FreeRTOS/port.c **** #endif /* configASSERT_DEFINED */
 206:..\FreeRTOS/port.c **** 
 207:..\FreeRTOS/port.c **** /*-----------------------------------------------------------*/
 208:..\FreeRTOS/port.c **** 
 209:..\FreeRTOS/port.c **** /*
 210:..\FreeRTOS/port.c ****  * See header file for description.
 211:..\FreeRTOS/port.c ****  */
 212:..\FreeRTOS/port.c **** StackType_t *pxPortInitialiseStack( StackType_t *pxTopOfStack, TaskFunction_t pxCode, void *pvParam
 213:..\FreeRTOS/port.c **** {
 214:..\FreeRTOS/port.c **** 	/* Simulate the stack frame as it would be created by a context switch
 215:..\FreeRTOS/port.c **** 	interrupt. */
 216:..\FreeRTOS/port.c **** 	pxTopOfStack--; /* Offset added to account for the way the MCU uses the stack on entry/exit of int
 217:..\FreeRTOS/port.c **** 	*pxTopOfStack = portINITIAL_XPSR;	/* xPSR */
 218:..\FreeRTOS/port.c **** 	pxTopOfStack--;
 219:..\FreeRTOS/port.c **** 	*pxTopOfStack = ( StackType_t ) pxCode;	/* PC */
 220:..\FreeRTOS/port.c **** 	pxTopOfStack--;
 221:..\FreeRTOS/port.c **** 	*pxTopOfStack = ( StackType_t ) portTASK_RETURN_ADDRESS;	/* LR */
 222:..\FreeRTOS/port.c **** 	pxTopOfStack -= 5;	/* R12, R3, R2 and R1. */
 223:..\FreeRTOS/port.c **** 	*pxTopOfStack = ( StackType_t ) pvParameters;	/* R0 */
 224:..\FreeRTOS/port.c **** 	pxTopOfStack -= 8;	/* R11, R10, R9, R8, R7, R6, R5 and R4. */
 225:..\FreeRTOS/port.c **** 
 226:..\FreeRTOS/port.c **** 	return pxTopOfStack;
 227:..\FreeRTOS/port.c **** }
 228:..\FreeRTOS/port.c **** /*-----------------------------------------------------------*/
 229:..\FreeRTOS/port.c **** 
 230:..\FreeRTOS/port.c **** static void prvTaskExitError( void )
 231:..\FreeRTOS/port.c **** {
 232:..\FreeRTOS/port.c **** 	/* A function that implements a task must not exit or attempt to return to
 233:..\FreeRTOS/port.c **** 	its caller as there is nothing to return to.  If a task wants to exit it
 234:..\FreeRTOS/port.c **** 	should instead call vTaskDelete( NULL ).
 235:..\FreeRTOS/port.c **** 
 236:..\FreeRTOS/port.c **** 	Artificially force an assert() to be triggered if configASSERT() is
 237:..\FreeRTOS/port.c **** 	defined, then stop here so application writers can catch the error. */
 238:..\FreeRTOS/port.c **** 	configASSERT( uxCriticalNesting == ~0UL );
 239:..\FreeRTOS/port.c **** 	portDISABLE_INTERRUPTS();
 240:..\FreeRTOS/port.c **** 	for( ;; );
 241:..\FreeRTOS/port.c **** }
 242:..\FreeRTOS/port.c **** /*-----------------------------------------------------------*/
 243:..\FreeRTOS/port.c **** 
 244:..\FreeRTOS/port.c **** void vPortSVCHandler( void )
 245:..\FreeRTOS/port.c **** {
 246:..\FreeRTOS/port.c **** 	__asm volatile (
 247:..\FreeRTOS/port.c **** 					"	ldr	r3, pxCurrentTCBConst2		\n" /* Restore the context. */
 248:..\FreeRTOS/port.c **** 					"	ldr r1, [r3]					\n" /* Use pxCurrentTCBConst to get the pxCurrentTCB address. */
 249:..\FreeRTOS/port.c **** 					"	ldr r0, [r1]					\n" /* The first item in pxCurrentTCB is the task top of stack. */
 250:..\FreeRTOS/port.c **** 					"	ldmia r0!, {r4-r11}				\n" /* Pop the registers that are not automatically saved on exceptio
 251:..\FreeRTOS/port.c **** 					"	msr psp, r0						\n" /* Restore the task stack pointer. */
 252:..\FreeRTOS/port.c **** 					"	isb								\n"
 253:..\FreeRTOS/port.c **** 					"	mov r0, #0 						\n"
 254:..\FreeRTOS/port.c **** 					"	msr	basepri, r0					\n"
 255:..\FreeRTOS/port.c **** 					"	orr r14, #0xd					\n"
 256:..\FreeRTOS/port.c **** 					"	bx r14							\n"
 257:..\FreeRTOS/port.c **** 					"									\n"
 258:..\FreeRTOS/port.c **** 					"	.align 2						\n"
 259:..\FreeRTOS/port.c **** 					"pxCurrentTCBConst2: .word pxCurrentTCB				\n"
 260:..\FreeRTOS/port.c **** 				);
ARM GAS  C:\Users\koseki\AppData\Local\Temp\ccUo5xKA.s 			page 6


 261:..\FreeRTOS/port.c **** }
 262:..\FreeRTOS/port.c **** /*-----------------------------------------------------------*/
 263:..\FreeRTOS/port.c **** 
 264:..\FreeRTOS/port.c **** static void prvPortStartFirstTask( void )
 265:..\FreeRTOS/port.c **** {
  26              		.loc 1 265 0
  27              		.cfi_startproc
  28              		@ Naked Function: prologue and epilogue provided by programmer.
  29              		@ args = 0, pretend = 0, frame = 0
  30              		@ frame_needed = 0, uses_anonymous_args = 0
 266:..\FreeRTOS/port.c **** 	__asm volatile(
  31              		.loc 1 266 0
  32              	@ 266 "..\FreeRTOS\port.c" 1
  33 0000 0648     		 ldr r0, =0xE000ED08 	
  34 0002 0068     	 ldr r0, [r0] 			
  35 0004 0068     	 ldr r0, [r0] 			
  36 0006 80F30888 	 msr msp, r0			
  37 000a 62B6     	 cpsie i				
  38 000c 61B6     	 cpsie f				
  39 000e BFF34F8F 	 dsb					
  40 0012 BFF36F8F 	 isb					
  41 0016 00DF     	 svc 0					
  42 0018 00BF     	 nop					
  43              	
  44              	@ 0 "" 2
 267:..\FreeRTOS/port.c **** 					" ldr r0, =0xE000ED08 	\n" /* Use the NVIC offset register to locate the stack. */
 268:..\FreeRTOS/port.c **** 					" ldr r0, [r0] 			\n"
 269:..\FreeRTOS/port.c **** 					" ldr r0, [r0] 			\n"
 270:..\FreeRTOS/port.c **** 					" msr msp, r0			\n" /* Set the msp back to the start of the stack. */
 271:..\FreeRTOS/port.c **** 					" cpsie i				\n" /* Globally enable interrupts. */
 272:..\FreeRTOS/port.c **** 					" cpsie f				\n"
 273:..\FreeRTOS/port.c **** 					" dsb					\n"
 274:..\FreeRTOS/port.c **** 					" isb					\n"
 275:..\FreeRTOS/port.c **** 					" svc 0					\n" /* System call to start first task. */
 276:..\FreeRTOS/port.c **** 					" nop					\n"
 277:..\FreeRTOS/port.c **** 				);
 278:..\FreeRTOS/port.c **** }
  45              		.loc 1 278 0
  46              		.thumb
  47              		.cfi_endproc
  48              	.LFE67:
  49              		.size	prvPortStartFirstTask, .-prvPortStartFirstTask
  50 001a 0000     		.section	.text.pxPortInitialiseStack,"ax",%progbits
  51              		.align	2
  52              		.global	pxPortInitialiseStack
  53              		.thumb
  54              		.thumb_func
  55              		.type	pxPortInitialiseStack, %function
  56              	pxPortInitialiseStack:
  57              	.LFB64:
 213:..\FreeRTOS/port.c **** 	/* Simulate the stack frame as it would be created by a context switch
  58              		.loc 1 213 0
  59              		.cfi_startproc
  60              		@ args = 0, pretend = 0, frame = 0
  61              		@ frame_needed = 0, uses_anonymous_args = 0
  62              		@ link register save eliminated.
  63              	.LVL0:
ARM GAS  C:\Users\koseki\AppData\Local\Temp\ccUo5xKA.s 			page 7


 217:..\FreeRTOS/port.c **** 	pxTopOfStack--;
  64              		.loc 1 217 0
  65 0000 4FF08073 		mov	r3, #16777216
  66 0004 40F8043C 		str	r3, [r0, #-4]
  67              	.LVL1:
 219:..\FreeRTOS/port.c **** 	pxTopOfStack--;
  68              		.loc 1 219 0
  69 0008 40F8081C 		str	r1, [r0, #-8]
  70              	.LVL2:
 221:..\FreeRTOS/port.c **** 	pxTopOfStack -= 5;	/* R12, R3, R2 and R1. */
  71              		.loc 1 221 0
  72 000c 034B     		ldr	r3, .L3
  73 000e 40F80C3C 		str	r3, [r0, #-12]
  74              	.LVL3:
 223:..\FreeRTOS/port.c **** 	pxTopOfStack -= 8;	/* R11, R10, R9, R8, R7, R6, R5 and R4. */
  75              		.loc 1 223 0
  76 0012 40F8202C 		str	r2, [r0, #-32]
  77              	.LVL4:
 227:..\FreeRTOS/port.c **** /*-----------------------------------------------------------*/
  78              		.loc 1 227 0
  79 0016 4038     		subs	r0, r0, #64
  80              	.LVL5:
  81 0018 7047     		bx	lr
  82              	.L4:
  83 001a 00BF     		.align	2
  84              	.L3:
  85 001c 00000000 		.word	prvTaskExitError
  86              		.cfi_endproc
  87              	.LFE64:
  88              		.size	pxPortInitialiseStack, .-pxPortInitialiseStack
  89              		.section	.text.vPortSVCHandler,"ax",%progbits
  90              		.align	2
  91              		.global	vPortSVCHandler
  92              		.thumb
  93              		.thumb_func
  94              		.type	vPortSVCHandler, %function
  95              	vPortSVCHandler:
  96              	.LFB66:
 245:..\FreeRTOS/port.c **** 	__asm volatile (
  97              		.loc 1 245 0
  98              		.cfi_startproc
  99              		@ Naked Function: prologue and epilogue provided by programmer.
 100              		@ args = 0, pretend = 0, frame = 0
 101              		@ frame_needed = 0, uses_anonymous_args = 0
 246:..\FreeRTOS/port.c **** 					"	ldr	r3, pxCurrentTCBConst2		\n" /* Restore the context. */
 102              		.loc 1 246 0
 103              	@ 246 "..\FreeRTOS\port.c" 1
 104 0000 074B     			ldr	r3, pxCurrentTCBConst2		
 105 0002 1968     		ldr r1, [r3]					
 106 0004 0868     		ldr r0, [r1]					
 107 0006 B0E8F00F 		ldmia r0!, {r4-r11}				
 108 000a 80F30988 		msr psp, r0						
 109 000e BFF36F8F 		isb								
 110 0012 4FF00000 		mov r0, #0 						
 111 0016 80F31188 		msr	basepri, r0					
 112 001a 4EF00D0E 		orr r14, #0xd					
 113 001e 7047     		bx r14							
ARM GAS  C:\Users\koseki\AppData\Local\Temp\ccUo5xKA.s 			page 8


 114              										
 115              		.align 2						
 116 0020 00000000 	pxCurrentTCBConst2: .word pxCurrentTCB				
 117              	
 118              	@ 0 "" 2
 261:..\FreeRTOS/port.c **** /*-----------------------------------------------------------*/
 119              		.loc 1 261 0
 120              		.thumb
 121              		.cfi_endproc
 122              	.LFE66:
 123              		.size	vPortSVCHandler, .-vPortSVCHandler
 124              		.section	.text.vPortEndScheduler,"ax",%progbits
 125              		.align	2
 126              		.global	vPortEndScheduler
 127              		.thumb
 128              		.thumb_func
 129              		.type	vPortEndScheduler, %function
 130              	vPortEndScheduler:
 131              	.LFB69:
 279:..\FreeRTOS/port.c **** /*-----------------------------------------------------------*/
 280:..\FreeRTOS/port.c **** 
 281:..\FreeRTOS/port.c **** /*
 282:..\FreeRTOS/port.c ****  * See header file for description.
 283:..\FreeRTOS/port.c ****  */
 284:..\FreeRTOS/port.c **** BaseType_t xPortStartScheduler( void )
 285:..\FreeRTOS/port.c **** {
 286:..\FreeRTOS/port.c **** 	/* configMAX_SYSCALL_INTERRUPT_PRIORITY must not be set to 0.
 287:..\FreeRTOS/port.c **** 	See http://www.FreeRTOS.org/RTOS-Cortex-M3-M4.html */
 288:..\FreeRTOS/port.c **** 	configASSERT( configMAX_SYSCALL_INTERRUPT_PRIORITY );
 289:..\FreeRTOS/port.c **** 
 290:..\FreeRTOS/port.c **** 	#if( configASSERT_DEFINED == 1 )
 291:..\FreeRTOS/port.c **** 	{
 292:..\FreeRTOS/port.c **** 		volatile uint32_t ulOriginalPriority;
 293:..\FreeRTOS/port.c **** 		volatile uint8_t * const pucFirstUserPriorityRegister = ( volatile uint8_t * const ) ( portNVIC_I
 294:..\FreeRTOS/port.c **** 		volatile uint8_t ucMaxPriorityValue;
 295:..\FreeRTOS/port.c **** 
 296:..\FreeRTOS/port.c **** 		/* Determine the maximum priority from which ISR safe FreeRTOS API
 297:..\FreeRTOS/port.c **** 		functions can be called.  ISR safe functions are those that end in
 298:..\FreeRTOS/port.c **** 		"FromISR".  FreeRTOS maintains separate thread and ISR API functions to
 299:..\FreeRTOS/port.c **** 		ensure interrupt entry is as fast and simple as possible.
 300:..\FreeRTOS/port.c **** 
 301:..\FreeRTOS/port.c **** 		Save the interrupt priority value that is about to be clobbered. */
 302:..\FreeRTOS/port.c **** 		ulOriginalPriority = *pucFirstUserPriorityRegister;
 303:..\FreeRTOS/port.c **** 
 304:..\FreeRTOS/port.c **** 		/* Determine the number of priority bits available.  First write to all
 305:..\FreeRTOS/port.c **** 		possible bits. */
 306:..\FreeRTOS/port.c **** 		*pucFirstUserPriorityRegister = portMAX_8_BIT_VALUE;
 307:..\FreeRTOS/port.c **** 
 308:..\FreeRTOS/port.c **** 		/* Read the value back to see how many bits stuck. */
 309:..\FreeRTOS/port.c **** 		ucMaxPriorityValue = *pucFirstUserPriorityRegister;
 310:..\FreeRTOS/port.c **** 
 311:..\FreeRTOS/port.c **** 		/* Use the same mask on the maximum system call priority. */
 312:..\FreeRTOS/port.c **** 		ucMaxSysCallPriority = configMAX_SYSCALL_INTERRUPT_PRIORITY & ucMaxPriorityValue;
 313:..\FreeRTOS/port.c **** 
 314:..\FreeRTOS/port.c **** 		/* Calculate the maximum acceptable priority group value for the number
 315:..\FreeRTOS/port.c **** 		of bits read back. */
 316:..\FreeRTOS/port.c **** 		ulMaxPRIGROUPValue = portMAX_PRIGROUP_BITS;
ARM GAS  C:\Users\koseki\AppData\Local\Temp\ccUo5xKA.s 			page 9


 317:..\FreeRTOS/port.c **** 		while( ( ucMaxPriorityValue & portTOP_BIT_OF_BYTE ) == portTOP_BIT_OF_BYTE )
 318:..\FreeRTOS/port.c **** 		{
 319:..\FreeRTOS/port.c **** 			ulMaxPRIGROUPValue--;
 320:..\FreeRTOS/port.c **** 			ucMaxPriorityValue <<= ( uint8_t ) 0x01;
 321:..\FreeRTOS/port.c **** 		}
 322:..\FreeRTOS/port.c **** 
 323:..\FreeRTOS/port.c **** 		/* Shift the priority group value back to its position within the AIRCR
 324:..\FreeRTOS/port.c **** 		register. */
 325:..\FreeRTOS/port.c **** 		ulMaxPRIGROUPValue <<= portPRIGROUP_SHIFT;
 326:..\FreeRTOS/port.c **** 		ulMaxPRIGROUPValue &= portPRIORITY_GROUP_MASK;
 327:..\FreeRTOS/port.c **** 
 328:..\FreeRTOS/port.c **** 		/* Restore the clobbered interrupt priority register to its original
 329:..\FreeRTOS/port.c **** 		value. */
 330:..\FreeRTOS/port.c **** 		*pucFirstUserPriorityRegister = ulOriginalPriority;
 331:..\FreeRTOS/port.c **** 	}
 332:..\FreeRTOS/port.c **** 	#endif /* conifgASSERT_DEFINED */
 333:..\FreeRTOS/port.c **** 
 334:..\FreeRTOS/port.c **** 	/* Make PendSV and SysTick the lowest priority interrupts. */
 335:..\FreeRTOS/port.c **** 	portNVIC_SYSPRI2_REG |= portNVIC_PENDSV_PRI;
 336:..\FreeRTOS/port.c **** 	portNVIC_SYSPRI2_REG |= portNVIC_SYSTICK_PRI;
 337:..\FreeRTOS/port.c **** 
 338:..\FreeRTOS/port.c **** 	/* Start the timer that generates the tick ISR.  Interrupts are disabled
 339:..\FreeRTOS/port.c **** 	here already. */
 340:..\FreeRTOS/port.c **** 	vPortSetupTimerInterrupt();
 341:..\FreeRTOS/port.c **** 
 342:..\FreeRTOS/port.c **** 	/* Initialise the critical nesting count ready for the first task. */
 343:..\FreeRTOS/port.c **** 	uxCriticalNesting = 0;
 344:..\FreeRTOS/port.c **** 
 345:..\FreeRTOS/port.c **** 	/* Start the first task. */
 346:..\FreeRTOS/port.c **** 	prvPortStartFirstTask();
 347:..\FreeRTOS/port.c **** 
 348:..\FreeRTOS/port.c **** 	/* Should never get here as the tasks will now be executing!  Call the task
 349:..\FreeRTOS/port.c **** 	exit error function to prevent compiler warnings about a static function
 350:..\FreeRTOS/port.c **** 	not being called in the case that the application writer overrides this
 351:..\FreeRTOS/port.c **** 	functionality by defining configTASK_RETURN_ADDRESS. */
 352:..\FreeRTOS/port.c **** 	prvTaskExitError();
 353:..\FreeRTOS/port.c **** 
 354:..\FreeRTOS/port.c **** 	/* Should not get here! */
 355:..\FreeRTOS/port.c **** 	return 0;
 356:..\FreeRTOS/port.c **** }
 357:..\FreeRTOS/port.c **** /*-----------------------------------------------------------*/
 358:..\FreeRTOS/port.c **** 
 359:..\FreeRTOS/port.c **** void vPortEndScheduler( void )
 360:..\FreeRTOS/port.c **** {
 132              		.loc 1 360 0
 133              		.cfi_startproc
 134              		@ args = 0, pretend = 0, frame = 0
 135              		@ frame_needed = 0, uses_anonymous_args = 0
 136              		@ link register save eliminated.
 137 0000 7047     		bx	lr
 138              		.cfi_endproc
 139              	.LFE69:
 140              		.size	vPortEndScheduler, .-vPortEndScheduler
 141 0002 00BF     		.section	.text.vPortYield,"ax",%progbits
 142              		.align	2
 143              		.global	vPortYield
 144              		.thumb
ARM GAS  C:\Users\koseki\AppData\Local\Temp\ccUo5xKA.s 			page 10


 145              		.thumb_func
 146              		.type	vPortYield, %function
 147              	vPortYield:
 148              	.LFB70:
 361:..\FreeRTOS/port.c **** 	/* Not implemented in ports where there is nothing to return to.
 362:..\FreeRTOS/port.c **** 	Artificially force an assert. */
 363:..\FreeRTOS/port.c **** 	configASSERT( uxCriticalNesting == 1000UL );
 364:..\FreeRTOS/port.c **** }
 365:..\FreeRTOS/port.c **** /*-----------------------------------------------------------*/
 366:..\FreeRTOS/port.c **** 
 367:..\FreeRTOS/port.c **** void vPortYield( void )
 368:..\FreeRTOS/port.c **** {
 149              		.loc 1 368 0
 150              		.cfi_startproc
 151              		@ args = 0, pretend = 0, frame = 0
 152              		@ frame_needed = 0, uses_anonymous_args = 0
 153              		@ link register save eliminated.
 369:..\FreeRTOS/port.c **** 	/* Set a PendSV to request a context switch. */
 370:..\FreeRTOS/port.c **** 	portNVIC_INT_CTRL_REG = portNVIC_PENDSVSET_BIT;
 154              		.loc 1 370 0
 155 0000 4FF08052 		mov	r2, #268435456
 156 0004 034B     		ldr	r3, .L8
 157 0006 1A60     		str	r2, [r3]
 371:..\FreeRTOS/port.c **** 
 372:..\FreeRTOS/port.c **** 	/* Barriers are normally not required but do ensure the code is completely
 373:..\FreeRTOS/port.c **** 	within the specified behaviour for the architecture. */
 374:..\FreeRTOS/port.c **** 	__asm volatile( "dsb" );
 158              		.loc 1 374 0
 159              	@ 374 "..\FreeRTOS\port.c" 1
 160 0008 BFF34F8F 		dsb
 161              	@ 0 "" 2
 375:..\FreeRTOS/port.c **** 	__asm volatile( "isb" );
 162              		.loc 1 375 0
 163              	@ 375 "..\FreeRTOS\port.c" 1
 164 000c BFF36F8F 		isb
 165              	@ 0 "" 2
 166              		.thumb
 167 0010 7047     		bx	lr
 168              	.L9:
 169 0012 00BF     		.align	2
 170              	.L8:
 171 0014 04ED00E0 		.word	-536810236
 172              		.cfi_endproc
 173              	.LFE70:
 174              		.size	vPortYield, .-vPortYield
 175              		.section	.text.ulPortSetInterruptMask,"ax",%progbits
 176              		.align	2
 177              		.global	ulPortSetInterruptMask
 178              		.thumb
 179              		.thumb_func
 180              		.type	ulPortSetInterruptMask, %function
 181              	ulPortSetInterruptMask:
 182              	.LFB73:
 376:..\FreeRTOS/port.c **** }
 377:..\FreeRTOS/port.c **** /*-----------------------------------------------------------*/
 378:..\FreeRTOS/port.c **** 
 379:..\FreeRTOS/port.c **** void vPortEnterCritical( void )
ARM GAS  C:\Users\koseki\AppData\Local\Temp\ccUo5xKA.s 			page 11


 380:..\FreeRTOS/port.c **** {
 381:..\FreeRTOS/port.c **** 	portDISABLE_INTERRUPTS();
 382:..\FreeRTOS/port.c **** 	uxCriticalNesting++;
 383:..\FreeRTOS/port.c **** 	__asm volatile( "dsb" );
 384:..\FreeRTOS/port.c **** 	__asm volatile( "isb" );
 385:..\FreeRTOS/port.c **** 	
 386:..\FreeRTOS/port.c **** 	/* This is not the interrupt safe version of the enter critical function so
 387:..\FreeRTOS/port.c **** 	assert() if it is being called from an interrupt context.  Only API 
 388:..\FreeRTOS/port.c **** 	functions that end in "FromISR" can be used in an interrupt.  Only assert if
 389:..\FreeRTOS/port.c **** 	the critical nesting count is 1 to protect against recursive calls if the
 390:..\FreeRTOS/port.c **** 	assert function also uses a critical section. */
 391:..\FreeRTOS/port.c **** 	if( uxCriticalNesting == 1 )
 392:..\FreeRTOS/port.c **** 	{
 393:..\FreeRTOS/port.c **** 		configASSERT( ( portNVIC_INT_CTRL_REG & portVECTACTIVE_MASK ) == 0 );
 394:..\FreeRTOS/port.c **** 	}
 395:..\FreeRTOS/port.c **** }
 396:..\FreeRTOS/port.c **** /*-----------------------------------------------------------*/
 397:..\FreeRTOS/port.c **** 
 398:..\FreeRTOS/port.c **** void vPortExitCritical( void )
 399:..\FreeRTOS/port.c **** {
 400:..\FreeRTOS/port.c **** 	configASSERT( uxCriticalNesting );
 401:..\FreeRTOS/port.c **** 	uxCriticalNesting--;
 402:..\FreeRTOS/port.c **** 	if( uxCriticalNesting == 0 )
 403:..\FreeRTOS/port.c **** 	{
 404:..\FreeRTOS/port.c **** 		portENABLE_INTERRUPTS();
 405:..\FreeRTOS/port.c **** 	}
 406:..\FreeRTOS/port.c **** }
 407:..\FreeRTOS/port.c **** /*-----------------------------------------------------------*/
 408:..\FreeRTOS/port.c **** 
 409:..\FreeRTOS/port.c **** __attribute__(( naked )) uint32_t ulPortSetInterruptMask( void )
 410:..\FreeRTOS/port.c **** {
 183              		.loc 1 410 0
 184              		.cfi_startproc
 185              		@ Naked Function: prologue and epilogue provided by programmer.
 186              		@ args = 0, pretend = 0, frame = 0
 187              		@ frame_needed = 0, uses_anonymous_args = 0
 411:..\FreeRTOS/port.c **** 	__asm volatile														\
 188              		.loc 1 411 0
 189              	@ 411 "..\FreeRTOS\port.c" 1
 190 0000 EFF31180 			mrs r0, basepri											
 191 0004 4FF0A001 		mov r1, #160												
 192 0008 81F31188 		msr basepri, r1											
 193 000c 7047     		bx lr													
 194              	
 195              	@ 0 "" 2
 412:..\FreeRTOS/port.c **** 	(																	\
 413:..\FreeRTOS/port.c **** 		"	mrs r0, basepri											\n" \
 414:..\FreeRTOS/port.c **** 		"	mov r1, %0												\n"	\
 415:..\FreeRTOS/port.c **** 		"	msr basepri, r1											\n" \
 416:..\FreeRTOS/port.c **** 		"	bx lr													\n" \
 417:..\FreeRTOS/port.c **** 		:: "i" ( configMAX_SYSCALL_INTERRUPT_PRIORITY ) : "r0", "r1"	\
 418:..\FreeRTOS/port.c **** 	);
 419:..\FreeRTOS/port.c **** 
 420:..\FreeRTOS/port.c **** 	/* This return will not be reached but is necessary to prevent compiler
 421:..\FreeRTOS/port.c **** 	warnings. */
 422:..\FreeRTOS/port.c **** 	return 0;
 423:..\FreeRTOS/port.c **** }
ARM GAS  C:\Users\koseki\AppData\Local\Temp\ccUo5xKA.s 			page 12


 196              		.loc 1 423 0
 197              		.thumb
 198 000e 0020     		movs	r0, #0
 199              		.cfi_endproc
 200              	.LFE73:
 201              		.size	ulPortSetInterruptMask, .-ulPortSetInterruptMask
 202              		.section	.text.prvTaskExitError,"ax",%progbits
 203              		.align	2
 204              		.thumb
 205              		.thumb_func
 206              		.type	prvTaskExitError, %function
 207              	prvTaskExitError:
 208              	.LFB65:
 231:..\FreeRTOS/port.c **** 	/* A function that implements a task must not exit or attempt to return to
 209              		.loc 1 231 0
 210              		.cfi_startproc
 211              		@ Volatile: function does not return.
 212              		@ args = 0, pretend = 0, frame = 0
 213              		@ frame_needed = 0, uses_anonymous_args = 0
 214 0000 08B5     		push	{r3, lr}
 215              		.cfi_def_cfa_offset 8
 216              		.cfi_offset 3, -8
 217              		.cfi_offset 14, -4
 239:..\FreeRTOS/port.c **** 	for( ;; );
 218              		.loc 1 239 0
 219 0002 FFF7FEFF 		bl	ulPortSetInterruptMask
 220              	.LVL6:
 221              	.L12:
 240:..\FreeRTOS/port.c **** }
 222              		.loc 1 240 0 discriminator 1
 223 0006 FEE7     		b	.L12
 224              		.cfi_endproc
 225              	.LFE65:
 226              		.size	prvTaskExitError, .-prvTaskExitError
 227              		.section	.text.vPortEnterCritical,"ax",%progbits
 228              		.align	2
 229              		.global	vPortEnterCritical
 230              		.thumb
 231              		.thumb_func
 232              		.type	vPortEnterCritical, %function
 233              	vPortEnterCritical:
 234              	.LFB71:
 380:..\FreeRTOS/port.c **** 	portDISABLE_INTERRUPTS();
 235              		.loc 1 380 0
 236              		.cfi_startproc
 237              		@ args = 0, pretend = 0, frame = 0
 238              		@ frame_needed = 0, uses_anonymous_args = 0
 239 0000 08B5     		push	{r3, lr}
 240              		.cfi_def_cfa_offset 8
 241              		.cfi_offset 3, -8
 242              		.cfi_offset 14, -4
 381:..\FreeRTOS/port.c **** 	uxCriticalNesting++;
 243              		.loc 1 381 0
 244 0002 FFF7FEFF 		bl	ulPortSetInterruptMask
 245              	.LVL7:
 382:..\FreeRTOS/port.c **** 	__asm volatile( "dsb" );
 246              		.loc 1 382 0
ARM GAS  C:\Users\koseki\AppData\Local\Temp\ccUo5xKA.s 			page 13


 247 0006 044A     		ldr	r2, .L16
 248 0008 1368     		ldr	r3, [r2]
 249 000a 0133     		adds	r3, r3, #1
 250 000c 1360     		str	r3, [r2]
 383:..\FreeRTOS/port.c **** 	__asm volatile( "isb" );
 251              		.loc 1 383 0
 252              	@ 383 "..\FreeRTOS\port.c" 1
 253 000e BFF34F8F 		dsb
 254              	@ 0 "" 2
 384:..\FreeRTOS/port.c **** 	
 255              		.loc 1 384 0
 256              	@ 384 "..\FreeRTOS\port.c" 1
 257 0012 BFF36F8F 		isb
 258              	@ 0 "" 2
 259              		.thumb
 260 0016 08BD     		pop	{r3, pc}
 261              	.L17:
 262              		.align	2
 263              	.L16:
 264 0018 00000000 		.word	.LANCHOR0
 265              		.cfi_endproc
 266              	.LFE71:
 267              		.size	vPortEnterCritical, .-vPortEnterCritical
 268              		.section	.text.vPortClearInterruptMask,"ax",%progbits
 269              		.align	2
 270              		.global	vPortClearInterruptMask
 271              		.thumb
 272              		.thumb_func
 273              		.type	vPortClearInterruptMask, %function
 274              	vPortClearInterruptMask:
 275              	.LFB74:
 424:..\FreeRTOS/port.c **** /*-----------------------------------------------------------*/
 425:..\FreeRTOS/port.c **** 
 426:..\FreeRTOS/port.c **** __attribute__(( naked )) void vPortClearInterruptMask( uint32_t ulNewMaskValue )
 427:..\FreeRTOS/port.c **** {
 276              		.loc 1 427 0
 277              		.cfi_startproc
 278              		@ Naked Function: prologue and epilogue provided by programmer.
 279              		@ args = 0, pretend = 0, frame = 0
 280              		@ frame_needed = 0, uses_anonymous_args = 0
 281              	.LVL8:
 428:..\FreeRTOS/port.c **** 	__asm volatile													\
 282              		.loc 1 428 0
 283              	@ 428 "..\FreeRTOS\port.c" 1
 284 0000 80F31188 			msr basepri, r0										
 285 0004 7047     		bx lr												
 286              	
 287              	@ 0 "" 2
 288              	.LVL9:
 429:..\FreeRTOS/port.c **** 	(																\
 430:..\FreeRTOS/port.c **** 		"	msr basepri, r0										\n"	\
 431:..\FreeRTOS/port.c **** 		"	bx lr												\n" \
 432:..\FreeRTOS/port.c **** 		:::"r0"														\
 433:..\FreeRTOS/port.c **** 	);
 434:..\FreeRTOS/port.c **** 
 435:..\FreeRTOS/port.c **** 	/* Just to avoid compiler warnings. */
 436:..\FreeRTOS/port.c **** 	( void ) ulNewMaskValue;
ARM GAS  C:\Users\koseki\AppData\Local\Temp\ccUo5xKA.s 			page 14


 437:..\FreeRTOS/port.c **** }
 289              		.loc 1 437 0
 290              		.thumb
 291              		.cfi_endproc
 292              	.LFE74:
 293              		.size	vPortClearInterruptMask, .-vPortClearInterruptMask
 294 0006 00BF     		.section	.text.vPortExitCritical,"ax",%progbits
 295              		.align	2
 296              		.global	vPortExitCritical
 297              		.thumb
 298              		.thumb_func
 299              		.type	vPortExitCritical, %function
 300              	vPortExitCritical:
 301              	.LFB72:
 399:..\FreeRTOS/port.c **** 	configASSERT( uxCriticalNesting );
 302              		.loc 1 399 0
 303              		.cfi_startproc
 304              		@ args = 0, pretend = 0, frame = 0
 305              		@ frame_needed = 0, uses_anonymous_args = 0
 306 0000 08B5     		push	{r3, lr}
 307              		.cfi_def_cfa_offset 8
 308              		.cfi_offset 3, -8
 309              		.cfi_offset 14, -4
 401:..\FreeRTOS/port.c **** 	if( uxCriticalNesting == 0 )
 310              		.loc 1 401 0
 311 0002 044A     		ldr	r2, .L22
 312 0004 1368     		ldr	r3, [r2]
 313 0006 013B     		subs	r3, r3, #1
 314 0008 1360     		str	r3, [r2]
 402:..\FreeRTOS/port.c **** 	{
 315              		.loc 1 402 0
 316 000a 13B9     		cbnz	r3, .L19
 404:..\FreeRTOS/port.c **** 	}
 317              		.loc 1 404 0
 318 000c 0020     		movs	r0, #0
 319 000e FFF7FEFF 		bl	vPortClearInterruptMask
 320              	.LVL10:
 321              	.L19:
 322 0012 08BD     		pop	{r3, pc}
 323              	.L23:
 324              		.align	2
 325              	.L22:
 326 0014 00000000 		.word	.LANCHOR0
 327              		.cfi_endproc
 328              	.LFE72:
 329              		.size	vPortExitCritical, .-vPortExitCritical
 330              		.section	.text.xPortPendSVHandler,"ax",%progbits
 331              		.align	2
 332              		.global	xPortPendSVHandler
 333              		.thumb
 334              		.thumb_func
 335              		.type	xPortPendSVHandler, %function
 336              	xPortPendSVHandler:
 337              	.LFB75:
 438:..\FreeRTOS/port.c **** /*-----------------------------------------------------------*/
 439:..\FreeRTOS/port.c **** 
 440:..\FreeRTOS/port.c **** void xPortPendSVHandler( void )
ARM GAS  C:\Users\koseki\AppData\Local\Temp\ccUo5xKA.s 			page 15


 441:..\FreeRTOS/port.c **** {
 338              		.loc 1 441 0
 339              		.cfi_startproc
 340              		@ Naked Function: prologue and epilogue provided by programmer.
 341              		@ args = 0, pretend = 0, frame = 0
 342              		@ frame_needed = 0, uses_anonymous_args = 0
 442:..\FreeRTOS/port.c **** 	/* This is a naked function. */
 443:..\FreeRTOS/port.c **** 
 444:..\FreeRTOS/port.c **** 	__asm volatile
 343              		.loc 1 444 0
 344              	@ 444 "..\FreeRTOS\port.c" 1
 345 0000 EFF30980 			mrs r0, psp							
 346 0004 BFF36F8F 		isb									
 347              											
 348 0008 0D4B     		ldr	r3, pxCurrentTCBConst			
 349 000a 1A68     		ldr	r2, [r3]						
 350              											
 351 000c 20E9F00F 		stmdb r0!, {r4-r11}					
 352 0010 1060     		str r0, [r2]						
 353              											
 354 0012 2DE90840 		stmdb sp!, {r3, r14}				
 355 0016 4FF0A000 		mov r0, #160							
 356 001a 80F31188 		msr basepri, r0						
 357 001e FFF7FEFF 		bl vTaskSwitchContext				
 358 0022 4FF00000 		mov r0, #0							
 359 0026 80F31188 		msr basepri, r0						
 360 002a BDE80840 		ldmia sp!, {r3, r14}				
 361              											
 362 002e 1968     		ldr r1, [r3]						
 363 0030 0868     		ldr r0, [r1]						
 364 0032 B0E8F00F 		ldmia r0!, {r4-r11}					
 365 0036 80F30988 		msr psp, r0							
 366 003a BFF36F8F 		isb									
 367 003e 7047     		bx r14								
 368              											
 369              		.align 2							
 370 0040 00000000 	pxCurrentTCBConst: .word pxCurrentTCB	
 371              	
 372              	@ 0 "" 2
 445:..\FreeRTOS/port.c **** 	(
 446:..\FreeRTOS/port.c **** 	"	mrs r0, psp							\n"
 447:..\FreeRTOS/port.c **** 	"	isb									\n"
 448:..\FreeRTOS/port.c **** 	"										\n"
 449:..\FreeRTOS/port.c **** 	"	ldr	r3, pxCurrentTCBConst			\n" /* Get the location of the current TCB. */
 450:..\FreeRTOS/port.c **** 	"	ldr	r2, [r3]						\n"
 451:..\FreeRTOS/port.c **** 	"										\n"
 452:..\FreeRTOS/port.c **** 	"	stmdb r0!, {r4-r11}					\n" /* Save the remaining registers. */
 453:..\FreeRTOS/port.c **** 	"	str r0, [r2]						\n" /* Save the new top of stack into the first member of the TCB. */
 454:..\FreeRTOS/port.c **** 	"										\n"
 455:..\FreeRTOS/port.c **** 	"	stmdb sp!, {r3, r14}				\n"
 456:..\FreeRTOS/port.c **** 	"	mov r0, %0							\n"
 457:..\FreeRTOS/port.c **** 	"	msr basepri, r0						\n"
 458:..\FreeRTOS/port.c **** 	"	bl vTaskSwitchContext				\n"
 459:..\FreeRTOS/port.c **** 	"	mov r0, #0							\n"
 460:..\FreeRTOS/port.c **** 	"	msr basepri, r0						\n"
 461:..\FreeRTOS/port.c **** 	"	ldmia sp!, {r3, r14}				\n"
 462:..\FreeRTOS/port.c **** 	"										\n"	/* Restore the context, including the critical nesting count. */
ARM GAS  C:\Users\koseki\AppData\Local\Temp\ccUo5xKA.s 			page 16


 463:..\FreeRTOS/port.c **** 	"	ldr r1, [r3]						\n"
 464:..\FreeRTOS/port.c **** 	"	ldr r0, [r1]						\n" /* The first item in pxCurrentTCB is the task top of stack. */
 465:..\FreeRTOS/port.c **** 	"	ldmia r0!, {r4-r11}					\n" /* Pop the registers. */
 466:..\FreeRTOS/port.c **** 	"	msr psp, r0							\n"
 467:..\FreeRTOS/port.c **** 	"	isb									\n"
 468:..\FreeRTOS/port.c **** 	"	bx r14								\n"
 469:..\FreeRTOS/port.c **** 	"										\n"
 470:..\FreeRTOS/port.c **** 	"	.align 2							\n"
 471:..\FreeRTOS/port.c **** 	"pxCurrentTCBConst: .word pxCurrentTCB	\n"
 472:..\FreeRTOS/port.c **** 	::"i"(configMAX_SYSCALL_INTERRUPT_PRIORITY)
 473:..\FreeRTOS/port.c **** 	);
 474:..\FreeRTOS/port.c **** }
 373              		.loc 1 474 0
 374              		.thumb
 375              		.cfi_endproc
 376              	.LFE75:
 377              		.size	xPortPendSVHandler, .-xPortPendSVHandler
 378              		.section	.text.xPortSysTickHandler,"ax",%progbits
 379              		.align	2
 380              		.global	xPortSysTickHandler
 381              		.thumb
 382              		.thumb_func
 383              		.type	xPortSysTickHandler, %function
 384              	xPortSysTickHandler:
 385              	.LFB76:
 475:..\FreeRTOS/port.c **** /*-----------------------------------------------------------*/
 476:..\FreeRTOS/port.c **** 
 477:..\FreeRTOS/port.c **** void xPortSysTickHandler( void )
 478:..\FreeRTOS/port.c **** {
 386              		.loc 1 478 0
 387              		.cfi_startproc
 388              		@ args = 0, pretend = 0, frame = 0
 389              		@ frame_needed = 0, uses_anonymous_args = 0
 390 0000 08B5     		push	{r3, lr}
 391              		.cfi_def_cfa_offset 8
 392              		.cfi_offset 3, -8
 393              		.cfi_offset 14, -4
 479:..\FreeRTOS/port.c **** 	/* The SysTick runs at the lowest interrupt priority, so when this interrupt
 480:..\FreeRTOS/port.c **** 	executes all interrupts must be unmasked.  There is therefore no need to
 481:..\FreeRTOS/port.c **** 	save and then restore the interrupt mask value as its value is already
 482:..\FreeRTOS/port.c **** 	known. */
 483:..\FreeRTOS/port.c **** 	( void ) portSET_INTERRUPT_MASK_FROM_ISR();
 394              		.loc 1 483 0
 395 0002 FFF7FEFF 		bl	ulPortSetInterruptMask
 396              	.LVL11:
 484:..\FreeRTOS/port.c **** 	{
 485:..\FreeRTOS/port.c **** 		/* Increment the RTOS tick. */
 486:..\FreeRTOS/port.c **** 		if( xTaskIncrementTick() != pdFALSE )
 397              		.loc 1 486 0
 398 0006 FFF7FEFF 		bl	xTaskIncrementTick
 399              	.LVL12:
 400 000a 18B1     		cbz	r0, .L26
 487:..\FreeRTOS/port.c **** 		{
 488:..\FreeRTOS/port.c **** 			/* A context switch is required.  Context switching is performed in
 489:..\FreeRTOS/port.c **** 			the PendSV interrupt.  Pend the PendSV interrupt. */
 490:..\FreeRTOS/port.c **** 			portNVIC_INT_CTRL_REG = portNVIC_PENDSVSET_BIT;
 401              		.loc 1 490 0
ARM GAS  C:\Users\koseki\AppData\Local\Temp\ccUo5xKA.s 			page 17


 402 000c 4FF08052 		mov	r2, #268435456
 403 0010 024B     		ldr	r3, .L28
 404 0012 1A60     		str	r2, [r3]
 405              	.L26:
 491:..\FreeRTOS/port.c **** 		}
 492:..\FreeRTOS/port.c **** 	}
 493:..\FreeRTOS/port.c **** 	portCLEAR_INTERRUPT_MASK_FROM_ISR( 0 );
 406              		.loc 1 493 0
 407 0014 0020     		movs	r0, #0
 408 0016 FFF7FEFF 		bl	vPortClearInterruptMask
 409              	.LVL13:
 410 001a 08BD     		pop	{r3, pc}
 411              	.L29:
 412              		.align	2
 413              	.L28:
 414 001c 04ED00E0 		.word	-536810236
 415              		.cfi_endproc
 416              	.LFE76:
 417              		.size	xPortSysTickHandler, .-xPortSysTickHandler
 418              		.section	.text.vPortSetupTimerInterrupt,"ax",%progbits
 419              		.align	2
 420              		.weak	vPortSetupTimerInterrupt
 421              		.thumb
 422              		.thumb_func
 423              		.type	vPortSetupTimerInterrupt, %function
 424              	vPortSetupTimerInterrupt:
 425              	.LFB77:
 494:..\FreeRTOS/port.c **** }
 495:..\FreeRTOS/port.c **** /*-----------------------------------------------------------*/
 496:..\FreeRTOS/port.c **** 
 497:..\FreeRTOS/port.c **** #if configUSE_TICKLESS_IDLE == 1
 498:..\FreeRTOS/port.c **** 
 499:..\FreeRTOS/port.c **** 	__attribute__((weak)) void vPortSuppressTicksAndSleep( TickType_t xExpectedIdleTime )
 500:..\FreeRTOS/port.c **** 	{
 501:..\FreeRTOS/port.c **** 	uint32_t ulReloadValue, ulCompleteTickPeriods, ulCompletedSysTickDecrements, ulSysTickCTRL;
 502:..\FreeRTOS/port.c **** 	TickType_t xModifiableIdleTime;
 503:..\FreeRTOS/port.c **** 
 504:..\FreeRTOS/port.c **** 		/* Make sure the SysTick reload value does not overflow the counter. */
 505:..\FreeRTOS/port.c **** 		if( xExpectedIdleTime > xMaximumPossibleSuppressedTicks )
 506:..\FreeRTOS/port.c **** 		{
 507:..\FreeRTOS/port.c **** 			xExpectedIdleTime = xMaximumPossibleSuppressedTicks;
 508:..\FreeRTOS/port.c **** 		}
 509:..\FreeRTOS/port.c **** 
 510:..\FreeRTOS/port.c **** 		/* Stop the SysTick momentarily.  The time the SysTick is stopped for
 511:..\FreeRTOS/port.c **** 		is accounted for as best it can be, but using the tickless mode will
 512:..\FreeRTOS/port.c **** 		inevitably result in some tiny drift of the time maintained by the
 513:..\FreeRTOS/port.c **** 		kernel with respect to calendar time. */
 514:..\FreeRTOS/port.c **** 		portNVIC_SYSTICK_CTRL_REG &= ~portNVIC_SYSTICK_ENABLE_BIT;
 515:..\FreeRTOS/port.c **** 
 516:..\FreeRTOS/port.c **** 		/* Calculate the reload value required to wait xExpectedIdleTime
 517:..\FreeRTOS/port.c **** 		tick periods.  -1 is used because this code will execute part way
 518:..\FreeRTOS/port.c **** 		through one of the tick periods. */
 519:..\FreeRTOS/port.c **** 		ulReloadValue = portNVIC_SYSTICK_CURRENT_VALUE_REG + ( ulTimerCountsForOneTick * ( xExpectedIdleT
 520:..\FreeRTOS/port.c **** 		if( ulReloadValue > ulStoppedTimerCompensation )
 521:..\FreeRTOS/port.c **** 		{
 522:..\FreeRTOS/port.c **** 			ulReloadValue -= ulStoppedTimerCompensation;
 523:..\FreeRTOS/port.c **** 		}
ARM GAS  C:\Users\koseki\AppData\Local\Temp\ccUo5xKA.s 			page 18


 524:..\FreeRTOS/port.c **** 
 525:..\FreeRTOS/port.c **** 		/* Enter a critical section but don't use the taskENTER_CRITICAL()
 526:..\FreeRTOS/port.c **** 		method as that will mask interrupts that should exit sleep mode. */
 527:..\FreeRTOS/port.c **** 		__asm volatile( "cpsid i" );
 528:..\FreeRTOS/port.c **** 
 529:..\FreeRTOS/port.c **** 		/* If a context switch is pending or a task is waiting for the scheduler
 530:..\FreeRTOS/port.c **** 		to be unsuspended then abandon the low power entry. */
 531:..\FreeRTOS/port.c **** 		if( eTaskConfirmSleepModeStatus() == eAbortSleep )
 532:..\FreeRTOS/port.c **** 		{
 533:..\FreeRTOS/port.c **** 			/* Restart from whatever is left in the count register to complete
 534:..\FreeRTOS/port.c **** 			this tick period. */
 535:..\FreeRTOS/port.c **** 			portNVIC_SYSTICK_LOAD_REG = portNVIC_SYSTICK_CURRENT_VALUE_REG;
 536:..\FreeRTOS/port.c **** 
 537:..\FreeRTOS/port.c **** 			/* Restart SysTick. */
 538:..\FreeRTOS/port.c **** 			portNVIC_SYSTICK_CTRL_REG |= portNVIC_SYSTICK_ENABLE_BIT;
 539:..\FreeRTOS/port.c **** 
 540:..\FreeRTOS/port.c **** 			/* Reset the reload register to the value required for normal tick
 541:..\FreeRTOS/port.c **** 			periods. */
 542:..\FreeRTOS/port.c **** 			portNVIC_SYSTICK_LOAD_REG = ulTimerCountsForOneTick - 1UL;
 543:..\FreeRTOS/port.c **** 
 544:..\FreeRTOS/port.c **** 			/* Re-enable interrupts - see comments above the cpsid instruction()
 545:..\FreeRTOS/port.c **** 			above. */
 546:..\FreeRTOS/port.c **** 			__asm volatile( "cpsie i" );
 547:..\FreeRTOS/port.c **** 		}
 548:..\FreeRTOS/port.c **** 		else
 549:..\FreeRTOS/port.c **** 		{
 550:..\FreeRTOS/port.c **** 			/* Set the new reload value. */
 551:..\FreeRTOS/port.c **** 			portNVIC_SYSTICK_LOAD_REG = ulReloadValue;
 552:..\FreeRTOS/port.c **** 
 553:..\FreeRTOS/port.c **** 			/* Clear the SysTick count flag and set the count value back to
 554:..\FreeRTOS/port.c **** 			zero. */
 555:..\FreeRTOS/port.c **** 			portNVIC_SYSTICK_CURRENT_VALUE_REG = 0UL;
 556:..\FreeRTOS/port.c **** 
 557:..\FreeRTOS/port.c **** 			/* Restart SysTick. */
 558:..\FreeRTOS/port.c **** 			portNVIC_SYSTICK_CTRL_REG |= portNVIC_SYSTICK_ENABLE_BIT;
 559:..\FreeRTOS/port.c **** 
 560:..\FreeRTOS/port.c **** 			/* Sleep until something happens.  configPRE_SLEEP_PROCESSING() can
 561:..\FreeRTOS/port.c **** 			set its parameter to 0 to indicate that its implementation contains
 562:..\FreeRTOS/port.c **** 			its own wait for interrupt or wait for event instruction, and so wfi
 563:..\FreeRTOS/port.c **** 			should not be executed again.  However, the original expected idle
 564:..\FreeRTOS/port.c **** 			time variable must remain unmodified, so a copy is taken. */
 565:..\FreeRTOS/port.c **** 			xModifiableIdleTime = xExpectedIdleTime;
 566:..\FreeRTOS/port.c **** 			configPRE_SLEEP_PROCESSING( xModifiableIdleTime );
 567:..\FreeRTOS/port.c **** 			if( xModifiableIdleTime > 0 )
 568:..\FreeRTOS/port.c **** 			{
 569:..\FreeRTOS/port.c **** 				__asm volatile( "dsb" );
 570:..\FreeRTOS/port.c **** 				__asm volatile( "wfi" );
 571:..\FreeRTOS/port.c **** 				__asm volatile( "isb" );
 572:..\FreeRTOS/port.c **** 			}
 573:..\FreeRTOS/port.c **** 			configPOST_SLEEP_PROCESSING( xExpectedIdleTime );
 574:..\FreeRTOS/port.c **** 
 575:..\FreeRTOS/port.c **** 			/* Stop SysTick.  Again, the time the SysTick is stopped for is
 576:..\FreeRTOS/port.c **** 			accounted for as best it can be, but using the tickless mode will
 577:..\FreeRTOS/port.c **** 			inevitably result in some tiny drift of the time maintained by the
 578:..\FreeRTOS/port.c **** 			kernel with respect to calendar time. */
 579:..\FreeRTOS/port.c **** 			ulSysTickCTRL = portNVIC_SYSTICK_CTRL_REG;
 580:..\FreeRTOS/port.c **** 			portNVIC_SYSTICK_CTRL_REG = ( ulSysTickCTRL & ~portNVIC_SYSTICK_ENABLE_BIT );
ARM GAS  C:\Users\koseki\AppData\Local\Temp\ccUo5xKA.s 			page 19


 581:..\FreeRTOS/port.c **** 
 582:..\FreeRTOS/port.c **** 			/* Re-enable interrupts - see comments above the cpsid instruction()
 583:..\FreeRTOS/port.c **** 			above. */
 584:..\FreeRTOS/port.c **** 			__asm volatile( "cpsie i" );
 585:..\FreeRTOS/port.c **** 
 586:..\FreeRTOS/port.c **** 			if( ( ulSysTickCTRL & portNVIC_SYSTICK_COUNT_FLAG_BIT ) != 0 )
 587:..\FreeRTOS/port.c **** 			{
 588:..\FreeRTOS/port.c **** 				uint32_t ulCalculatedLoadValue;
 589:..\FreeRTOS/port.c **** 
 590:..\FreeRTOS/port.c **** 				/* The tick interrupt has already executed, and the SysTick
 591:..\FreeRTOS/port.c **** 				count reloaded with ulReloadValue.  Reset the
 592:..\FreeRTOS/port.c **** 				portNVIC_SYSTICK_LOAD_REG with whatever remains of this tick
 593:..\FreeRTOS/port.c **** 				period. */
 594:..\FreeRTOS/port.c **** 				ulCalculatedLoadValue = ( ulTimerCountsForOneTick - 1UL ) - ( ulReloadValue - portNVIC_SYSTICK_
 595:..\FreeRTOS/port.c **** 
 596:..\FreeRTOS/port.c **** 				/* Don't allow a tiny value, or values that have somehow
 597:..\FreeRTOS/port.c **** 				underflowed because the post sleep hook did something
 598:..\FreeRTOS/port.c **** 				that took too long. */
 599:..\FreeRTOS/port.c **** 				if( ( ulCalculatedLoadValue < ulStoppedTimerCompensation ) || ( ulCalculatedLoadValue > ulTimer
 600:..\FreeRTOS/port.c **** 				{
 601:..\FreeRTOS/port.c **** 					ulCalculatedLoadValue = ( ulTimerCountsForOneTick - 1UL );
 602:..\FreeRTOS/port.c **** 				}
 603:..\FreeRTOS/port.c **** 
 604:..\FreeRTOS/port.c **** 				portNVIC_SYSTICK_LOAD_REG = ulCalculatedLoadValue;
 605:..\FreeRTOS/port.c **** 
 606:..\FreeRTOS/port.c **** 				/* The tick interrupt handler will already have pended the tick
 607:..\FreeRTOS/port.c **** 				processing in the kernel.  As the pending tick will be
 608:..\FreeRTOS/port.c **** 				processed as soon as this function exits, the tick value
 609:..\FreeRTOS/port.c **** 				maintained by the tick is stepped forward by one less than the
 610:..\FreeRTOS/port.c **** 				time spent waiting. */
 611:..\FreeRTOS/port.c **** 				ulCompleteTickPeriods = xExpectedIdleTime - 1UL;
 612:..\FreeRTOS/port.c **** 			}
 613:..\FreeRTOS/port.c **** 			else
 614:..\FreeRTOS/port.c **** 			{
 615:..\FreeRTOS/port.c **** 				/* Something other than the tick interrupt ended the sleep.
 616:..\FreeRTOS/port.c **** 				Work out how long the sleep lasted rounded to complete tick
 617:..\FreeRTOS/port.c **** 				periods (not the ulReload value which accounted for part
 618:..\FreeRTOS/port.c **** 				ticks). */
 619:..\FreeRTOS/port.c **** 				ulCompletedSysTickDecrements = ( xExpectedIdleTime * ulTimerCountsForOneTick ) - portNVIC_SYSTI
 620:..\FreeRTOS/port.c **** 
 621:..\FreeRTOS/port.c **** 				/* How many complete tick periods passed while the processor
 622:..\FreeRTOS/port.c **** 				was waiting? */
 623:..\FreeRTOS/port.c **** 				ulCompleteTickPeriods = ulCompletedSysTickDecrements / ulTimerCountsForOneTick;
 624:..\FreeRTOS/port.c **** 
 625:..\FreeRTOS/port.c **** 				/* The reload value is set to whatever fraction of a single tick
 626:..\FreeRTOS/port.c **** 				period remains. */
 627:..\FreeRTOS/port.c **** 				portNVIC_SYSTICK_LOAD_REG = ( ( ulCompleteTickPeriods + 1 ) * ulTimerCountsForOneTick ) - ulCom
 628:..\FreeRTOS/port.c **** 			}
 629:..\FreeRTOS/port.c **** 
 630:..\FreeRTOS/port.c **** 			/* Restart SysTick so it runs from portNVIC_SYSTICK_LOAD_REG
 631:..\FreeRTOS/port.c **** 			again, then set portNVIC_SYSTICK_LOAD_REG back to its standard
 632:..\FreeRTOS/port.c **** 			value.  The critical section is used to ensure the tick interrupt
 633:..\FreeRTOS/port.c **** 			can only execute once in the case that the reload register is near
 634:..\FreeRTOS/port.c **** 			zero. */
 635:..\FreeRTOS/port.c **** 			portNVIC_SYSTICK_CURRENT_VALUE_REG = 0UL;
 636:..\FreeRTOS/port.c **** 			portENTER_CRITICAL();
 637:..\FreeRTOS/port.c **** 			{
ARM GAS  C:\Users\koseki\AppData\Local\Temp\ccUo5xKA.s 			page 20


 638:..\FreeRTOS/port.c **** 				portNVIC_SYSTICK_CTRL_REG |= portNVIC_SYSTICK_ENABLE_BIT;
 639:..\FreeRTOS/port.c **** 				vTaskStepTick( ulCompleteTickPeriods );
 640:..\FreeRTOS/port.c **** 				portNVIC_SYSTICK_LOAD_REG = ulTimerCountsForOneTick - 1UL;
 641:..\FreeRTOS/port.c **** 			}
 642:..\FreeRTOS/port.c **** 			portEXIT_CRITICAL();
 643:..\FreeRTOS/port.c **** 		}
 644:..\FreeRTOS/port.c **** 	}
 645:..\FreeRTOS/port.c **** 
 646:..\FreeRTOS/port.c **** #endif /* #if configUSE_TICKLESS_IDLE */
 647:..\FreeRTOS/port.c **** /*-----------------------------------------------------------*/
 648:..\FreeRTOS/port.c **** 
 649:..\FreeRTOS/port.c **** /*
 650:..\FreeRTOS/port.c ****  * Setup the systick timer to generate the tick interrupts at the required
 651:..\FreeRTOS/port.c ****  * frequency.
 652:..\FreeRTOS/port.c ****  */
 653:..\FreeRTOS/port.c **** __attribute__(( weak )) void vPortSetupTimerInterrupt( void )
 654:..\FreeRTOS/port.c **** {
 426              		.loc 1 654 0
 427              		.cfi_startproc
 428              		@ args = 0, pretend = 0, frame = 0
 429              		@ frame_needed = 0, uses_anonymous_args = 0
 430              		@ link register save eliminated.
 655:..\FreeRTOS/port.c **** 	/* Calculate the constants required to configure the tick interrupt. */
 656:..\FreeRTOS/port.c **** 	#if configUSE_TICKLESS_IDLE == 1
 657:..\FreeRTOS/port.c **** 	{
 658:..\FreeRTOS/port.c **** 		ulTimerCountsForOneTick = ( configSYSTICK_CLOCK_HZ / configTICK_RATE_HZ );
 659:..\FreeRTOS/port.c **** 		xMaximumPossibleSuppressedTicks = portMAX_24_BIT_NUMBER / ulTimerCountsForOneTick;
 660:..\FreeRTOS/port.c **** 		ulStoppedTimerCompensation = portMISSED_COUNTS_FACTOR / ( configCPU_CLOCK_HZ / configSYSTICK_CLOC
 661:..\FreeRTOS/port.c **** 	}
 662:..\FreeRTOS/port.c **** 	#endif /* configUSE_TICKLESS_IDLE */
 663:..\FreeRTOS/port.c **** 
 664:..\FreeRTOS/port.c **** 	/* Configure SysTick to interrupt at the requested rate. */
 665:..\FreeRTOS/port.c **** 	portNVIC_SYSTICK_LOAD_REG = ( configSYSTICK_CLOCK_HZ / configTICK_RATE_HZ ) - 1UL;
 431              		.loc 1 665 0
 432 0000 034A     		ldr	r2, .L31
 433 0002 044B     		ldr	r3, .L31+4
 434 0004 1A60     		str	r2, [r3]
 666:..\FreeRTOS/port.c **** 	portNVIC_SYSTICK_CTRL_REG = ( portNVIC_SYSTICK_CLK_BIT | portNVIC_SYSTICK_INT_BIT | portNVIC_SYSTI
 435              		.loc 1 666 0
 436 0006 0722     		movs	r2, #7
 437 0008 043B     		subs	r3, r3, #4
 438 000a 1A60     		str	r2, [r3]
 439 000c 7047     		bx	lr
 440              	.L32:
 441 000e 00BF     		.align	2
 442              	.L31:
 443 0010 CF010100 		.word	65999
 444 0014 14E000E0 		.word	-536813548
 445              		.cfi_endproc
 446              	.LFE77:
 447              		.size	vPortSetupTimerInterrupt, .-vPortSetupTimerInterrupt
 448              		.section	.text.xPortStartScheduler,"ax",%progbits
 449              		.align	2
 450              		.global	xPortStartScheduler
 451              		.thumb
 452              		.thumb_func
 453              		.type	xPortStartScheduler, %function
ARM GAS  C:\Users\koseki\AppData\Local\Temp\ccUo5xKA.s 			page 21


 454              	xPortStartScheduler:
 455              	.LFB68:
 285:..\FreeRTOS/port.c **** 	/* configMAX_SYSCALL_INTERRUPT_PRIORITY must not be set to 0.
 456              		.loc 1 285 0
 457              		.cfi_startproc
 458              		@ Volatile: function does not return.
 459              		@ args = 0, pretend = 0, frame = 0
 460              		@ frame_needed = 0, uses_anonymous_args = 0
 461 0000 08B5     		push	{r3, lr}
 462              		.cfi_def_cfa_offset 8
 463              		.cfi_offset 3, -8
 464              		.cfi_offset 14, -4
 335:..\FreeRTOS/port.c **** 	portNVIC_SYSPRI2_REG |= portNVIC_SYSTICK_PRI;
 465              		.loc 1 335 0
 466 0002 094B     		ldr	r3, .L35
 467 0004 1A68     		ldr	r2, [r3]
 468 0006 42F46002 		orr	r2, r2, #14680064
 469 000a 1A60     		str	r2, [r3]
 336:..\FreeRTOS/port.c **** 
 470              		.loc 1 336 0
 471 000c 1A68     		ldr	r2, [r3]
 472 000e 42F06042 		orr	r2, r2, #-536870912
 473 0012 1A60     		str	r2, [r3]
 340:..\FreeRTOS/port.c **** 
 474              		.loc 1 340 0
 475 0014 FFF7FEFF 		bl	vPortSetupTimerInterrupt
 476              	.LVL14:
 343:..\FreeRTOS/port.c **** 
 477              		.loc 1 343 0
 478 0018 0022     		movs	r2, #0
 479 001a 044B     		ldr	r3, .L35+4
 480 001c 1A60     		str	r2, [r3]
 346:..\FreeRTOS/port.c **** 
 481              		.loc 1 346 0
 482 001e FFF7FEFF 		bl	prvPortStartFirstTask
 483              	.LVL15:
 352:..\FreeRTOS/port.c **** 
 484              		.loc 1 352 0
 485 0022 FFF7FEFF 		bl	prvTaskExitError
 486              	.LVL16:
 487              	.L36:
 488 0026 00BF     		.align	2
 489              	.L35:
 490 0028 20ED00E0 		.word	-536810208
 491 002c 00000000 		.word	.LANCHOR0
 492              		.cfi_endproc
 493              	.LFE68:
 494              		.size	xPortStartScheduler, .-xPortStartScheduler
 495              		.data
 496              		.align	2
 497              		.set	.LANCHOR0,. + 0
 498              		.type	uxCriticalNesting, %object
 499              		.size	uxCriticalNesting, 4
 500              	uxCriticalNesting:
 501 0000 AAAAAAAA 		.word	-1431655766
 502              		.text
 503              	.Letext0:
ARM GAS  C:\Users\koseki\AppData\Local\Temp\ccUo5xKA.s 			page 22


 504              		.file 2 "c:\\program files (x86)\\cypress\\psoc creator\\4.0\\psoc creator\\import\\gnu\\arm\\4.9.
 505              		.file 3 "c:\\program files (x86)\\cypress\\psoc creator\\4.0\\psoc creator\\import\\gnu\\arm\\4.9.
 506              		.file 4 "..\\FreeRTOS\\projdefs.h"
 507              		.file 5 "..\\FreeRTOS\\portmacro.h"
 508              		.file 6 "Generated_Source\\PSoC5/core_cm3.h"
 509              		.file 7 "..\\FreeRTOS\\task.h"