ARM GAS  C:\Users\koseki\AppData\Local\Temp\ccA3v29j.s 			page 1


   1              		.syntax unified
   2              		.cpu cortex-m3
   3              		.fpu softvfp
   4              		.eabi_attribute 20, 1
   5              		.eabi_attribute 21, 1
   6              		.eabi_attribute 23, 3
   7              		.eabi_attribute 24, 1
   8              		.eabi_attribute 25, 1
   9              		.eabi_attribute 26, 1
  10              		.eabi_attribute 30, 1
  11              		.eabi_attribute 34, 1
  12              		.eabi_attribute 18, 4
  13              		.thumb
  14              		.file	"rot.c"
  15              		.text
  16              	.Ltext0:
  17              		.cfi_sections	.debug_frame
  18              		.section	.text.Init_ROT,"ax",%progbits
  19              		.align	2
  20              		.global	Init_ROT
  21              		.thumb
  22              		.thumb_func
  23              		.type	Init_ROT, %function
  24              	Init_ROT:
  25              	.LFB64:
  26              		.file 1 "..\\API\\rot.c"
   1:..\API/rot.c  **** /* ========================================
   2:..\API/rot.c  ****  *
   3:..\API/rot.c  ****  * Copyright YOUR COMPANY, THE YEAR
   4:..\API/rot.c  ****  * All Rights Reserved
   5:..\API/rot.c  ****  * UNPUBLISHED, LICENSED SOFTWARE.
   6:..\API/rot.c  ****  *
   7:..\API/rot.c  ****  * CONFIDENTIAL AND PROPRIETARY INFORMATION
   8:..\API/rot.c  ****  * WHICH IS THE PROPERTY OF your company.
   9:..\API/rot.c  ****  *
  10:..\API/rot.c  ****  * ========================================
  11:..\API/rot.c  ****  */
  12:..\API/rot.c  **** 
  13:..\API/rot.c  **** /* API */
  14:..\API/rot.c  **** #include "rot.h"
  15:..\API/rot.c  **** 
  16:..\API/rot.c  **** /* Definitions of FreeRTOS related Resource */
  17:..\API/rot.c  **** extern xQueueHandle xQueue_ROT;
  18:..\API/rot.c  **** 
  19:..\API/rot.c  **** /***********************
  20:..\API/rot.c  ****  *  Initialize ROT     *
  21:..\API/rot.c  ****  ***********************/
  22:..\API/rot.c  **** void Init_ROT(void)
  23:..\API/rot.c  **** {
  27              		.loc 1 23 0
  28              		.cfi_startproc
  29              		@ args = 0, pretend = 0, frame = 0
  30              		@ frame_needed = 0, uses_anonymous_args = 0
  31              		@ link register save eliminated.
  32 0000 7047     		bx	lr
  33              		.cfi_endproc
  34              	.LFE64:
ARM GAS  C:\Users\koseki\AppData\Local\Temp\ccA3v29j.s 			page 2


  35              		.size	Init_ROT, .-Init_ROT
  36 0002 00BF     		.section	.text.Task_ROT,"ax",%progbits
  37              		.align	2
  38              		.global	Task_ROT
  39              		.thumb
  40              		.thumb_func
  41              		.type	Task_ROT, %function
  42              	Task_ROT:
  43              	.LFB65:
  24:..\API/rot.c  ****     /* initialize the rotary encoder */    
  25:..\API/rot.c  **** }
  26:..\API/rot.c  **** 
  27:..\API/rot.c  **** 
  28:..\API/rot.c  **** #define QUEUE_INTERVAL 50
  29:..\API/rot.c  **** 
  30:..\API/rot.c  **** /***********************
  31:..\API/rot.c  ****  *  Task ROT           *
  32:..\API/rot.c  ****  ***********************/
  33:..\API/rot.c  **** void Task_ROT(void *pvParameters)
  34:..\API/rot.c  **** {
  44              		.loc 1 34 0
  45              		.cfi_startproc
  46              		@ args = 0, pretend = 0, frame = 8
  47              		@ frame_needed = 0, uses_anonymous_args = 0
  48              	.LVL0:
  49              		.loc 1 34 0
  50 0000 70B5     		push	{r4, r5, r6, lr}
  51              		.cfi_def_cfa_offset 16
  52              		.cfi_offset 4, -16
  53              		.cfi_offset 5, -12
  54              		.cfi_offset 6, -8
  55              		.cfi_offset 14, -4
  56 0002 82B0     		sub	sp, sp, #8
  57              		.cfi_def_cfa_offset 24
  58              	.LVL1:
  35:..\API/rot.c  ****     /* Block for 3ms */
  36:..\API/rot.c  ****     const portTickType xDelay = 3 / portTICK_RATE_MS;
  37:..\API/rot.c  **** 
  38:..\API/rot.c  ****     uint8 new = 0;  /* current state of ROT */
  39:..\API/rot.c  ****     uint8 prev = 0; /* previous state of ROT */
  40:..\API/rot.c  ****     int8 count = 0; /* click count */
  59              		.loc 1 40 0
  60 0004 0026     		movs	r6, #0
  61 0006 8DF80760 		strb	r6, [sp, #7]
  62              	.LVL2:
  41:..\API/rot.c  ****     uint16 cntTask = 0;   /* task count */
  63              		.loc 1 41 0
  64 000a 3546     		mov	r5, r6
  65              	.LVL3:
  66              	.L7:
  42:..\API/rot.c  **** 
  43:..\API/rot.c  ****     /* Task Loop */
  44:..\API/rot.c  ****     while(1)
  45:..\API/rot.c  ****     {
  46:..\API/rot.c  ****         /*****************************************
  47:..\API/rot.c  **** 		*	Rotary Encoder
  48:..\API/rot.c  **** 		******************************************/
ARM GAS  C:\Users\koseki\AppData\Local\Temp\ccA3v29j.s 			page 3


  49:..\API/rot.c  **** 
  50:..\API/rot.c  ****         /* click detect */
  51:..\API/rot.c  ****         new = (ROT_A_Read() << 1) + ROT_B_Read();
  67              		.loc 1 51 0
  68 000c FFF7FEFF 		bl	ROT_A_Read
  69              	.LVL4:
  70 0010 0446     		mov	r4, r0
  71 0012 FFF7FEFF 		bl	ROT_B_Read
  72              	.LVL5:
  73 0016 00EB4400 		add	r0, r0, r4, lsl #1
  74 001a C0B2     		uxtb	r0, r0
  75              	.LVL6:
  52:..\API/rot.c  ****         if (new != prev)
  76              		.loc 1 52 0
  77 001c B042     		cmp	r0, r6
  78 001e 12D0     		beq	.L3
  53:..\API/rot.c  ****         {
  54:..\API/rot.c  ****             /* click CW ? */
  55:..\API/rot.c  ****             if ((new == 0x03u) && (prev == 0x02u))
  79              		.loc 1 55 0
  80 0020 0328     		cmp	r0, #3
  81 0022 06D1     		bne	.L4
  82              		.loc 1 55 0 is_stmt 0 discriminator 1
  83 0024 022E     		cmp	r6, #2
  84 0026 04D1     		bne	.L4
  56:..\API/rot.c  ****                 count++;
  85              		.loc 1 56 0 is_stmt 1
  86 0028 9DF80730 		ldrb	r3, [sp, #7]	@ zero_extendqisi2
  87 002c 0133     		adds	r3, r3, #1
  88 002e 8DF80730 		strb	r3, [sp, #7]
  89              	.L4:
  57:..\API/rot.c  ****             /* click CCW ? */
  58:..\API/rot.c  ****             if ((new == 0x03u) && (prev == 0x01u))
  90              		.loc 1 58 0
  91 0032 0328     		cmp	r0, #3
  92 0034 06D1     		bne	.L5
  93              		.loc 1 58 0 is_stmt 0 discriminator 1
  94 0036 012E     		cmp	r6, #1
  95 0038 04D1     		bne	.L5
  59:..\API/rot.c  ****                 count--;
  96              		.loc 1 59 0 is_stmt 1
  97 003a 9DF80730 		ldrb	r3, [sp, #7]	@ zero_extendqisi2
  98 003e 013B     		subs	r3, r3, #1
  99 0040 8DF80730 		strb	r3, [sp, #7]
 100              	.L5:
 101              	.LVL7:
  60:..\API/rot.c  ****             /* update the ROT state */
  61:..\API/rot.c  ****             prev = new;
 102              		.loc 1 61 0
 103 0044 0646     		mov	r6, r0
 104              	.LVL8:
 105              	.L3:
  62:..\API/rot.c  ****         }
  63:..\API/rot.c  **** 
  64:..\API/rot.c  ****         cntTask++;
 106              		.loc 1 64 0
 107 0046 0135     		adds	r5, r5, #1
ARM GAS  C:\Users\koseki\AppData\Local\Temp\ccA3v29j.s 			page 4


 108              	.LVL9:
 109 0048 ADB2     		uxth	r5, r5
 110              	.LVL10:
  65:..\API/rot.c  ****         if (cntTask >= QUEUE_INTERVAL)
 111              		.loc 1 65 0
 112 004a 312D     		cmp	r5, #49
 113 004c 0FD9     		bls	.L6
  66:..\API/rot.c  ****         {
  67:..\API/rot.c  ****             if (count != 0)
 114              		.loc 1 67 0
 115 004e 9DF80730 		ldrb	r3, [sp, #7]	@ zero_extendqisi2
 116 0052 5BB1     		cbz	r3, .L8
  68:..\API/rot.c  ****             {
  69:..\API/rot.c  ****                 xQueueSend(xQueue_ROT, &count, 0);
 117              		.loc 1 69 0
 118 0054 084B     		ldr	r3, .L10
 119 0056 1868     		ldr	r0, [r3]
 120              	.LVL11:
 121 0058 0DF10701 		add	r1, sp, #7
 122 005c 0022     		movs	r2, #0
 123 005e 1346     		mov	r3, r2
 124 0060 FFF7FEFF 		bl	xQueueGenericSend
 125              	.LVL12:
  70:..\API/rot.c  ****                 count = 0;
 126              		.loc 1 70 0
 127 0064 0025     		movs	r5, #0
 128              	.LVL13:
 129 0066 8DF80750 		strb	r5, [sp, #7]
 130 006a 00E0     		b	.L6
 131              	.LVL14:
 132              	.L8:
  71:..\API/rot.c  ****             }
  72:..\API/rot.c  ****             cntTask = 0;
 133              		.loc 1 72 0
 134 006c 0025     		movs	r5, #0
 135              	.LVL15:
 136              	.L6:
  73:..\API/rot.c  ****         }
  74:..\API/rot.c  **** 
  75:..\API/rot.c  ****         /* Blocking Task */
  76:..\API/rot.c  ****         vTaskDelay(xDelay);
 137              		.loc 1 76 0
 138 006e 0320     		movs	r0, #3
 139 0070 FFF7FEFF 		bl	vTaskDelay
 140              	.LVL16:
  77:..\API/rot.c  ****     }
 141              		.loc 1 77 0
 142 0074 CAE7     		b	.L7
 143              	.L11:
 144 0076 00BF     		.align	2
 145              	.L10:
 146 0078 00000000 		.word	xQueue_ROT
 147              		.cfi_endproc
 148              	.LFE65:
 149              		.size	Task_ROT, .-Task_ROT
 150              		.text
 151              	.Letext0:
ARM GAS  C:\Users\koseki\AppData\Local\Temp\ccA3v29j.s 			page 5


 152              		.file 2 "c:\\program files (x86)\\cypress\\psoc creator\\4.0\\psoc creator\\import\\gnu\\arm\\4.9.
 153              		.file 3 "c:\\program files (x86)\\cypress\\psoc creator\\4.0\\psoc creator\\import\\gnu\\arm\\4.9.
 154              		.file 4 "Generated_Source\\PSoC5/cytypes.h"
 155              		.file 5 "..\\FreeRTOS/portmacro.h"
 156              		.file 6 "..\\FreeRTOS/queue.h"
 157              		.file 7 "Generated_Source\\PSoC5/core_cm3.h"
 158              		.file 8 "Generated_Source\\PSoC5/ROT_A.h"
 159              		.file 9 "Generated_Source\\PSoC5/ROT_B.h"
 160              		.file 10 "..\\FreeRTOS/task.h"