ARM GAS  C:\Users\koseki\AppData\Local\Temp\ccPFU33k.s 			page 1


   1              		.syntax unified
   2              		.cpu cortex-m3
   3              		.fpu softvfp
   4              		.eabi_attribute 20, 1
   5              		.eabi_attribute 21, 1
   6              		.eabi_attribute 23, 3
   7              		.eabi_attribute 24, 1
   8              		.eabi_attribute 25, 1
   9              		.eabi_attribute 26, 1
  10              		.eabi_attribute 30, 1
  11              		.eabi_attribute 34, 1
  12              		.eabi_attribute 18, 4
  13              		.thumb
  14              		.file	"Serial.c"
  15              		.text
  16              	.Ltext0:
  17              		.cfi_sections	.debug_frame
  18              		.section	.text.ProcessComRx,"ax",%progbits
  19              		.align	2
  20              		.global	ProcessComRx
  21              		.thumb
  22              		.thumb_func
  23              		.type	ProcessComRx, %function
  24              	ProcessComRx:
  25              	.LFB63:
  26              		.file 1 "Serial.c"
   1:Serial.c      **** //----------------------------------------------------------------------------
   2:Serial.c      **** //
   3:Serial.c      **** //	SIMPLE SDR RECEIVER PSoC3 FIRMWARE for Hardware Rev -
   4:Serial.c      **** //
   5:Serial.c      **** //	Copyright 2011 Simple Circuits Inc.
   6:Serial.c      **** //
   7:Serial.c      **** //	06/03/2011	Original release.
   8:Serial.c      **** //
   9:Serial.c      **** //----------------------------------------------------------------------------
  10:Serial.c      **** #include <device.h>
  11:Serial.c      **** #include <string.h>
  12:Serial.c      **** #include "main.h"
  13:Serial.c      **** // PSoC3 => PSoC5LP
  14:Serial.c      **** #include "USBUART_API.h"
  15:Serial.c      **** #include <stdlib.h>
  16:Serial.c      **** #include <stdio.h>
  17:Serial.c      **** 
  18:Serial.c      **** //----------------------------------------------------------------------------
  19:Serial.c      **** //
  20:Serial.c      **** //	Global variables
  21:Serial.c      **** //
  22:Serial.c      **** //----------------------------------------------------------------------------
  23:Serial.c      **** extern uint8	ComRxCmd [32];				// remote command rx buffer
  24:Serial.c      **** extern uint8	UsbTxBuffer [64];
  25:Serial.c      **** extern uint8	ComRxPtr;					// pointer into com rx buffer
  26:Serial.c      **** 
  27:Serial.c      **** extern uint8	Freq [8];					// frequency in ASCII BCD
  28:Serial.c      **** extern int32	Frequency;					// receive frequency in binary
  29:Serial.c      **** 
  30:Serial.c      **** extern uint8	LedTimer;					// LED on timer
  31:Serial.c      **** extern uint8	DisplayIndex;				// index for status display
ARM GAS  C:\Users\koseki\AppData\Local\Temp\ccPFU33k.s 			page 2


  32:Serial.c      **** 
  33:Serial.c      **** extern uint8	AgcDisable;					// Agc disable flag
  34:Serial.c      **** extern uint8	AgcGain;					// AGC for ADC input, power of 2 scaling factor
  35:Serial.c      **** extern uint8	AgcIntegrator;				// AGC integrator
  36:Serial.c      **** extern uint8	AgcTimeConstant;            // AGC time constant
  37:Serial.c      **** extern uint8	Mode;						// operating mode
  38:Serial.c      **** extern uint8	Filter;						// audio filter bandwidth
  39:Serial.c      **** extern uint8	AttenuatorOn;				// rx attenuator on/off flag
  40:Serial.c      **** extern uint8	Squelch;					// squelch level, 0 - 250.
  41:Serial.c      **** 
  42:Serial.c      **** extern const uint8 FREQ_ERROR[8];			// freq offset is 1st row of eeprom
  43:Serial.c      **** extern const uint8 SERIAL_NUM[8];			// serial number is 2nd row of eeprom
  44:Serial.c      **** 
  45:Serial.c      **** //----------------------------------------------------------------------------
  46:Serial.c      **** //
  47:Serial.c      **** //	SERIAL ROUTINES
  48:Serial.c      **** //
  49:Serial.c      **** //----------------------------------------------------------------------------
  50:Serial.c      **** 
  51:Serial.c      **** //
  52:Serial.c      **** //	Process com rx commands
  53:Serial.c      **** //
  54:Serial.c      **** void ProcessComRx (void)
  55:Serial.c      **** {
  27              		.loc 1 55 0
  28              		.cfi_startproc
  29              		@ args = 0, pretend = 0, frame = 8
  30              		@ frame_needed = 0, uses_anonymous_args = 0
  31 0000 F0B5     		push	{r4, r5, r6, r7, lr}
  32              		.cfi_def_cfa_offset 20
  33              		.cfi_offset 4, -20
  34              		.cfi_offset 5, -16
  35              		.cfi_offset 6, -12
  36              		.cfi_offset 7, -8
  37              		.cfi_offset 14, -4
  38 0002 83B0     		sub	sp, sp, #12
  39              		.cfi_def_cfa_offset 32
  40              	.LVL0:
  56:Serial.c      **** #define GET_CMD		(ComRxCmd [2] == ';')
  57:Serial.c      **** 	uint8	i;
  58:Serial.c      **** 	uint8	sendUsb = FALSE;
  59:Serial.c      ****     char    str[8];
  60:Serial.c      **** 	
  61:Serial.c      **** 	switch ((ComRxCmd [0] * 256) + ComRxCmd [1])
  41              		.loc 1 61 0
  42 0004 B74A     		ldr	r2, .L69
  43 0006 1178     		ldrb	r1, [r2]	@ zero_extendqisi2
  44 0008 5378     		ldrb	r3, [r2, #1]	@ zero_extendqisi2
  45 000a 03EB0123 		add	r3, r3, r1, lsl #8
  46 000e 44F64412 		movw	r2, #18756
  47 0012 9342     		cmp	r3, r2
  48 0014 00F0D481 		beq	.L3
  49 0018 35DC     		bgt	.L4
  50 001a 44F24162 		movw	r2, #17985
  51 001e 9342     		cmp	r3, r2
  52 0020 00F0DE80 		beq	.L5
  53 0024 13DC     		bgt	.L6
ARM GAS  C:\Users\koseki\AppData\Local\Temp\ccPFU33k.s 			page 3


  54 0026 44F24E12 		movw	r2, #16718
  55 002a 9342     		cmp	r3, r2
  56 002c 74D0     		beq	.L7
  57 002e 04DC     		bgt	.L8
  58 0030 44F24912 		movw	r2, #16713
  59 0034 9342     		cmp	r3, r2
  60 0036 64D0     		beq	.L9
  61 0038 B4E2     		b	.L52
  62              	.L8:
  63 003a 44F24722 		movw	r2, #16967
  64 003e 9342     		cmp	r3, r2
  65 0040 75D0     		beq	.L10
  66 0042 44F25342 		movw	r2, #17491
  67 0046 9342     		cmp	r3, r2
  68 0048 00F08F80 		beq	.L11
  69 004c AAE2     		b	.L52
  70              	.L6:
  71 004e 44F25462 		movw	r2, #18004
  72 0052 9342     		cmp	r3, r2
  73 0054 00F0FD80 		beq	.L12
  74 0058 0ADC     		bgt	.L13
  75 005a 44F24262 		movw	r2, #17986
  76 005e 9342     		cmp	r3, r2
  77 0060 00F0DD80 		beq	.L14
  78 0064 44F25262 		movw	r2, #18002
  79 0068 9342     		cmp	r3, r2
  80 006a 00F0E780 		beq	.L15
  81 006e 99E2     		b	.L52
  82              	.L13:
  83 0070 44F25762 		movw	r2, #18007
  84 0074 9342     		cmp	r3, r2
  85 0076 00F0F780 		beq	.L16
  86 007a 44F25472 		movw	r2, #18260
  87 007e 9342     		cmp	r3, r2
  88 0080 00F07381 		beq	.L17
  89 0084 8EE2     		b	.L52
  90              	.L4:
  91 0086 44F64262 		movw	r2, #20034
  92 008a 9342     		cmp	r3, r2
  93 008c 00F0F881 		beq	.L18
  94 0090 1BDC     		bgt	.L19
  95 0092 44F65332 		movw	r2, #19283
  96 0096 9342     		cmp	r3, r2
  97 0098 00F0C181 		beq	.L20
  98 009c 0ADC     		bgt	.L21
  99 009e 44F64612 		movw	r2, #18758
 100 00a2 9342     		cmp	r3, r2
 101 00a4 00F09481 		beq	.L22
 102 00a8 44F63232 		movw	r2, #19250
 103 00ac 9342     		cmp	r3, r2
 104 00ae 00F0AB81 		beq	.L23
 105 00b2 77E2     		b	.L52
 106              	.L21:
 107 00b4 44F64B42 		movw	r2, #19531
 108 00b8 9342     		cmp	r3, r2
 109 00ba 00F0BD81 		beq	.L24
 110 00be 44F64452 		movw	r2, #19780
ARM GAS  C:\Users\koseki\AppData\Local\Temp\ccPFU33k.s 			page 4


 111 00c2 9342     		cmp	r3, r2
 112 00c4 00F0C381 		beq	.L25
 113 00c8 6CE2     		b	.L52
 114              	.L19:
 115 00ca 45F25302 		movw	r2, #20563
 116 00ce 9342     		cmp	r3, r2
 117 00d0 00F0FD81 		beq	.L26
 118 00d4 0ADC     		bgt	.L27
 119 00d6 45F24102 		movw	r2, #20545
 120 00da 9342     		cmp	r3, r2
 121 00dc 00F0DD81 		beq	.L28
 122 00e0 45F24302 		movw	r2, #20547
 123 00e4 9342     		cmp	r3, r2
 124 00e6 00F0E381 		beq	.L29
 125 00ea 5BE2     		b	.L52
 126              	.L27:
 127 00ec 45F24122 		movw	r2, #21057
 128 00f0 9342     		cmp	r3, r2
 129 00f2 00F0F281 		beq	.L30
 130 00f6 45F25132 		movw	r2, #21329
 131 00fa 9342     		cmp	r3, r2
 132 00fc 00F01682 		beq	.L31
 133 0100 50E2     		b	.L52
 134              	.L9:
  62:Serial.c      **** 	{
  63:Serial.c      **** 		case CMD_AI:					// auto-information, make always mode 0
  64:Serial.c      **** 			if (GET_CMD)
 135              		.loc 1 64 0
 136 0102 784B     		ldr	r3, .L69
 137 0104 9B78     		ldrb	r3, [r3, #2]	@ zero_extendqisi2
 138 0106 3B2B     		cmp	r3, #59
 139 0108 40F04E82 		bne	.L53
 140              	.LVL1:
  65:Serial.c      **** 			{
  66:Serial.c      **** 				sendUsb = 4;			// flag to send response
  67:Serial.c      **** 				memcpy (UsbTxBuffer, "AI0;", sendUsb);
 141              		.loc 1 67 0
 142 010c 764B     		ldr	r3, .L69+4
 143 010e 1868     		ldr	r0, [r3]	@ unaligned
 144 0110 764B     		ldr	r3, .L69+8
 145 0112 1860     		str	r0, [r3]	@ unaligned
  66:Serial.c      **** 				memcpy (UsbTxBuffer, "AI0;", sendUsb);
 146              		.loc 1 66 0
 147 0114 0423     		movs	r3, #4
 148 0116 5EE2     		b	.L2
 149              	.LVL2:
 150              	.L7:
  68:Serial.c      **** 			}
  69:Serial.c      **** 			break;
  70:Serial.c      **** 
  71:Serial.c      **** 		case CMD_AN:					// antenna select, always 1
  72:Serial.c      **** 			if (GET_CMD)
 151              		.loc 1 72 0
 152 0118 724B     		ldr	r3, .L69
 153 011a 9B78     		ldrb	r3, [r3, #2]	@ zero_extendqisi2
 154 011c 3B2B     		cmp	r3, #59
 155 011e 40F04582 		bne	.L54
ARM GAS  C:\Users\koseki\AppData\Local\Temp\ccPFU33k.s 			page 5


 156              	.LVL3:
  73:Serial.c      **** 			{
  74:Serial.c      **** 				sendUsb = 4;
  75:Serial.c      **** 				memcpy (UsbTxBuffer, "AN1;", sendUsb);
 157              		.loc 1 75 0
 158 0122 734B     		ldr	r3, .L69+12
 159 0124 1868     		ldr	r0, [r3]	@ unaligned
 160 0126 714B     		ldr	r3, .L69+8
 161 0128 1860     		str	r0, [r3]	@ unaligned
  74:Serial.c      **** 				memcpy (UsbTxBuffer, "AN1;", sendUsb);
 162              		.loc 1 74 0
 163 012a 0423     		movs	r3, #4
 164 012c 53E2     		b	.L2
 165              	.LVL4:
 166              	.L10:
  76:Serial.c      **** 			}
  77:Serial.c      **** 			break;
  78:Serial.c      **** 
  79:Serial.c      **** 		case CMD_BG:					// bar graph, return BG12 thru BG22
  80:Serial.c      **** 			sendUsb = 5;
  81:Serial.c      **** 			i = AgcGain / 6;			// 64 >= AgcGain >= 0, 10 >= i >= 0
 167              		.loc 1 81 0
 168 012e 714B     		ldr	r3, .L69+16
 169 0130 1B78     		ldrb	r3, [r3]	@ zero_extendqisi2
 170 0132 714A     		ldr	r2, .L69+20
 171 0134 A2FB0323 		umull	r2, r3, r2, r3
 172 0138 9B08     		lsrs	r3, r3, #2
 173              	.LVL5:
  82:Serial.c      **** 			i = (10 - i) + 12;			// between 22 and 12.
 174              		.loc 1 82 0
 175 013a C3F11603 		rsb	r3, r3, #22
 176              	.LVL6:
 177 013e DBB2     		uxtb	r3, r3
 178              	.LVL7:
  83:Serial.c      **** 			memcpy (UsbTxBuffer, "BG12;", sendUsb);
 179              		.loc 1 83 0
 180 0140 6A49     		ldr	r1, .L69+8
 181 0142 6E4A     		ldr	r2, .L69+24
 182 0144 1068     		ldr	r0, [r2]	@ unaligned
 183 0146 0860     		str	r0, [r1]	@ unaligned
 184 0148 1279     		ldrb	r2, [r2, #4]	@ zero_extendqisi2
 185 014a 0A71     		strb	r2, [r1, #4]
  84:Serial.c      **** 			UsbTxBuffer [2] = (i / 10) + '0';	// either '1' or '2'
 186              		.loc 1 84 0
 187 014c 6C4A     		ldr	r2, .L69+28
 188 014e A2FB0302 		umull	r0, r2, r2, r3
 189 0152 D208     		lsrs	r2, r2, #3
 190 0154 02F13000 		add	r0, r2, #48
 191 0158 8870     		strb	r0, [r1, #2]
  85:Serial.c      **** 			UsbTxBuffer [3] = (i % 10) + '0';	// '0' thru '9'
 192              		.loc 1 85 0
 193 015a 02EB8202 		add	r2, r2, r2, lsl #2
 194 015e A3EB4203 		sub	r3, r3, r2, lsl #1
 195              	.LVL8:
 196 0162 3033     		adds	r3, r3, #48
 197 0164 CB70     		strb	r3, [r1, #3]
  80:Serial.c      **** 			i = AgcGain / 6;			// 64 >= AgcGain >= 0, 10 >= i >= 0
ARM GAS  C:\Users\koseki\AppData\Local\Temp\ccPFU33k.s 			page 6


 198              		.loc 1 80 0
 199 0166 0523     		movs	r3, #5
  86:Serial.c      **** 			break;
 200              		.loc 1 86 0
 201 0168 35E2     		b	.L2
 202              	.LVL9:
 203              	.L11:
  87:Serial.c      **** 
  88:Serial.c      **** 		case CMD_DS:					// display read
  89:Serial.c      **** 			sendUsb = 13;
  90:Serial.c      **** 			DisplayIndex++;
 204              		.loc 1 90 0
 205 016a 6649     		ldr	r1, .L69+32
 206 016c 0B78     		ldrb	r3, [r1]	@ zero_extendqisi2
 207 016e 0133     		adds	r3, r3, #1
 208 0170 DBB2     		uxtb	r3, r3
  91:Serial.c      **** 			DisplayIndex %= 12;
 209              		.loc 1 91 0
 210 0172 614A     		ldr	r2, .L69+20
 211 0174 A2FB0302 		umull	r0, r2, r2, r3
 212 0178 D208     		lsrs	r2, r2, #3
 213 017a 02EB4202 		add	r2, r2, r2, lsl #1
 214 017e A3EB8203 		sub	r3, r3, r2, lsl #2
 215 0182 DBB2     		uxtb	r3, r3
 216 0184 0B70     		strb	r3, [r1]
  92:Serial.c      **** 			if (DisplayIndex < 4)		// display version info
 217              		.loc 1 92 0
 218 0186 032B     		cmp	r3, #3
 219 0188 07D8     		bhi	.L32
  93:Serial.c      **** 				memcpy (UsbTxBuffer, VERSION, 10);
 220              		.loc 1 93 0
 221 018a 584A     		ldr	r2, .L69+8
 222 018c 5E4B     		ldr	r3, .L69+36
 223 018e 03CB     		ldmia	r3!, {r0, r1}
 224 0190 1060     		str	r0, [r2]	@ unaligned
 225 0192 5160     		str	r1, [r2, #4]	@ unaligned
 226 0194 1B88     		ldrh	r3, [r3]	@ unaligned
 227 0196 1381     		strh	r3, [r2, #8]	@ unaligned
 228 0198 1AE0     		b	.L33
 229              	.L32:
  94:Serial.c      **** 			else if (DisplayIndex < 8)
 230              		.loc 1 94 0
 231 019a 072B     		cmp	r3, #7
 232 019c 0CD8     		bhi	.L34
  95:Serial.c      **** 			{
  96:Serial.c      **** 				memcpy (UsbTxBuffer, "DSSN ", 5);
 233              		.loc 1 96 0
 234 019e 534B     		ldr	r3, .L69+8
 235 01a0 5A4A     		ldr	r2, .L69+40
 236 01a2 1068     		ldr	r0, [r2]	@ unaligned
 237 01a4 1860     		str	r0, [r3]	@ unaligned
 238 01a6 1279     		ldrb	r2, [r2, #4]	@ zero_extendqisi2
 239 01a8 1A71     		strb	r2, [r3, #4]
  97:Serial.c      **** 				memcpy (&UsbTxBuffer [5], &SERIAL_NUM [3], 5);
 240              		.loc 1 97 0
 241 01aa 594A     		ldr	r2, .L69+44
 242 01ac 1168     		ldr	r1, [r2]	@ unaligned
ARM GAS  C:\Users\koseki\AppData\Local\Temp\ccPFU33k.s 			page 7


 243 01ae C3F80510 		str	r1, [r3, #5]	@ unaligned
 244 01b2 1279     		ldrb	r2, [r2, #4]	@ zero_extendqisi2
 245 01b4 5A72     		strb	r2, [r3, #9]
 246 01b6 0BE0     		b	.L33
 247              	.L34:
  98:Serial.c      **** 			}
  99:Serial.c      **** 			else
 100:Serial.c      **** 			{
 101:Serial.c      **** 				memcpy (UsbTxBuffer, "DSFR ", 5);
 248              		.loc 1 101 0
 249 01b8 4C4B     		ldr	r3, .L69+8
 250 01ba 564A     		ldr	r2, .L69+48
 251 01bc 1068     		ldr	r0, [r2]	@ unaligned
 252 01be 1860     		str	r0, [r3]	@ unaligned
 253 01c0 1279     		ldrb	r2, [r2, #4]	@ zero_extendqisi2
 254 01c2 1A71     		strb	r2, [r3, #4]
 102:Serial.c      **** 				memcpy (&UsbTxBuffer [5], &FREQ_ERROR [3], 5);
 255              		.loc 1 102 0
 256 01c4 544A     		ldr	r2, .L69+52
 257 01c6 1168     		ldr	r1, [r2]	@ unaligned
 258 01c8 C3F80510 		str	r1, [r3, #5]	@ unaligned
 259 01cc 1279     		ldrb	r2, [r2, #4]	@ zero_extendqisi2
 260 01ce 5A72     		strb	r2, [r3, #9]
 261              	.L33:
 103:Serial.c      **** 			}
 104:Serial.c      **** 			UsbTxBuffer [10] = UsbTxBuffer [11] = 0x80;
 262              		.loc 1 104 0
 263 01d0 464B     		ldr	r3, .L69+8
 264 01d2 8022     		movs	r2, #128
 265 01d4 DA72     		strb	r2, [r3, #11]
 266 01d6 9A72     		strb	r2, [r3, #10]
 105:Serial.c      **** 			UsbTxBuffer [12] = ';';
 267              		.loc 1 105 0
 268 01d8 3B22     		movs	r2, #59
 269 01da 1A73     		strb	r2, [r3, #12]
  89:Serial.c      **** 			DisplayIndex++;
 270              		.loc 1 89 0
 271 01dc 0D23     		movs	r3, #13
 106:Serial.c      **** 			break;
 272              		.loc 1 106 0
 273 01de FAE1     		b	.L2
 274              	.LVL10:
 275              	.L5:
 107:Serial.c      **** 		
 108:Serial.c      **** 		case CMD_FA:					// set/get frequency
 109:Serial.c      **** 			if (GET_CMD)
 276              		.loc 1 109 0
 277 01e0 404B     		ldr	r3, .L69
 278 01e2 9B78     		ldrb	r3, [r3, #2]	@ zero_extendqisi2
 279 01e4 3B2B     		cmp	r3, #59
 280 01e6 0FD1     		bne	.L35
 281              	.LVL11:
 110:Serial.c      **** 			{
 111:Serial.c      **** 				sendUsb = 14;
 112:Serial.c      **** 				memcpy (UsbTxBuffer, "FA00000000000;", sendUsb);
 282              		.loc 1 112 0
 283 01e8 404C     		ldr	r4, .L69+8
ARM GAS  C:\Users\koseki\AppData\Local\Temp\ccPFU33k.s 			page 8


 284 01ea 4C4B     		ldr	r3, .L69+56
 285 01ec 07CB     		ldmia	r3!, {r0, r1, r2}
 286 01ee 2060     		str	r0, [r4]	@ unaligned
 287 01f0 6160     		str	r1, [r4, #4]	@ unaligned
 288 01f2 1B88     		ldrh	r3, [r3]	@ unaligned
 289 01f4 A381     		strh	r3, [r4, #12]	@ unaligned
 113:Serial.c      **** 				memcpy (&UsbTxBuffer [5], Freq, 8);
 290              		.loc 1 113 0
 291 01f6 4A4B     		ldr	r3, .L69+60
 292 01f8 1A68     		ldr	r2, [r3]	@ unaligned
 293 01fa 5B68     		ldr	r3, [r3, #4]	@ unaligned
 294 01fc C4F80520 		str	r2, [r4, #5]	@ unaligned
 295 0200 C4F80930 		str	r3, [r4, #9]	@ unaligned
 111:Serial.c      **** 				memcpy (UsbTxBuffer, "FA00000000000;", sendUsb);
 296              		.loc 1 111 0
 297 0204 0E23     		movs	r3, #14
 298 0206 E6E1     		b	.L2
 299              	.LVL12:
 300              	.L35:
 114:Serial.c      **** 			}
 115:Serial.c      **** 			else
 116:Serial.c      **** 			{
 117:Serial.c      **** 				memcpy (Freq, &ComRxCmd [5], 8);
 301              		.loc 1 117 0
 302 0208 454A     		ldr	r2, .L69+60
 303 020a 364B     		ldr	r3, .L69
 304 020c 53F8051F 		ldr	r1, [r3, #5]!	@ unaligned
 305 0210 5B68     		ldr	r3, [r3, #4]	@ unaligned
 306 0212 1160     		str	r1, [r2]	@ unaligned
 307 0214 5360     		str	r3, [r2, #4]	@ unaligned
 118:Serial.c      **** 				SetFrequency ();		// set new frequency
 308              		.loc 1 118 0
 309 0216 FFF7FEFF 		bl	SetFrequency
 310              	.LVL13:
  58:Serial.c      ****     char    str[8];
 311              		.loc 1 58 0
 312 021a 0023     		movs	r3, #0
 313 021c DBE1     		b	.L2
 314              	.L14:
 119:Serial.c      **** 			}
 120:Serial.c      **** 			break;
 121:Serial.c      **** 
 122:Serial.c      **** 		case CMD_FB:					// no VFO B to set/get
 123:Serial.c      **** 			if (GET_CMD)
 315              		.loc 1 123 0
 316 021e 314B     		ldr	r3, .L69
 317 0220 9B78     		ldrb	r3, [r3, #2]	@ zero_extendqisi2
 318 0222 3B2B     		cmp	r3, #59
 319 0224 40F0C481 		bne	.L55
 320              	.LVL14:
 124:Serial.c      **** 			{
 125:Serial.c      **** 				sendUsb = 14;
 126:Serial.c      **** 				memcpy (UsbTxBuffer, "FB00000000000;", sendUsb);
 321              		.loc 1 126 0
 322 0228 304C     		ldr	r4, .L69+8
 323 022a 3E4B     		ldr	r3, .L69+64
 324 022c 07CB     		ldmia	r3!, {r0, r1, r2}
ARM GAS  C:\Users\koseki\AppData\Local\Temp\ccPFU33k.s 			page 9


 325 022e 2060     		str	r0, [r4]	@ unaligned
 326 0230 6160     		str	r1, [r4, #4]	@ unaligned
 327 0232 A260     		str	r2, [r4, #8]	@ unaligned
 328 0234 1B88     		ldrh	r3, [r3]	@ unaligned
 329 0236 A381     		strh	r3, [r4, #12]	@ unaligned
 125:Serial.c      **** 				memcpy (UsbTxBuffer, "FB00000000000;", sendUsb);
 330              		.loc 1 125 0
 331 0238 0E23     		movs	r3, #14
 332 023a CCE1     		b	.L2
 333              	.LVL15:
 334              	.L15:
 127:Serial.c      **** 			}
 128:Serial.c      **** 			break;
 129:Serial.c      **** 
 130:Serial.c      **** 		case CMD_FR:					// no receive split mode, always 0
 131:Serial.c      **** 			if (GET_CMD)
 335              		.loc 1 131 0
 336 023c 294B     		ldr	r3, .L69
 337 023e 9B78     		ldrb	r3, [r3, #2]	@ zero_extendqisi2
 338 0240 3B2B     		cmp	r3, #59
 339 0242 40F0B781 		bne	.L56
 340              	.LVL16:
 132:Serial.c      **** 			{
 133:Serial.c      **** 				sendUsb = 4;
 134:Serial.c      **** 				memcpy (UsbTxBuffer, "FR0;", sendUsb);
 341              		.loc 1 134 0
 342 0246 384B     		ldr	r3, .L69+68
 343 0248 1868     		ldr	r0, [r3]	@ unaligned
 344 024a 284B     		ldr	r3, .L69+8
 345 024c 1860     		str	r0, [r3]	@ unaligned
 133:Serial.c      **** 				memcpy (UsbTxBuffer, "FR0;", sendUsb);
 346              		.loc 1 133 0
 347 024e 0423     		movs	r3, #4
 348 0250 C1E1     		b	.L2
 349              	.LVL17:
 350              	.L12:
 135:Serial.c      **** 			}
 136:Serial.c      **** 			break;
 137:Serial.c      **** 
 138:Serial.c      **** 		case CMD_FT:					// no transmit split mode, always 0
 139:Serial.c      **** 			if (GET_CMD)
 351              		.loc 1 139 0
 352 0252 244B     		ldr	r3, .L69
 353 0254 9B78     		ldrb	r3, [r3, #2]	@ zero_extendqisi2
 354 0256 3B2B     		cmp	r3, #59
 355 0258 40F0AE81 		bne	.L57
 356              	.LVL18:
 140:Serial.c      **** 			{
 141:Serial.c      **** 				sendUsb = 4;
 142:Serial.c      **** 				memcpy (UsbTxBuffer, "FT0;", sendUsb);
 357              		.loc 1 142 0
 358 025c 334B     		ldr	r3, .L69+72
 359 025e 1868     		ldr	r0, [r3]	@ unaligned
 360 0260 224B     		ldr	r3, .L69+8
 361 0262 1860     		str	r0, [r3]	@ unaligned
 141:Serial.c      **** 				memcpy (UsbTxBuffer, "FT0;", sendUsb);
 362              		.loc 1 141 0
ARM GAS  C:\Users\koseki\AppData\Local\Temp\ccPFU33k.s 			page 10


 363 0264 0423     		movs	r3, #4
 364 0266 B6E1     		b	.L2
 365              	.LVL19:
 366              	.L16:
 143:Serial.c      **** 			}
 144:Serial.c      **** 			break;
 145:Serial.c      **** 
 146:Serial.c      **** 		case CMD_FW:					// filter bandwidth
 147:Serial.c      **** 			if (GET_CMD)
 367              		.loc 1 147 0
 368 0268 1E4B     		ldr	r3, .L69
 369 026a 9B78     		ldrb	r3, [r3, #2]	@ zero_extendqisi2
 370 026c 3B2B     		cmp	r3, #59
 371 026e 6BD1     		bne	.L36
 372              	.LVL20:
 148:Serial.c      **** 			{
 149:Serial.c      **** 				sendUsb = 9;
 150:Serial.c      **** 				if (Filter == FILTER_FL1)
 373              		.loc 1 150 0
 374 0270 2F4B     		ldr	r3, .L69+76
 375 0272 1B78     		ldrb	r3, [r3]	@ zero_extendqisi2
 376 0274 43B9     		cbnz	r3, .L37
 151:Serial.c      **** 					memcpy (UsbTxBuffer, "FW250010;", sendUsb);
 377              		.loc 1 151 0
 378 0276 1D4A     		ldr	r2, .L69+8
 379 0278 2E4B     		ldr	r3, .L69+80
 380 027a 03CB     		ldmia	r3!, {r0, r1}
 381 027c 1060     		str	r0, [r2]	@ unaligned
 382 027e 5160     		str	r1, [r2, #4]	@ unaligned
 383 0280 1B78     		ldrb	r3, [r3]	@ zero_extendqisi2
 384 0282 1372     		strb	r3, [r2, #8]
 149:Serial.c      **** 				if (Filter == FILTER_FL1)
 385              		.loc 1 149 0
 386 0284 0923     		movs	r3, #9
 387 0286 A6E1     		b	.L2
 388              	.L37:
 152:Serial.c      **** 				else if (Filter == FILTER_FL2)
 389              		.loc 1 152 0
 390 0288 012B     		cmp	r3, #1
 391 028a 08D1     		bne	.L38
 153:Serial.c      **** 					memcpy (UsbTxBuffer, "FW200020;", sendUsb);
 392              		.loc 1 153 0
 393 028c 174A     		ldr	r2, .L69+8
 394 028e 2A4B     		ldr	r3, .L69+84
 395 0290 03CB     		ldmia	r3!, {r0, r1}
 396 0292 1060     		str	r0, [r2]	@ unaligned
 397 0294 5160     		str	r1, [r2, #4]	@ unaligned
 398 0296 1B78     		ldrb	r3, [r3]	@ zero_extendqisi2
 399 0298 1372     		strb	r3, [r2, #8]
 149:Serial.c      **** 				if (Filter == FILTER_FL1)
 400              		.loc 1 149 0
 401 029a 0923     		movs	r3, #9
 402 029c 9BE1     		b	.L2
 403              	.L38:
 154:Serial.c      **** 				else if (Filter == FILTER_FL3)
 404              		.loc 1 154 0
 405 029e 022B     		cmp	r3, #2
ARM GAS  C:\Users\koseki\AppData\Local\Temp\ccPFU33k.s 			page 11


 406 02a0 08D1     		bne	.L39
 155:Serial.c      **** 					memcpy (UsbTxBuffer, "FW150030;", sendUsb);
 407              		.loc 1 155 0
 408 02a2 124A     		ldr	r2, .L69+8
 409 02a4 254B     		ldr	r3, .L69+88
 410 02a6 03CB     		ldmia	r3!, {r0, r1}
 411 02a8 1060     		str	r0, [r2]	@ unaligned
 412 02aa 5160     		str	r1, [r2, #4]	@ unaligned
 413 02ac 1B78     		ldrb	r3, [r3]	@ zero_extendqisi2
 414 02ae 1372     		strb	r3, [r2, #8]
 149:Serial.c      **** 				if (Filter == FILTER_FL1)
 415              		.loc 1 149 0
 416 02b0 0923     		movs	r3, #9
 417 02b2 90E1     		b	.L2
 418              	.L39:
 156:Serial.c      **** 				else if (Filter == FILTER_FL4)
 419              		.loc 1 156 0
 420 02b4 032B     		cmp	r3, #3
 421 02b6 08D1     		bne	.L40
 157:Serial.c      **** 					memcpy (UsbTxBuffer, "FW100040;", sendUsb);
 422              		.loc 1 157 0
 423 02b8 0C4A     		ldr	r2, .L69+8
 424 02ba 214B     		ldr	r3, .L69+92
 425 02bc 03CB     		ldmia	r3!, {r0, r1}
 426 02be 1060     		str	r0, [r2]	@ unaligned
 427 02c0 5160     		str	r1, [r2, #4]	@ unaligned
 428 02c2 1B78     		ldrb	r3, [r3]	@ zero_extendqisi2
 429 02c4 1372     		strb	r3, [r2, #8]
 149:Serial.c      **** 				if (Filter == FILTER_FL1)
 430              		.loc 1 149 0
 431 02c6 0923     		movs	r3, #9
 432 02c8 85E1     		b	.L2
 433              	.L40:
 158:Serial.c      **** 				else if (Filter == FILTER_AM)
 434              		.loc 1 158 0
 435 02ca 042B     		cmp	r3, #4
 436 02cc 40F07681 		bne	.L58
 159:Serial.c      **** 					memcpy (UsbTxBuffer, "FW400050;", sendUsb);     // 4kHz LPF (2017.6.1)koseki
 437              		.loc 1 159 0
 438 02d0 064A     		ldr	r2, .L69+8
 439 02d2 1C4B     		ldr	r3, .L69+96
 440 02d4 03CB     		ldmia	r3!, {r0, r1}
 441 02d6 1060     		str	r0, [r2]	@ unaligned
 442 02d8 5160     		str	r1, [r2, #4]	@ unaligned
 443 02da 1B78     		ldrb	r3, [r3]	@ zero_extendqisi2
 444 02dc 1372     		strb	r3, [r2, #8]
 149:Serial.c      **** 				if (Filter == FILTER_FL1)
 445              		.loc 1 149 0
 446 02de 0923     		movs	r3, #9
 447 02e0 79E1     		b	.L2
 448              	.L70:
 449 02e2 00BF     		.align	2
 450              	.L69:
 451 02e4 00000000 		.word	ComRxCmd
 452 02e8 00000000 		.word	.LC0
 453 02ec 00000000 		.word	UsbTxBuffer
 454 02f0 08000000 		.word	.LC1
ARM GAS  C:\Users\koseki\AppData\Local\Temp\ccPFU33k.s 			page 12


 455 02f4 00000000 		.word	AgcGain
 456 02f8 ABAAAAAA 		.word	-1431655765
 457 02fc 10000000 		.word	.LC2
 458 0300 CDCCCCCC 		.word	-858993459
 459 0304 00000000 		.word	DisplayIndex
 460 0308 18000000 		.word	.LC3
 461 030c 24000000 		.word	.LC4
 462 0310 03000000 		.word	SERIAL_NUM+3
 463 0314 2C000000 		.word	.LC5
 464 0318 03000000 		.word	FREQ_ERROR+3
 465 031c 34000000 		.word	.LC6
 466 0320 00000000 		.word	Freq
 467 0324 44000000 		.word	.LC7
 468 0328 54000000 		.word	.LC8
 469 032c 5C000000 		.word	.LC9
 470 0330 00000000 		.word	Filter
 471 0334 64000000 		.word	.LC10
 472 0338 70000000 		.word	.LC11
 473 033c 7C000000 		.word	.LC12
 474 0340 88000000 		.word	.LC13
 475 0344 94000000 		.word	.LC14
 476              	.LVL21:
 477              	.L36:
 160:Serial.c      **** 			}
 161:Serial.c      **** 			else
 162:Serial.c      **** 			{
 163:Serial.c      **** 				Filter = ComRxCmd [6] - '1';
 478              		.loc 1 163 0
 479 0348 AA4B     		ldr	r3, .L71
 480 034a 9B79     		ldrb	r3, [r3, #6]	@ zero_extendqisi2
 481 034c 313B     		subs	r3, r3, #49
 482 034e DBB2     		uxtb	r3, r3
 483 0350 A94A     		ldr	r2, .L71+4
 484 0352 1370     		strb	r3, [r2]
 164:Serial.c      **** 				if (Filter > FILTER_RST)
 485              		.loc 1 164 0
 486 0354 052B     		cmp	r3, #5
 487 0356 02D9     		bls	.L41
 165:Serial.c      **** 					Filter = FILTER_FL1;
 488              		.loc 1 165 0
 489 0358 0022     		movs	r2, #0
 490 035a A74B     		ldr	r3, .L71+4
 491 035c 1A70     		strb	r2, [r3]
 492              	.L41:
 166:Serial.c      **** 				LoadFilter (Filter);
 493              		.loc 1 166 0
 494 035e A64B     		ldr	r3, .L71+4
 495 0360 1878     		ldrb	r0, [r3]	@ zero_extendqisi2
 496 0362 FFF7FEFF 		bl	LoadFilter
 497              	.LVL22:
  58:Serial.c      ****     char    str[8];
 498              		.loc 1 58 0
 499 0366 0023     		movs	r3, #0
 500 0368 35E1     		b	.L2
 501              	.L17:
 167:Serial.c      **** 			}
 168:Serial.c      **** 			break;
ARM GAS  C:\Users\koseki\AppData\Local\Temp\ccPFU33k.s 			page 13


 169:Serial.c      **** 
 170:Serial.c      **** 		case CMD_GT:					// AGC time constant, slow, on/off
 171:Serial.c      **** 			if (GET_CMD)
 502              		.loc 1 171 0
 503 036a A24B     		ldr	r3, .L71
 504 036c 9B78     		ldrb	r3, [r3, #2]	@ zero_extendqisi2
 505 036e 3B2B     		cmp	r3, #59
 506 0370 18D1     		bne	.L42
 507              	.LVL23:
 172:Serial.c      **** 			{
 173:Serial.c      **** 				sendUsb = 7;
 174:Serial.c      **** 				//memcpy (UsbTxBuffer, "GT0040;", sendUsb);
 175:Serial.c      ****                 sprintf(str, "GT%03d0;", AgcTimeConstant);
 508              		.loc 1 175 0
 509 0372 6846     		mov	r0, sp
 510 0374 A149     		ldr	r1, .L71+8
 511 0376 A24B     		ldr	r3, .L71+12
 512 0378 1A78     		ldrb	r2, [r3]	@ zero_extendqisi2
 513 037a FFF7FEFF 		bl	sprintf
 514              	.LVL24:
 176:Serial.c      **** 				memcpy (UsbTxBuffer, str, sendUsb);
 515              		.loc 1 176 0
 516 037e A14B     		ldr	r3, .L71+16
 517 0380 0098     		ldr	r0, [sp]	@ unaligned
 518 0382 1860     		str	r0, [r3]	@ unaligned
 519 0384 BDF80410 		ldrh	r1, [sp, #4]	@ unaligned
 520 0388 9DF80620 		ldrb	r2, [sp, #6]	@ zero_extendqisi2
 521 038c 9980     		strh	r1, [r3, #4]	@ unaligned
 522 038e 9A71     		strb	r2, [r3, #6]
 177:Serial.c      **** 				UsbTxBuffer [5] = (AgcDisable) ? '0' : '1';
 523              		.loc 1 177 0
 524 0390 9D4B     		ldr	r3, .L71+20
 525 0392 1B78     		ldrb	r3, [r3]	@ zero_extendqisi2
 526 0394 0BB1     		cbz	r3, .L59
 527 0396 3023     		movs	r3, #48
 528 0398 00E0     		b	.L43
 529              	.L59:
 530 039a 3123     		movs	r3, #49
 531              	.L43:
 532              		.loc 1 177 0 is_stmt 0 discriminator 4
 533 039c 994A     		ldr	r2, .L71+16
 534 039e 5371     		strb	r3, [r2, #5]
 173:Serial.c      **** 				//memcpy (UsbTxBuffer, "GT0040;", sendUsb);
 535              		.loc 1 173 0 is_stmt 1 discriminator 4
 536 03a0 0723     		movs	r3, #7
 537 03a2 18E1     		b	.L2
 538              	.LVL25:
 539              	.L42:
 178:Serial.c      **** 			}
 179:Serial.c      **** 			else
 180:Serial.c      ****             {
 181:Serial.c      ****                 AgcTimeConstant = ComRxCmd [4] - '0';
 540              		.loc 1 181 0
 541 03a4 934A     		ldr	r2, .L71
 542 03a6 1379     		ldrb	r3, [r2, #4]	@ zero_extendqisi2
 543 03a8 303B     		subs	r3, r3, #48
 544 03aa 9549     		ldr	r1, .L71+12
ARM GAS  C:\Users\koseki\AppData\Local\Temp\ccPFU33k.s 			page 14


 545 03ac 0B70     		strb	r3, [r1]
 182:Serial.c      ****                 AgcDisable = (ComRxCmd [5] == '0');
 546              		.loc 1 182 0
 547 03ae 5379     		ldrb	r3, [r2, #5]	@ zero_extendqisi2
 548 03b0 302B     		cmp	r3, #48
 549 03b2 14BF     		ite	ne
 550 03b4 0023     		movne	r3, #0
 551 03b6 0123     		moveq	r3, #1
 552 03b8 934A     		ldr	r2, .L71+20
 553 03ba 1370     		strb	r3, [r2]
  58:Serial.c      ****     char    str[8];
 554              		.loc 1 58 0
 555 03bc 0023     		movs	r3, #0
 556 03be 0AE1     		b	.L2
 557              	.L3:
 558              	.LVL26:
 183:Serial.c      **** 			}
 184:Serial.c      ****             break;
 185:Serial.c      **** 
 186:Serial.c      **** 		case CMD_ID:					// K2 ID number
 187:Serial.c      **** 			sendUsb = 6;
 188:Serial.c      **** 			memcpy (UsbTxBuffer, "ID017;", sendUsb);
 559              		.loc 1 188 0
 560 03c0 904B     		ldr	r3, .L71+16
 561 03c2 924A     		ldr	r2, .L71+24
 562 03c4 1068     		ldr	r0, [r2]	@ unaligned
 563 03c6 1860     		str	r0, [r3]	@ unaligned
 564 03c8 9288     		ldrh	r2, [r2, #4]	@ unaligned
 565 03ca 9A80     		strh	r2, [r3, #4]	@ unaligned
 187:Serial.c      **** 			memcpy (UsbTxBuffer, "ID017;", sendUsb);
 566              		.loc 1 187 0
 567 03cc 0623     		movs	r3, #6
 189:Serial.c      **** 			break;
 568              		.loc 1 189 0
 569 03ce 02E1     		b	.L2
 570              	.LVL27:
 571              	.L22:
 190:Serial.c      **** 
 191:Serial.c      **** 		case CMD_IF:					// radio info
 192:Serial.c      **** 			sendUsb = 35;
 193:Serial.c      **** 			memcpy (UsbTxBuffer, "IF00000000000     +00000001000001 ;", sendUsb);
 572              		.loc 1 193 0
 573 03d0 8F4E     		ldr	r6, .L71+28
 574 03d2 8C4C     		ldr	r4, .L71+16
 575 03d4 06F12007 		add	r7, r6, #32
 576              	.L44:
 577 03d8 3546     		mov	r5, r6
 578 03da 0FCD     		ldmia	r5!, {r0, r1, r2, r3}
 579 03dc 2060     		str	r0, [r4]	@ unaligned
 580 03de 6160     		str	r1, [r4, #4]	@ unaligned
 581 03e0 A260     		str	r2, [r4, #8]	@ unaligned
 582 03e2 E360     		str	r3, [r4, #12]	@ unaligned
 583 03e4 2E46     		mov	r6, r5
 584 03e6 1034     		adds	r4, r4, #16
 585 03e8 BD42     		cmp	r5, r7
 586 03ea F5D1     		bne	.L44
 587 03ec 2A88     		ldrh	r2, [r5]	@ unaligned
ARM GAS  C:\Users\koseki\AppData\Local\Temp\ccPFU33k.s 			page 15


 588 03ee AB78     		ldrb	r3, [r5, #2]	@ zero_extendqisi2
 589 03f0 2280     		strh	r2, [r4]	@ unaligned
 590 03f2 A370     		strb	r3, [r4, #2]
 194:Serial.c      **** 			memcpy (&UsbTxBuffer [5], Freq, 8);
 591              		.loc 1 194 0
 592 03f4 834B     		ldr	r3, .L71+16
 593 03f6 874A     		ldr	r2, .L71+32
 594 03f8 1168     		ldr	r1, [r2]	@ unaligned
 595 03fa 5268     		ldr	r2, [r2, #4]	@ unaligned
 596 03fc C3F80510 		str	r1, [r3, #5]	@ unaligned
 597 0400 C3F80920 		str	r2, [r3, #9]	@ unaligned
 192:Serial.c      **** 			memcpy (UsbTxBuffer, "IF00000000000     +00000001000001 ;", sendUsb);
 598              		.loc 1 192 0
 599 0404 2323     		movs	r3, #35
 195:Serial.c      **** 			break;
 600              		.loc 1 195 0
 601 0406 E6E0     		b	.L2
 602              	.LVL28:
 603              	.L23:
 196:Serial.c      **** 
 197:Serial.c      **** 		case CMD_K2:					// meta-command
 198:Serial.c      **** 			if (GET_CMD)
 604              		.loc 1 198 0
 605 0408 7A4B     		ldr	r3, .L71
 606 040a 9B78     		ldrb	r3, [r3, #2]	@ zero_extendqisi2
 607 040c 3B2B     		cmp	r3, #59
 608 040e 40F0D780 		bne	.L60
 609              	.LVL29:
 199:Serial.c      **** 			{
 200:Serial.c      **** 				sendUsb = 4;
 201:Serial.c      **** 				memcpy (UsbTxBuffer, "K22;", sendUsb);
 610              		.loc 1 201 0
 611 0412 814B     		ldr	r3, .L71+36
 612 0414 1868     		ldr	r0, [r3]	@ unaligned
 613 0416 7B4B     		ldr	r3, .L71+16
 614 0418 1860     		str	r0, [r3]	@ unaligned
 200:Serial.c      **** 				memcpy (UsbTxBuffer, "K22;", sendUsb);
 615              		.loc 1 200 0
 616 041a 0423     		movs	r3, #4
 617 041c DBE0     		b	.L2
 618              	.LVL30:
 619              	.L20:
 202:Serial.c      **** 			}
 203:Serial.c      **** 			break;
 204:Serial.c      **** 
 205:Serial.c      **** 		case CMD_KS:					// keyer speed, not used
 206:Serial.c      **** 			if (GET_CMD)
 620              		.loc 1 206 0
 621 041e 754B     		ldr	r3, .L71
 622 0420 9B78     		ldrb	r3, [r3, #2]	@ zero_extendqisi2
 623 0422 3B2B     		cmp	r3, #59
 624 0424 40F0CE80 		bne	.L61
 625              	.LVL31:
 207:Serial.c      **** 			{
 208:Serial.c      **** 				sendUsb = 6;
 209:Serial.c      **** 				memcpy (UsbTxBuffer, "KS009;", sendUsb);
 626              		.loc 1 209 0
ARM GAS  C:\Users\koseki\AppData\Local\Temp\ccPFU33k.s 			page 16


 627 0428 764B     		ldr	r3, .L71+16
 628 042a 7C4A     		ldr	r2, .L71+40
 629 042c 1068     		ldr	r0, [r2]	@ unaligned
 630 042e 1860     		str	r0, [r3]	@ unaligned
 631 0430 9288     		ldrh	r2, [r2, #4]	@ unaligned
 632 0432 9A80     		strh	r2, [r3, #4]	@ unaligned
 208:Serial.c      **** 				memcpy (UsbTxBuffer, "KS009;", sendUsb);
 633              		.loc 1 208 0
 634 0434 0623     		movs	r3, #6
 635 0436 CEE0     		b	.L2
 636              	.LVL32:
 637              	.L24:
 210:Serial.c      **** 			}
 211:Serial.c      **** 			break;
 212:Serial.c      **** 
 213:Serial.c      **** 		case CMD_LK:					// VFO lock, always unlocked
 214:Serial.c      **** 			if (GET_CMD)
 638              		.loc 1 214 0
 639 0438 6E4B     		ldr	r3, .L71
 640 043a 9B78     		ldrb	r3, [r3, #2]	@ zero_extendqisi2
 641 043c 3B2B     		cmp	r3, #59
 642 043e 40F0C380 		bne	.L62
 643              	.LVL33:
 215:Serial.c      **** 			{
 216:Serial.c      **** 				sendUsb = 4;
 217:Serial.c      **** 				memcpy (UsbTxBuffer, "LK0;", sendUsb);
 644              		.loc 1 217 0
 645 0442 774B     		ldr	r3, .L71+44
 646 0444 1868     		ldr	r0, [r3]	@ unaligned
 647 0446 6F4B     		ldr	r3, .L71+16
 648 0448 1860     		str	r0, [r3]	@ unaligned
 216:Serial.c      **** 				memcpy (UsbTxBuffer, "LK0;", sendUsb);
 649              		.loc 1 216 0
 650 044a 0423     		movs	r3, #4
 651 044c C3E0     		b	.L2
 652              	.LVL34:
 653              	.L25:
 218:Serial.c      **** 			}
 219:Serial.c      **** 			break;
 220:Serial.c      **** 
 221:Serial.c      **** 		case CMD_MD:					// operating mode
 222:Serial.c      **** 			if (GET_CMD)
 654              		.loc 1 222 0
 655 044e 694B     		ldr	r3, .L71
 656 0450 9B78     		ldrb	r3, [r3, #2]	@ zero_extendqisi2
 657 0452 3B2B     		cmp	r3, #59
 658 0454 09D1     		bne	.L45
 659              	.LVL35:
 223:Serial.c      **** 			{
 224:Serial.c      **** 				sendUsb = 4;
 225:Serial.c      **** 				memcpy (UsbTxBuffer, "MD1;", sendUsb);
 660              		.loc 1 225 0
 661 0456 6B4A     		ldr	r2, .L71+16
 662 0458 724B     		ldr	r3, .L71+48
 663 045a 1868     		ldr	r0, [r3]	@ unaligned
 664 045c 1060     		str	r0, [r2]	@ unaligned
 226:Serial.c      **** 				UsbTxBuffer [2] = Mode + '1';	// Mode = 0 - 9
ARM GAS  C:\Users\koseki\AppData\Local\Temp\ccPFU33k.s 			page 17


 665              		.loc 1 226 0
 666 045e 724B     		ldr	r3, .L71+52
 667 0460 1B78     		ldrb	r3, [r3]	@ zero_extendqisi2
 668 0462 3133     		adds	r3, r3, #49
 669 0464 9370     		strb	r3, [r2, #2]
 224:Serial.c      **** 				memcpy (UsbTxBuffer, "MD1;", sendUsb);
 670              		.loc 1 224 0
 671 0466 0423     		movs	r3, #4
 672 0468 B5E0     		b	.L2
 673              	.LVL36:
 674              	.L45:
 227:Serial.c      **** 			}
 228:Serial.c      **** 			else
 229:Serial.c      ****             {
 230:Serial.c      **** 				SetMode (ComRxCmd [2] - '1');	// map Mode to 0 - 9
 675              		.loc 1 230 0
 676 046a A3F13100 		sub	r0, r3, #49
 677 046e C0B2     		uxtb	r0, r0
 678 0470 FFF7FEFF 		bl	SetMode
 679              	.LVL37:
 231:Serial.c      ****                 LoadFilter (Filter);
 680              		.loc 1 231 0
 681 0474 604B     		ldr	r3, .L71+4
 682 0476 1878     		ldrb	r0, [r3]	@ zero_extendqisi2
 683 0478 FFF7FEFF 		bl	LoadFilter
 684              	.LVL38:
  58:Serial.c      ****     char    str[8];
 685              		.loc 1 58 0
 686 047c 0023     		movs	r3, #0
 687 047e AAE0     		b	.L2
 688              	.L18:
 232:Serial.c      ****             }   
 233:Serial.c      **** 			break;
 234:Serial.c      **** 
 235:Serial.c      **** 		case CMD_NB:					// noise blanker mode, extended
 236:Serial.c      **** 			if (GET_CMD)
 689              		.loc 1 236 0
 690 0480 5C4B     		ldr	r3, .L71
 691 0482 9B78     		ldrb	r3, [r3, #2]	@ zero_extendqisi2
 692 0484 3B2B     		cmp	r3, #59
 693 0486 40F0A180 		bne	.L63
 694              	.LVL39:
 237:Serial.c      **** 			{
 238:Serial.c      **** 				sendUsb = 5;
 239:Serial.c      **** 				memcpy (UsbTxBuffer, "NB01;", sendUsb);
 695              		.loc 1 239 0
 696 048a 5E4B     		ldr	r3, .L71+16
 697 048c 674A     		ldr	r2, .L71+56
 698 048e 1068     		ldr	r0, [r2]	@ unaligned
 699 0490 1860     		str	r0, [r3]	@ unaligned
 700 0492 1279     		ldrb	r2, [r2, #4]	@ zero_extendqisi2
 701 0494 1A71     		strb	r2, [r3, #4]
 238:Serial.c      **** 				memcpy (UsbTxBuffer, "NB01;", sendUsb);
 702              		.loc 1 238 0
 703 0496 0523     		movs	r3, #5
 704 0498 9DE0     		b	.L2
 705              	.LVL40:
ARM GAS  C:\Users\koseki\AppData\Local\Temp\ccPFU33k.s 			page 18


 706              	.L28:
 240:Serial.c      **** 			}
 241:Serial.c      **** #if PSoC3            
 242:Serial.c      **** 			else if (!memcmp (Freq, "10101010", 8))	// special frequency test
 243:Serial.c      **** 				CyBtldr_Load();			// enter USB boot loader mode
 244:Serial.c      **** 			else
 245:Serial.c      **** 			{
 246:Serial.c      **** 				Clock_FracN_SetDividerValue (10);	// unlock and reloack PLL
 247:Serial.c      **** 				CyDelay (100);						// delay in msec
 248:Serial.c      **** 				Clock_FracN_SetDividerValue (9);
 249:Serial.c      **** 			}
 250:Serial.c      **** #endif
 251:Serial.c      ****             break;
 252:Serial.c      **** 
 253:Serial.c      **** 		case CMD_PA:					// rx preamp, always off
 254:Serial.c      **** 			if (GET_CMD)
 707              		.loc 1 254 0
 708 049a 564B     		ldr	r3, .L71
 709 049c 9B78     		ldrb	r3, [r3, #2]	@ zero_extendqisi2
 710 049e 3B2B     		cmp	r3, #59
 711 04a0 40F09680 		bne	.L64
 712              	.LVL41:
 255:Serial.c      **** 			{
 256:Serial.c      **** 				sendUsb = 4;
 257:Serial.c      **** 				memcpy (UsbTxBuffer, "PA0;", sendUsb);
 713              		.loc 1 257 0
 714 04a4 624B     		ldr	r3, .L71+60
 715 04a6 1868     		ldr	r0, [r3]	@ unaligned
 716 04a8 564B     		ldr	r3, .L71+16
 717 04aa 1860     		str	r0, [r3]	@ unaligned
 256:Serial.c      **** 				memcpy (UsbTxBuffer, "PA0;", sendUsb);
 718              		.loc 1 256 0
 719 04ac 0423     		movs	r3, #4
 720 04ae 92E0     		b	.L2
 721              	.LVL42:
 722              	.L29:
 258:Serial.c      **** 			}
 259:Serial.c      **** 			break;
 260:Serial.c      **** 
 261:Serial.c      **** 		case CMD_PC:					// power output level
 262:Serial.c      **** 			if (GET_CMD)
 723              		.loc 1 262 0
 724 04b0 504B     		ldr	r3, .L71
 725 04b2 9B78     		ldrb	r3, [r3, #2]	@ zero_extendqisi2
 726 04b4 3B2B     		cmp	r3, #59
 727 04b6 40F08D80 		bne	.L65
 728              	.LVL43:
 263:Serial.c      **** 			{
 264:Serial.c      **** 				sendUsb = 7;
 265:Serial.c      **** 				memcpy (UsbTxBuffer, "PC0000;", sendUsb);
 729              		.loc 1 265 0
 730 04ba 524B     		ldr	r3, .L71+16
 731 04bc 5D4A     		ldr	r2, .L71+64
 732 04be 1068     		ldr	r0, [r2]	@ unaligned
 733 04c0 1860     		str	r0, [r3]	@ unaligned
 734 04c2 9188     		ldrh	r1, [r2, #4]	@ unaligned
 735 04c4 9279     		ldrb	r2, [r2, #6]	@ zero_extendqisi2
ARM GAS  C:\Users\koseki\AppData\Local\Temp\ccPFU33k.s 			page 19


 736 04c6 9980     		strh	r1, [r3, #4]	@ unaligned
 737 04c8 9A71     		strb	r2, [r3, #6]
 264:Serial.c      **** 				memcpy (UsbTxBuffer, "PC0000;", sendUsb);
 738              		.loc 1 264 0
 739 04ca 0723     		movs	r3, #7
 740 04cc 83E0     		b	.L2
 741              	.LVL44:
 742              	.L26:
 266:Serial.c      **** 			}
 267:Serial.c      **** 			break;
 268:Serial.c      **** 
 269:Serial.c      **** 		case CMD_PS:					// radio power status, always on
 270:Serial.c      **** 			sendUsb = 4;
 271:Serial.c      **** 			memcpy (UsbTxBuffer, "PS1;", sendUsb);
 743              		.loc 1 271 0
 744 04ce 5A4B     		ldr	r3, .L71+68
 745 04d0 1868     		ldr	r0, [r3]	@ unaligned
 746 04d2 4C4B     		ldr	r3, .L71+16
 747 04d4 1860     		str	r0, [r3]	@ unaligned
 270:Serial.c      **** 			memcpy (UsbTxBuffer, "PS1;", sendUsb);
 748              		.loc 1 270 0
 749 04d6 0423     		movs	r3, #4
 272:Serial.c      **** 			break;
 750              		.loc 1 272 0
 751 04d8 7DE0     		b	.L2
 752              	.LVL45:
 753              	.L30:
 273:Serial.c      **** 
 274:Serial.c      **** 		case CMD_RA:					// rx attenuator, 0 = off, 1 = on
 275:Serial.c      **** 			if (GET_CMD)
 754              		.loc 1 275 0
 755 04da 464B     		ldr	r3, .L71
 756 04dc 9B78     		ldrb	r3, [r3, #2]	@ zero_extendqisi2
 757 04de 3B2B     		cmp	r3, #59
 758 04e0 0FD1     		bne	.L46
 759              	.LVL46:
 276:Serial.c      **** 			{
 277:Serial.c      **** 				sendUsb = 5;
 278:Serial.c      **** 				memcpy (UsbTxBuffer, "RA00;", sendUsb);
 760              		.loc 1 278 0
 761 04e2 484B     		ldr	r3, .L71+16
 762 04e4 554A     		ldr	r2, .L71+72
 763 04e6 1068     		ldr	r0, [r2]	@ unaligned
 764 04e8 1860     		str	r0, [r3]	@ unaligned
 765 04ea 1279     		ldrb	r2, [r2, #4]	@ zero_extendqisi2
 766 04ec 1A71     		strb	r2, [r3, #4]
 279:Serial.c      **** 				UsbTxBuffer [3] = (AttenuatorOn) ? '1' : '0';
 767              		.loc 1 279 0
 768 04ee 544B     		ldr	r3, .L71+76
 769 04f0 1B78     		ldrb	r3, [r3]	@ zero_extendqisi2
 770 04f2 0BB1     		cbz	r3, .L66
 771 04f4 3123     		movs	r3, #49
 772 04f6 00E0     		b	.L47
 773              	.L66:
 774 04f8 3023     		movs	r3, #48
 775              	.L47:
 776              		.loc 1 279 0 is_stmt 0 discriminator 4
ARM GAS  C:\Users\koseki\AppData\Local\Temp\ccPFU33k.s 			page 20


 777 04fa 424A     		ldr	r2, .L71+16
 778 04fc D370     		strb	r3, [r2, #3]
 277:Serial.c      **** 				memcpy (UsbTxBuffer, "RA00;", sendUsb);
 779              		.loc 1 277 0 is_stmt 1 discriminator 4
 780 04fe 0523     		movs	r3, #5
 781 0500 69E0     		b	.L2
 782              	.LVL47:
 783              	.L46:
 280:Serial.c      **** 			}
 281:Serial.c      **** 			else
 282:Serial.c      **** 			{
 283:Serial.c      **** 				AttenuatorOn = (ComRxCmd [3] == '1');
 784              		.loc 1 283 0
 785 0502 3C4B     		ldr	r3, .L71
 786 0504 DB78     		ldrb	r3, [r3, #3]	@ zero_extendqisi2
 787 0506 312B     		cmp	r3, #49
 788 0508 14BF     		ite	ne
 789 050a 0023     		movne	r3, #0
 790 050c 0123     		moveq	r3, #1
 791 050e 4C4A     		ldr	r2, .L71+76
 792 0510 1370     		strb	r3, [r2]
 284:Serial.c      **** 				AgcGain = AgcIntegrator = 0;	// mute the input signal during ADC range changes
 793              		.loc 1 284 0
 794 0512 0022     		movs	r2, #0
 795 0514 4B49     		ldr	r1, .L71+80
 796 0516 0A70     		strb	r2, [r1]
 797 0518 4B49     		ldr	r1, .L71+84
 798 051a 0A70     		strb	r2, [r1]
 285:Serial.c      **** 				ADC_SetBufferGain ( (AttenuatorOn) ? 1 : 4 );
 799              		.loc 1 285 0
 800 051c 0BB1     		cbz	r3, .L67
 801 051e 0120     		movs	r0, #1
 802 0520 00E0     		b	.L48
 803              	.L67:
 804 0522 0420     		movs	r0, #4
 805              	.L48:
 806              		.loc 1 285 0 is_stmt 0 discriminator 4
 807 0524 FFF7FEFF 		bl	ADC_SetBufferGain
 808              	.LVL48:
  58:Serial.c      ****     char    str[8];
 809              		.loc 1 58 0 is_stmt 1 discriminator 4
 810 0528 0023     		movs	r3, #0
 811 052a 54E0     		b	.L2
 812              	.L31:
 286:Serial.c      **** 			}	
 287:Serial.c      **** 			break;
 288:Serial.c      **** 							
 289:Serial.c      **** 		case CMD_SQ:					// squelch, 0 2 250.
 290:Serial.c      **** 			if (GET_CMD)
 813              		.loc 1 290 0
 814 052c 314B     		ldr	r3, .L71
 815 052e 9B78     		ldrb	r3, [r3, #2]	@ zero_extendqisi2
 816 0530 3B2B     		cmp	r3, #59
 817 0532 21D1     		bne	.L49
 818              	.LVL49:
 291:Serial.c      **** 			{
 292:Serial.c      **** 				sendUsb = 6;
ARM GAS  C:\Users\koseki\AppData\Local\Temp\ccPFU33k.s 			page 21


 293:Serial.c      **** 				memcpy (UsbTxBuffer, "SQ000;", sendUsb);
 819              		.loc 1 293 0
 820 0534 3349     		ldr	r1, .L71+16
 821 0536 454B     		ldr	r3, .L71+88
 822 0538 1868     		ldr	r0, [r3]	@ unaligned
 823 053a 0860     		str	r0, [r1]	@ unaligned
 824 053c 9B88     		ldrh	r3, [r3, #4]	@ unaligned
 825 053e 8B80     		strh	r3, [r1, #4]	@ unaligned
 294:Serial.c      **** 				i = Squelch;
 826              		.loc 1 294 0
 827 0540 434B     		ldr	r3, .L71+92
 828 0542 1878     		ldrb	r0, [r3]	@ zero_extendqisi2
 829              	.LVL50:
 295:Serial.c      **** 				UsbTxBuffer [2] = (i / 100) + '0';	// hundreds
 830              		.loc 1 295 0
 831 0544 434A     		ldr	r2, .L71+96
 832 0546 A2FB0032 		umull	r3, r2, r2, r0
 833 054a 5309     		lsrs	r3, r2, #5
 834 054c 03F13002 		add	r2, r3, #48
 835 0550 8A70     		strb	r2, [r1, #2]
 296:Serial.c      **** 				i = i % 100;
 836              		.loc 1 296 0
 837 0552 6422     		movs	r2, #100
 838 0554 02FB1303 		mls	r3, r2, r3, r0
 839 0558 DBB2     		uxtb	r3, r3
 840              	.LVL51:
 297:Serial.c      **** 				UsbTxBuffer [3] = (i / 10) + '0';	// tens
 841              		.loc 1 297 0
 842 055a 3F4A     		ldr	r2, .L71+100
 843 055c A2FB0302 		umull	r0, r2, r2, r3
 844 0560 D208     		lsrs	r2, r2, #3
 845 0562 02F13000 		add	r0, r2, #48
 846 0566 C870     		strb	r0, [r1, #3]
 298:Serial.c      **** 				UsbTxBuffer [4] = (i % 10) + '0';	// units
 847              		.loc 1 298 0
 848 0568 02EB8202 		add	r2, r2, r2, lsl #2
 849 056c A3EB4203 		sub	r3, r3, r2, lsl #1
 850              	.LVL52:
 851 0570 3033     		adds	r3, r3, #48
 852 0572 0B71     		strb	r3, [r1, #4]
 292:Serial.c      **** 				memcpy (UsbTxBuffer, "SQ000;", sendUsb);
 853              		.loc 1 292 0
 854 0574 0623     		movs	r3, #6
 855 0576 2EE0     		b	.L2
 856              	.LVL53:
 857              	.L49:
 299:Serial.c      **** 			}
 300:Serial.c      **** 			else
 301:Serial.c      **** 			{
 302:Serial.c      **** 				Squelch = 100 * (ComRxCmd [2] - '0');
 858              		.loc 1 302 0
 859 0578 303B     		subs	r3, r3, #48
 860 057a 03EB8303 		add	r3, r3, r3, lsl #2
 861 057e 03EB8303 		add	r3, r3, r3, lsl #2
 862 0582 9A00     		lsls	r2, r3, #2
 303:Serial.c      **** 				Squelch += 10 * (ComRxCmd [3] - '0');
 863              		.loc 1 303 0
ARM GAS  C:\Users\koseki\AppData\Local\Temp\ccPFU33k.s 			page 22


 864 0584 1B49     		ldr	r1, .L71
 865 0586 CB78     		ldrb	r3, [r1, #3]	@ zero_extendqisi2
 866 0588 303B     		subs	r3, r3, #48
 867 058a 03EB8303 		add	r3, r3, r3, lsl #2
 868 058e 02EB4303 		add	r3, r2, r3, lsl #1
 869 0592 03F0FE03 		and	r3, r3, #254
 304:Serial.c      **** 				Squelch += ComRxCmd [4] - '0';
 870              		.loc 1 304 0
 871 0596 0A79     		ldrb	r2, [r1, #4]	@ zero_extendqisi2
 872 0598 1344     		add	r3, r3, r2
 873 059a 303B     		subs	r3, r3, #48
 874 059c 2C4A     		ldr	r2, .L71+92
 875 059e 1370     		strb	r3, [r2]
  58:Serial.c      ****     char    str[8];
 876              		.loc 1 58 0
 877 05a0 0023     		movs	r3, #0
 878 05a2 18E0     		b	.L2
 879              	.L52:
 880 05a4 0023     		movs	r3, #0
 881 05a6 16E0     		b	.L2
 882              	.L53:
 883 05a8 0023     		movs	r3, #0
 884 05aa 14E0     		b	.L2
 885              	.L54:
 886 05ac 0023     		movs	r3, #0
 887 05ae 12E0     		b	.L2
 888              	.L55:
 889 05b0 0023     		movs	r3, #0
 890 05b2 10E0     		b	.L2
 891              	.L56:
 892 05b4 0023     		movs	r3, #0
 893 05b6 0EE0     		b	.L2
 894              	.L57:
 895 05b8 0023     		movs	r3, #0
 896 05ba 0CE0     		b	.L2
 897              	.LVL54:
 898              	.L58:
 149:Serial.c      **** 				if (Filter == FILTER_FL1)
 899              		.loc 1 149 0
 900 05bc 0923     		movs	r3, #9
 901 05be 0AE0     		b	.L2
 902              	.LVL55:
 903              	.L60:
  58:Serial.c      ****     char    str[8];
 904              		.loc 1 58 0
 905 05c0 0023     		movs	r3, #0
 906 05c2 08E0     		b	.L2
 907              	.L61:
 908 05c4 0023     		movs	r3, #0
 909 05c6 06E0     		b	.L2
 910              	.L62:
 911 05c8 0023     		movs	r3, #0
 912 05ca 04E0     		b	.L2
 913              	.L63:
 914 05cc 0023     		movs	r3, #0
 915 05ce 02E0     		b	.L2
 916              	.L64:
ARM GAS  C:\Users\koseki\AppData\Local\Temp\ccPFU33k.s 			page 23


 917 05d0 0023     		movs	r3, #0
 918 05d2 00E0     		b	.L2
 919              	.L65:
 920 05d4 0023     		movs	r3, #0
 921              	.LVL56:
 922              	.L2:
 305:Serial.c      **** 			}
 306:Serial.c      **** 			break;
 307:Serial.c      **** 	}
 308:Serial.c      **** 
 309:Serial.c      **** 	if (sendUsb)
 923              		.loc 1 309 0
 924 05d6 5BB1     		cbz	r3, .L1
 310:Serial.c      **** 	{
 311:Serial.c      **** #if PSoC3 // original code
 312:Serial.c      **** 		USBUART_Write(UsbTxBuffer, sendUsb);	// send response
 313:Serial.c      **** #else
 314:Serial.c      ****         UsbTxBuffer[sendUsb] = '\0';
 925              		.loc 1 314 0
 926 05d8 0A48     		ldr	r0, .L71+16
 927 05da 0022     		movs	r2, #0
 928 05dc C254     		strb	r2, [r0, r3]
 315:Serial.c      **** 		USBUART_Write(UsbTxBuffer);	// send response
 929              		.loc 1 315 0
 930 05de FFF7FEFF 		bl	USBUART_Write
 931              	.LVL57:
 316:Serial.c      **** 		USBUART_Write((uint8*)"\r\n");	// send response
 932              		.loc 1 316 0
 933 05e2 1E48     		ldr	r0, .L71+104
 934 05e4 FFF7FEFF 		bl	USBUART_Write
 935              	.LVL58:
 936              	.L51:
 317:Serial.c      **** 		while(!USBUART_bTxIsReady()) ;
 937              		.loc 1 317 0 discriminator 1
 938 05e8 FFF7FEFF 		bl	USBUART_bTxIsReady
 939              	.LVL59:
 940 05ec 0028     		cmp	r0, #0
 941 05ee FBD0     		beq	.L51
 942              	.L1:
 318:Serial.c      **** #endif
 319:Serial.c      ****     }
 320:Serial.c      **** }
 943              		.loc 1 320 0
 944 05f0 03B0     		add	sp, sp, #12
 945              		.cfi_def_cfa_offset 20
 946              		@ sp needed
 947 05f2 F0BD     		pop	{r4, r5, r6, r7, pc}
 948              	.L72:
 949              		.align	2
 950              	.L71:
 951 05f4 00000000 		.word	ComRxCmd
 952 05f8 00000000 		.word	Filter
 953 05fc A0000000 		.word	.LC15
 954 0600 00000000 		.word	AgcTimeConstant
 955 0604 00000000 		.word	UsbTxBuffer
 956 0608 00000000 		.word	AgcDisable
 957 060c AC000000 		.word	.LC16
ARM GAS  C:\Users\koseki\AppData\Local\Temp\ccPFU33k.s 			page 24


 958 0610 B4000000 		.word	.LC17
 959 0614 00000000 		.word	Freq
 960 0618 D8000000 		.word	.LC18
 961 061c E0000000 		.word	.LC19
 962 0620 E8000000 		.word	.LC20
 963 0624 F0000000 		.word	.LC21
 964 0628 00000000 		.word	Mode
 965 062c F8000000 		.word	.LC22
 966 0630 00010000 		.word	.LC23
 967 0634 08010000 		.word	.LC24
 968 0638 10010000 		.word	.LC25
 969 063c 18010000 		.word	.LC26
 970 0640 00000000 		.word	AttenuatorOn
 971 0644 00000000 		.word	AgcIntegrator
 972 0648 00000000 		.word	AgcGain
 973 064c 20010000 		.word	.LC27
 974 0650 00000000 		.word	Squelch
 975 0654 1F85EB51 		.word	1374389535
 976 0658 CDCCCCCC 		.word	-858993459
 977 065c 28010000 		.word	.LC28
 978              		.cfi_endproc
 979              	.LFE63:
 980              		.size	ProcessComRx, .-ProcessComRx
 981              		.section	.rodata.str1.4,"aMS",%progbits,1
 982              		.align	2
 983              	.LC0:
 984 0000 4149303B 		.ascii	"AI0;\000"
 984      00
 985 0005 000000   		.space	3
 986              	.LC1:
 987 0008 414E313B 		.ascii	"AN1;\000"
 987      00
 988 000d 000000   		.space	3
 989              	.LC2:
 990 0010 42473132 		.ascii	"BG12;\000"
 990      3B00
 991 0016 0000     		.space	2
 992              	.LC3:
 993 0018 4453483A 		.ascii	"DSH:S 0000\000"
 993      53203030 
 993      303000
 994 0023 00       		.space	1
 995              	.LC4:
 996 0024 4453534E 		.ascii	"DSSN \000"
 996      2000
 997 002a 0000     		.space	2
 998              	.LC5:
 999 002c 44534652 		.ascii	"DSFR \000"
 999      2000
 1000 0032 0000     		.space	2
 1001              	.LC6:
 1002 0034 46413030 		.ascii	"FA00000000000;\000"
 1002      30303030 
 1002      30303030 
 1002      303B00
 1003 0043 00       		.space	1
 1004              	.LC7:
ARM GAS  C:\Users\koseki\AppData\Local\Temp\ccPFU33k.s 			page 25


 1005 0044 46423030 		.ascii	"FB00000000000;\000"
 1005      30303030 
 1005      30303030 
 1005      303B00
 1006 0053 00       		.space	1
 1007              	.LC8:
 1008 0054 4652303B 		.ascii	"FR0;\000"
 1008      00
 1009 0059 000000   		.space	3
 1010              	.LC9:
 1011 005c 4654303B 		.ascii	"FT0;\000"
 1011      00
 1012 0061 000000   		.space	3
 1013              	.LC10:
 1014 0064 46573235 		.ascii	"FW250010;\000"
 1014      30303130 
 1014      3B00
 1015 006e 0000     		.space	2
 1016              	.LC11:
 1017 0070 46573230 		.ascii	"FW200020;\000"
 1017      30303230 
 1017      3B00
 1018 007a 0000     		.space	2
 1019              	.LC12:
 1020 007c 46573135 		.ascii	"FW150030;\000"
 1020      30303330 
 1020      3B00
 1021 0086 0000     		.space	2
 1022              	.LC13:
 1023 0088 46573130 		.ascii	"FW100040;\000"
 1023      30303430 
 1023      3B00
 1024 0092 0000     		.space	2
 1025              	.LC14:
 1026 0094 46573430 		.ascii	"FW400050;\000"
 1026      30303530 
 1026      3B00
 1027 009e 0000     		.space	2
 1028              	.LC15:
 1029 00a0 47542530 		.ascii	"GT%03d0;\000"
 1029      3364303B 
 1029      00
 1030 00a9 000000   		.space	3
 1031              	.LC16:
 1032 00ac 49443031 		.ascii	"ID017;\000"
 1032      373B00
 1033 00b3 00       		.space	1
 1034              	.LC17:
 1035 00b4 49463030 		.ascii	"IF00000000000     +00000001000001 ;\000"
 1035      30303030 
 1035      30303030 
 1035      30202020 
 1035      20202B30 
 1036              	.LC18:
 1037 00d8 4B32323B 		.ascii	"K22;\000"
 1037      00
 1038 00dd 000000   		.space	3
ARM GAS  C:\Users\koseki\AppData\Local\Temp\ccPFU33k.s 			page 26


 1039              	.LC19:
 1040 00e0 4B533030 		.ascii	"KS009;\000"
 1040      393B00
 1041 00e7 00       		.space	1
 1042              	.LC20:
 1043 00e8 4C4B303B 		.ascii	"LK0;\000"
 1043      00
 1044 00ed 000000   		.space	3
 1045              	.LC21:
 1046 00f0 4D44313B 		.ascii	"MD1;\000"
 1046      00
 1047 00f5 000000   		.space	3
 1048              	.LC22:
 1049 00f8 4E423031 		.ascii	"NB01;\000"
 1049      3B00
 1050 00fe 0000     		.space	2
 1051              	.LC23:
 1052 0100 5041303B 		.ascii	"PA0;\000"
 1052      00
 1053 0105 000000   		.space	3
 1054              	.LC24:
 1055 0108 50433030 		.ascii	"PC0000;\000"
 1055      30303B00 
 1056              	.LC25:
 1057 0110 5053313B 		.ascii	"PS1;\000"
 1057      00
 1058 0115 000000   		.space	3
 1059              	.LC26:
 1060 0118 52413030 		.ascii	"RA00;\000"
 1060      3B00
 1061 011e 0000     		.space	2
 1062              	.LC27:
 1063 0120 53513030 		.ascii	"SQ000;\000"
 1063      303B00
 1064 0127 00       		.space	1
 1065              	.LC28:
 1066 0128 0D0A00   		.ascii	"\015\012\000"
 1067 012b 00       		.text
 1068              	.Letext0:
 1069              		.file 2 "c:\\program files (x86)\\cypress\\psoc creator\\4.0\\psoc creator\\import\\gnu\\arm\\4.9.
 1070              		.file 3 "c:\\program files (x86)\\cypress\\psoc creator\\4.0\\psoc creator\\import\\gnu\\arm\\4.9.
 1071              		.file 4 "Generated_Source\\PSoC5/cytypes.h"
 1072              		.file 5 "Generated_Source\\PSoC5/core_cm3.h"
 1073              		.file 6 "main.h"
 1074              		.file 7 "Generated_Source\\PSoC5/ADC.h"
 1075              		.file 8 "USBUART_API.h"
 1076              		.file 9 "c:\\program files (x86)\\cypress\\psoc creator\\4.0\\psoc creator\\import\\gnu\\arm\\4.9.