ARM GAS  C:\Users\koseki\AppData\Local\Temp\ccOe5Jk8.s 			page 1


   1              		.syntax unified
   2              		.cpu cortex-m3
   3              		.fpu softvfp
   4              		.eabi_attribute 20, 1
   5              		.eabi_attribute 21, 1
   6              		.eabi_attribute 23, 3
   7              		.eabi_attribute 24, 1
   8              		.eabi_attribute 25, 1
   9              		.eabi_attribute 26, 1
  10              		.eabi_attribute 30, 1
  11              		.eabi_attribute 34, 1
  12              		.eabi_attribute 18, 4
  13              		.thumb
  14              		.file	"utility.c"
  15              		.text
  16              	.Ltext0:
  17              		.cfi_sections	.debug_frame
  18              		.section	.text.power,"ax",%progbits
  19              		.align	2
  20              		.global	power
  21              		.thumb
  22              		.thumb_func
  23              		.type	power, %function
  24              	power:
  25              	.LFB63:
  26              		.file 1 "..\\API\\utility.c"
   1:..\API/utility.c **** //=========================================================
   2:..\API/utility.c **** // PSoC5LP Project
   3:..\API/utility.c **** //=========================================================
   4:..\API/utility.c **** // File Name : utility.c
   5:..\API/utility.c **** // Function  : Utility Routine
   6:..\API/utility.c **** //---------------------------------------------------------
   7:..\API/utility.c **** // Rev.01 2012.09.01 Munetomo Maruyama
   8:..\API/utility.c **** //---------------------------------------------------------
   9:..\API/utility.c **** // Copyright (C) 2012-2013 Munetomo Maruyama
  10:..\API/utility.c **** //=========================================================
  11:..\API/utility.c **** // ---- License Information -------------------------------
  12:..\API/utility.c **** // Anyone can FREELY use this code fully or partially
  13:..\API/utility.c **** // under conditions shown below.
  14:..\API/utility.c **** // 1. You may use this code only for individual purpose,
  15:..\API/utility.c **** //    and educational purpose.
  16:..\API/utility.c **** //    Do not use this code for business even if partially.
  17:..\API/utility.c **** // 2. You can copy, modify and distribute this code.
  18:..\API/utility.c **** // 3. You should remain this header text in your codes
  19:..\API/utility.c **** //   including Copyright credit and License Information.
  20:..\API/utility.c **** // 4. Your codes should inherit this license information.
  21:..\API/utility.c **** //=========================================================
  22:..\API/utility.c **** // ---- Patent Notice -------------------------------------
  23:..\API/utility.c **** // I have not cared whether this system (hw + sw) causes
  24:..\API/utility.c **** // infringement on the patent, copyright, trademark,
  25:..\API/utility.c **** // or trade secret rights of others. You have all
  26:..\API/utility.c **** // responsibilities for determining if your designs
  27:..\API/utility.c **** // and products infringe on the intellectual property
  28:..\API/utility.c **** // rights of others, when you use technical information
  29:..\API/utility.c **** // included in this system for your business.
  30:..\API/utility.c **** //=========================================================
  31:..\API/utility.c **** // ---- Disclaimers ---------------------------------------
ARM GAS  C:\Users\koseki\AppData\Local\Temp\ccOe5Jk8.s 			page 2


  32:..\API/utility.c **** // The function and reliability of this system are not
  33:..\API/utility.c **** // guaranteed. They may cause any damages to loss of
  34:..\API/utility.c **** // properties, data, money, profits, life, or business.
  35:..\API/utility.c **** // By adopting this system even partially, you assume
  36:..\API/utility.c **** // all responsibility for its use.
  37:..\API/utility.c **** //=========================================================
  38:..\API/utility.c **** 
  39:..\API/utility.c **** #include <stdarg.h>
  40:..\API/utility.c **** #include <stdlib.h>
  41:..\API/utility.c **** #include <string.h>
  42:..\API/utility.c **** #include <limits.h>
  43:..\API/utility.c **** #include "fixedpoint.h"
  44:..\API/utility.c **** #include "utility.h"
  45:..\API/utility.c **** 
  46:..\API/utility.c **** #define MAX_WORKBUF 64
  47:..\API/utility.c **** 
  48:..\API/utility.c **** //========================
  49:..\API/utility.c **** // Calculate x^n
  50:..\API/utility.c **** //========================
  51:..\API/utility.c **** int32 power(int32 x, int32 n)
  52:..\API/utility.c **** {
  27              		.loc 1 52 0
  28              		.cfi_startproc
  29              		@ args = 0, pretend = 0, frame = 0
  30              		@ frame_needed = 0, uses_anonymous_args = 0
  31              		@ link register save eliminated.
  32              	.LVL0:
  53:..\API/utility.c ****     uint32 i;
  54:..\API/utility.c ****     int32  y;
  55:..\API/utility.c **** 
  56:..\API/utility.c ****     y = 1;
  33              		.loc 1 56 0
  34 0000 0122     		movs	r2, #1
  57:..\API/utility.c ****     for (i = 0; i < n; i++)
  35              		.loc 1 57 0
  36 0002 0023     		movs	r3, #0
  37 0004 02E0     		b	.L2
  38              	.LVL1:
  39              	.L3:
  58:..\API/utility.c ****     {
  59:..\API/utility.c ****         y = y * x;
  40              		.loc 1 59 0 discriminator 3
  41 0006 00FB02F2 		mul	r2, r0, r2
  42              	.LVL2:
  57:..\API/utility.c ****     for (i = 0; i < n; i++)
  43              		.loc 1 57 0 discriminator 3
  44 000a 0133     		adds	r3, r3, #1
  45              	.LVL3:
  46              	.L2:
  57:..\API/utility.c ****     for (i = 0; i < n; i++)
  47              		.loc 1 57 0 is_stmt 0 discriminator 1
  48 000c 9942     		cmp	r1, r3
  49 000e FAD8     		bhi	.L3
  60:..\API/utility.c ****     }
  61:..\API/utility.c ****     return y;
  62:..\API/utility.c **** }
  50              		.loc 1 62 0 is_stmt 1
ARM GAS  C:\Users\koseki\AppData\Local\Temp\ccOe5Jk8.s 			page 3


  51 0010 1046     		mov	r0, r2
  52              	.LVL4:
  53 0012 7047     		bx	lr
  54              		.cfi_endproc
  55              	.LFE63:
  56              		.size	power, .-power
  57              		.section	.text.BCD_INT,"ax",%progbits
  58              		.align	2
  59              		.global	BCD_INT
  60              		.thumb
  61              		.thumb_func
  62              		.type	BCD_INT, %function
  63              	BCD_INT:
  64              	.LFB64:
  63:..\API/utility.c **** 
  64:..\API/utility.c **** //=====================
  65:..\API/utility.c **** // BCD from Integer
  66:..\API/utility.c **** //=====================
  67:..\API/utility.c **** uint8 BCD_INT(uint8 num)
  68:..\API/utility.c **** {
  65              		.loc 1 68 0
  66              		.cfi_startproc
  67              		@ args = 0, pretend = 0, frame = 0
  68              		@ frame_needed = 0, uses_anonymous_args = 0
  69              		@ link register save eliminated.
  70              	.LVL5:
  69:..\API/utility.c ****     return ((num / 10) << 4) + (num % 10);
  71              		.loc 1 69 0
  72 0000 054B     		ldr	r3, .L5
  73 0002 A3FB0023 		umull	r2, r3, r3, r0
  74 0006 DB08     		lsrs	r3, r3, #3
  75 0008 03EB8302 		add	r2, r3, r3, lsl #2
  76 000c 5200     		lsls	r2, r2, #1
  77 000e 801A     		subs	r0, r0, r2
  78              	.LVL6:
  79 0010 00EB0310 		add	r0, r0, r3, lsl #4
  70:..\API/utility.c **** }
  80              		.loc 1 70 0
  81 0014 C0B2     		uxtb	r0, r0
  82 0016 7047     		bx	lr
  83              	.L6:
  84              		.align	2
  85              	.L5:
  86 0018 CDCCCCCC 		.word	-858993459
  87              		.cfi_endproc
  88              	.LFE64:
  89              		.size	BCD_INT, .-BCD_INT
  90              		.section	.text.INT_BCD,"ax",%progbits
  91              		.align	2
  92              		.global	INT_BCD
  93              		.thumb
  94              		.thumb_func
  95              		.type	INT_BCD, %function
  96              	INT_BCD:
  97              	.LFB65:
  71:..\API/utility.c **** 
  72:..\API/utility.c **** //=====================
ARM GAS  C:\Users\koseki\AppData\Local\Temp\ccOe5Jk8.s 			page 4


  73:..\API/utility.c **** // Integer from BCD
  74:..\API/utility.c **** //=====================
  75:..\API/utility.c **** uint8 INT_BCD(uint8 bcd)
  76:..\API/utility.c **** {
  98              		.loc 1 76 0
  99              		.cfi_startproc
 100              		@ args = 0, pretend = 0, frame = 0
 101              		@ frame_needed = 0, uses_anonymous_args = 0
 102              		@ link register save eliminated.
 103              	.LVL7:
  77:..\API/utility.c ****     return (((bcd >> 4) * 10) + (bcd & 0x0f));
 104              		.loc 1 77 0
 105 0000 0309     		lsrs	r3, r0, #4
 106 0002 03EB8303 		add	r3, r3, r3, lsl #2
 107 0006 5A00     		lsls	r2, r3, #1
 108 0008 00F00F00 		and	r0, r0, #15
 109              	.LVL8:
 110 000c 1044     		add	r0, r0, r2
  78:..\API/utility.c **** }
 111              		.loc 1 78 0
 112 000e C0B2     		uxtb	r0, r0
 113 0010 7047     		bx	lr
 114              		.cfi_endproc
 115              	.LFE65:
 116              		.size	INT_BCD, .-INT_BCD
 117 0012 00BF     		.section	.text.xatoi,"ax",%progbits
 118              		.align	2
 119              		.global	xatoi
 120              		.thumb
 121              		.thumb_func
 122              		.type	xatoi, %function
 123              	xatoi:
 124              	.LFB66:
  79:..\API/utility.c **** 
  80:..\API/utility.c **** //=================================
  81:..\API/utility.c **** // Extended atoi String to Integer
  82:..\API/utility.c **** //=================================
  83:..\API/utility.c **** //  str : Pointer to pointer to source string
  84:..\API/utility.c **** //    "0xff800" hexadecimal
  85:..\API/utility.c **** //    "1250000" decimal
  86:..\API/utility.c **** //    "-25000" decimal
  87:..\API/utility.c **** //  data : Pointer to return value
  88:..\API/utility.c **** uint32 xatoi(uint8 **str, int32 *data)
  89:..\API/utility.c **** {
 125              		.loc 1 89 0
 126              		.cfi_startproc
 127              		@ args = 0, pretend = 0, frame = 8
 128              		@ frame_needed = 0, uses_anonymous_args = 0
 129              	.LVL9:
 130 0000 70B5     		push	{r4, r5, r6, lr}
 131              		.cfi_def_cfa_offset 16
 132              		.cfi_offset 4, -16
 133              		.cfi_offset 5, -12
 134              		.cfi_offset 6, -8
 135              		.cfi_offset 14, -4
 136 0002 82B0     		sub	sp, sp, #8
 137              		.cfi_def_cfa_offset 24
ARM GAS  C:\Users\koseki\AppData\Local\Temp\ccOe5Jk8.s 			page 5


 138 0004 0446     		mov	r4, r0
 139 0006 0E46     		mov	r6, r1
  90:..\API/utility.c ****     uint8 *pS, *pE;
  91:..\API/utility.c ****     int32 result;
  92:..\API/utility.c ****     uint32 judge;
  93:..\API/utility.c **** 
  94:..\API/utility.c ****     pS = *str;
 140              		.loc 1 94 0
 141 0008 0568     		ldr	r5, [r0]
 142              	.LVL10:
  95:..\API/utility.c **** 
  96:..\API/utility.c ****     result = (int32) strtol((const char*) pS, (char**) &pE, 0);
 143              		.loc 1 96 0
 144 000a 2846     		mov	r0, r5
 145              	.LVL11:
 146 000c 01A9     		add	r1, sp, #4
 147              	.LVL12:
 148 000e 0022     		movs	r2, #0
 149 0010 FFF7FEFF 		bl	strtol
 150              	.LVL13:
 151 0014 0246     		mov	r2, r0
 152              	.LVL14:
  97:..\API/utility.c ****     judge = (pS == pE)? 0 : (result == LONG_MAX)? 0 : (result == LONG_MIN)? 0 : 1;
 153              		.loc 1 97 0
 154 0016 019B     		ldr	r3, [sp, #4]
 155 0018 9D42     		cmp	r5, r3
 156 001a 07D0     		beq	.L10
 157              		.loc 1 97 0 is_stmt 0 discriminator 1
 158 001c 00F10043 		add	r3, r0, #-2147483648
 159 0020 013B     		subs	r3, r3, #1
 160 0022 13F1030F 		cmn	r3, #3
 161 0026 03D9     		bls	.L11
 162              		.loc 1 97 0
 163 0028 0020     		movs	r0, #0
 164              	.LVL15:
 165 002a 02E0     		b	.L9
 166              	.LVL16:
 167              	.L10:
 168 002c 0020     		movs	r0, #0
 169              	.LVL17:
 170 002e 00E0     		b	.L9
 171              	.LVL18:
 172              	.L11:
 173 0030 0120     		movs	r0, #1
 174              	.LVL19:
 175              	.L9:
  98:..\API/utility.c ****     *data = result;
 176              		.loc 1 98 0 is_stmt 1 discriminator 6
 177 0032 3260     		str	r2, [r6]
  99:..\API/utility.c ****     *str = pE;
 178              		.loc 1 99 0 discriminator 6
 179 0034 019B     		ldr	r3, [sp, #4]
 180 0036 2360     		str	r3, [r4]
 100:..\API/utility.c ****     return judge;
 101:..\API/utility.c **** }
 181              		.loc 1 101 0 discriminator 6
 182 0038 02B0     		add	sp, sp, #8
ARM GAS  C:\Users\koseki\AppData\Local\Temp\ccOe5Jk8.s 			page 6


 183              		.cfi_def_cfa_offset 16
 184              		@ sp needed
 185 003a 70BD     		pop	{r4, r5, r6, pc}
 186              		.cfi_endproc
 187              	.LFE66:
 188              		.size	xatoi, .-xatoi
 189              		.section	.text.xitoa,"ax",%progbits
 190              		.align	2
 191              		.global	xitoa
 192              		.thumb
 193              		.thumb_func
 194              		.type	xitoa, %function
 195              	xitoa:
 196              	.LFB67:
 102:..\API/utility.c **** 
 103:..\API/utility.c **** //====================================
 104:..\API/utility.c **** // Extended itoa output to String
 105:..\API/utility.c **** //====================================
 106:..\API/utility.c **** //      value  radix  width   output
 107:..\API/utility.c **** //        100     10      6   "   100"
 108:..\API/utility.c **** //        100     10     -6   "000100"
 109:..\API/utility.c **** //        100     10      0   "100"
 110:..\API/utility.c **** // 4294967295     10      0   "4294967295"
 111:..\API/utility.c **** // 4294967295    -10      0   "-1"
 112:..\API/utility.c **** //     655360     16     -8   "000A0000"
 113:..\API/utility.c **** //       1024     16      0   "400"
 114:..\API/utility.c **** //       0x55      2     -8   "01010101"
 115:..\API/utility.c **** uint8 *xitoa(uint8 *str, uint32 *pLength, int32 value, int8 radix, int8 width)
 116:..\API/utility.c **** {
 197              		.loc 1 116 0
 198              		.cfi_startproc
 199              		@ args = 4, pretend = 0, frame = 64
 200              		@ frame_needed = 0, uses_anonymous_args = 0
 201              	.LVL20:
 202 0000 2DE9F043 		push	{r4, r5, r6, r7, r8, r9, lr}
 203              		.cfi_def_cfa_offset 28
 204              		.cfi_offset 4, -28
 205              		.cfi_offset 5, -24
 206              		.cfi_offset 6, -20
 207              		.cfi_offset 7, -16
 208              		.cfi_offset 8, -12
 209              		.cfi_offset 9, -8
 210              		.cfi_offset 14, -4
 211 0004 91B0     		sub	sp, sp, #68
 212              		.cfi_def_cfa_offset 96
 213 0006 9DF960E0 		ldrsb	lr, [sp, #96]
 117:..\API/utility.c ****     uint32 i, j, n;
 118:..\API/utility.c ****     uint8  ch;
 119:..\API/utility.c ****     int8   radix_abs;
 120:..\API/utility.c ****     uint32 radix_unsigned;
 121:..\API/utility.c ****     int8   width_abs;
 122:..\API/utility.c ****     uint32 width_unsigned;
 123:..\API/utility.c ****     int32  value_abs;
 124:..\API/utility.c ****     uint32 value_unsigned;
 125:..\API/utility.c ****     uint8  workbuf[MAX_WORKBUF];
 126:..\API/utility.c ****     //
 127:..\API/utility.c ****     // Check Radix
ARM GAS  C:\Users\koseki\AppData\Local\Temp\ccOe5Jk8.s 			page 7


 128:..\API/utility.c ****     //
 129:..\API/utility.c ****     radix_abs = (radix >= 0)? radix : -radix;
 214              		.loc 1 129 0
 215 000a 83EAE374 		eor	r4, r3, r3, asr #31
 216 000e A4EBE374 		sub	r4, r4, r3, asr #31
 217              	.LVL21:
 130:..\API/utility.c ****     radix_unsigned = (uint32) radix_abs;
 218              		.loc 1 130 0
 219 0012 4FFA84F8 		sxtb	r8, r4
 220              	.LVL22:
 131:..\API/utility.c ****     if ((radix_abs < 2) || (radix_abs > 36))
 221              		.loc 1 131 0
 222 0016 023C     		subs	r4, r4, #2
 223              	.LVL23:
 224 0018 E4B2     		uxtb	r4, r4
 225 001a 222C     		cmp	r4, #34
 226 001c 04D9     		bls	.L14
 132:..\API/utility.c ****     {
 133:..\API/utility.c ****         if (str != NULL) *str = '\0';
 227              		.loc 1 133 0
 228 001e 0028     		cmp	r0, #0
 229 0020 79D0     		beq	.L16
 230              		.loc 1 133 0 is_stmt 0 discriminator 1
 231 0022 0023     		movs	r3, #0
 232              	.LVL24:
 233 0024 0370     		strb	r3, [r0]
 134:..\API/utility.c ****         return str;
 234              		.loc 1 134 0 is_stmt 1 discriminator 1
 235 0026 76E0     		b	.L16
 236              	.LVL25:
 237              	.L14:
 135:..\API/utility.c ****     }
 136:..\API/utility.c ****     //
 137:..\API/utility.c ****     // Check Width
 138:..\API/utility.c ****     //
 139:..\API/utility.c ****     width_abs = (width >= 0)? width : -width;
 238              		.loc 1 139 0
 239 0028 8EEAEE77 		eor	r7, lr, lr, asr #31
 240 002c A7EBEE77 		sub	r7, r7, lr, asr #31
 241              	.LVL26:
 140:..\API/utility.c ****     width_unsigned = (uint32) width_abs;
 242              		.loc 1 140 0
 243 0030 7FB2     		sxtb	r7, r7
 244              	.LVL27:
 141:..\API/utility.c ****     //
 142:..\API/utility.c ****     // Check Value
 143:..\API/utility.c ****     //
 144:..\API/utility.c ****     value_abs = (value >= 0)? value : -value;
 245              		.loc 1 144 0
 246 0032 82EAE275 		eor	r5, r2, r2, asr #31
 247 0036 A5EBE275 		sub	r5, r5, r2, asr #31
 248              	.LVL28:
 145:..\API/utility.c ****     if (radix >= 0)
 249              		.loc 1 145 0
 250 003a 002B     		cmp	r3, #0
 251 003c 03DB     		blt	.L17
 146:..\API/utility.c ****     {
ARM GAS  C:\Users\koseki\AppData\Local\Temp\ccOe5Jk8.s 			page 8


 147:..\API/utility.c ****         value_unsigned = (value >= 0)? (uint32) value_abs : (uint32) value;
 252              		.loc 1 147 0
 253 003e 002A     		cmp	r2, #0
 254 0040 01DA     		bge	.L20
 255              		.loc 1 147 0 is_stmt 0 discriminator 2
 256 0042 1546     		mov	r5, r2
 257              	.LVL29:
 258 0044 FFE7     		b	.L20
 259              	.LVL30:
 260              	.L17:
 261              	.L20:
 116:..\API/utility.c ****     uint32 i, j, n;
 262              		.loc 1 116 0 is_stmt 1
 263 0046 0026     		movs	r6, #0
 264 0048 00E0     		b	.L27
 265              	.LVL31:
 266              	.L38:
 148:..\API/utility.c ****     }
 149:..\API/utility.c ****     else
 150:..\API/utility.c ****     {
 151:..\API/utility.c ****         value_unsigned = (value >= 0)? (uint32) value_abs : (uint32) value_abs;
 152:..\API/utility.c ****     }
 153:..\API/utility.c ****     //
 154:..\API/utility.c ****     // Make Positive Number String
 155:..\API/utility.c ****     //
 156:..\API/utility.c ****     i = 0;
 157:..\API/utility.c ****     do
 158:..\API/utility.c ****     {
 159:..\API/utility.c ****         n = value_unsigned % radix_unsigned;
 160:..\API/utility.c ****         workbuf[i++] = (n < 10 ? (uint8) n + '0' : (uint8) n - 10 + 'a');
 267              		.loc 1 160 0
 268 004a 6646     		mov	r6, ip
 269              	.LVL32:
 270              	.L27:
 159:..\API/utility.c ****         workbuf[i++] = (n < 10 ? (uint8) n + '0' : (uint8) n - 10 + 'a');
 271              		.loc 1 159 0
 272 004c B5FBF8F4 		udiv	r4, r5, r8
 273 0050 08FB1454 		mls	r4, r8, r4, r5
 274              	.LVL33:
 275              		.loc 1 160 0
 276 0054 06F1010C 		add	ip, r6, #1
 277              	.LVL34:
 278 0058 092C     		cmp	r4, #9
 279 005a 03D8     		bhi	.L23
 280              		.loc 1 160 0 is_stmt 0 discriminator 1
 281 005c 3034     		adds	r4, r4, #48
 282              	.LVL35:
 283 005e 04F0FF04 		and	r4, r4, #255
 284              	.LVL36:
 285 0062 02E0     		b	.L24
 286              	.LVL37:
 287              	.L23:
 288              		.loc 1 160 0 discriminator 2
 289 0064 5734     		adds	r4, r4, #87
 290              	.LVL38:
 291 0066 04F0FF04 		and	r4, r4, #255
 292              	.LVL39:
ARM GAS  C:\Users\koseki\AppData\Local\Temp\ccOe5Jk8.s 			page 9


 293              	.L24:
 294              		.loc 1 160 0 discriminator 4
 295 006a 0DF14009 		add	r9, sp, #64
 296 006e B144     		add	r9, r9, r6
 297 0070 09F8404C 		strb	r4, [r9, #-64]
 161:..\API/utility.c ****         value_unsigned = value_unsigned / radix_unsigned;
 298              		.loc 1 161 0 is_stmt 1 discriminator 4
 299 0074 B5FBF8F5 		udiv	r5, r5, r8
 300              	.LVL40:
 162:..\API/utility.c ****         //
 163:..\API/utility.c ****         if (i >= MAX_WORKBUF)
 301              		.loc 1 163 0 discriminator 4
 302 0078 BCF13F0F 		cmp	ip, #63
 303 007c 04D9     		bls	.L25
 164:..\API/utility.c ****         {
 165:..\API/utility.c ****             if (str != NULL) *str = '\0';
 304              		.loc 1 165 0
 305 007e 0028     		cmp	r0, #0
 306 0080 49D0     		beq	.L16
 307              		.loc 1 165 0 is_stmt 0 discriminator 1
 308 0082 0023     		movs	r3, #0
 309              	.LVL41:
 310 0084 0370     		strb	r3, [r0]
 166:..\API/utility.c ****             return str;
 311              		.loc 1 166 0 is_stmt 1 discriminator 1
 312 0086 46E0     		b	.L16
 313              	.LVL42:
 314              	.L25:
 167:..\API/utility.c ****         }
 168:..\API/utility.c ****     }
 169:..\API/utility.c ****     while (value_unsigned != 0);
 315              		.loc 1 169 0
 316 0088 002D     		cmp	r5, #0
 317 008a DED1     		bne	.L38
 170:..\API/utility.c ****     //
 171:..\API/utility.c ****     // Formatting
 172:..\API/utility.c ****     //
 173:..\API/utility.c ****     j = i;
 318              		.loc 1 173 0
 319 008c 6546     		mov	r5, ip
 320              	.LVL43:
 174:..\API/utility.c ****     if ((*pLength > 0) && (value < 0) && (radix < 0))
 321              		.loc 1 174 0
 322 008e 0C68     		ldr	r4, [r1]
 323 0090 D4B1     		cbz	r4, .L30
 324              	.LVL44:
 325              		.loc 1 174 0 is_stmt 0 discriminator 1
 326 0092 002A     		cmp	r2, #0
 327 0094 18DA     		bge	.L30
 328              		.loc 1 174 0 discriminator 2
 329 0096 002B     		cmp	r3, #0
 330 0098 16DA     		bge	.L30
 175:..\API/utility.c ****     {
 176:..\API/utility.c ****         if (width < 0)
 331              		.loc 1 176 0 is_stmt 1
 332 009a BEF1000F 		cmp	lr, #0
 333 009e 05DA     		bge	.L29
ARM GAS  C:\Users\koseki\AppData\Local\Temp\ccOe5Jk8.s 			page 10


 334              	.LVL45:
 177:..\API/utility.c ****         {
 178:..\API/utility.c ****             ch = '-';
 179:..\API/utility.c ****             *str++ = ch;
 335              		.loc 1 179 0
 336 00a0 2D24     		movs	r4, #45
 337 00a2 0470     		strb	r4, [r0]
 180:..\API/utility.c ****             (*pLength)--;
 338              		.loc 1 180 0
 339 00a4 0C68     		ldr	r4, [r1]
 340 00a6 013C     		subs	r4, r4, #1
 341 00a8 0C60     		str	r4, [r1]
 179:..\API/utility.c ****             (*pLength)--;
 342              		.loc 1 179 0
 343 00aa 0130     		adds	r0, r0, #1
 344              	.LVL46:
 345              	.L29:
 181:..\API/utility.c ****         }
 182:..\API/utility.c ****         j = i + 1;
 346              		.loc 1 182 0
 347 00ac B51C     		adds	r5, r6, #2
 348              	.LVL47:
 349 00ae 0BE0     		b	.L30
 350              	.LVL48:
 351              	.L32:
 183:..\API/utility.c ****     }
 184:..\API/utility.c ****     //
 185:..\API/utility.c ****     while ((*pLength > 0) & (width_unsigned > j))
 186:..\API/utility.c ****     {
 187:..\API/utility.c ****         ch = (width >= 0)? ' ' : '0';
 352              		.loc 1 187 0
 353 00b0 BEF1000F 		cmp	lr, #0
 354 00b4 01DB     		blt	.L39
 355 00b6 2024     		movs	r4, #32
 356 00b8 00E0     		b	.L31
 357              	.L39:
 358 00ba 3024     		movs	r4, #48
 359              	.L31:
 360              	.LVL49:
 188:..\API/utility.c ****         *str++ = ch;
 361              		.loc 1 188 0 discriminator 4
 362 00bc 0470     		strb	r4, [r0]
 189:..\API/utility.c ****         (*pLength)--;
 363              		.loc 1 189 0 discriminator 4
 364 00be 0C68     		ldr	r4, [r1]
 365              	.LVL50:
 366 00c0 013C     		subs	r4, r4, #1
 367 00c2 0C60     		str	r4, [r1]
 368              	.LVL51:
 190:..\API/utility.c ****         width_unsigned--;
 369              		.loc 1 190 0 discriminator 4
 370 00c4 013F     		subs	r7, r7, #1
 371              	.LVL52:
 188:..\API/utility.c ****         *str++ = ch;
 372              		.loc 1 188 0 discriminator 4
 373 00c6 0130     		adds	r0, r0, #1
 374              	.LVL53:
ARM GAS  C:\Users\koseki\AppData\Local\Temp\ccOe5Jk8.s 			page 11


 375              	.L30:
 185:..\API/utility.c ****     {
 376              		.loc 1 185 0
 377 00c8 0C68     		ldr	r4, [r1]
 378 00ca 002C     		cmp	r4, #0
 379 00cc 18BF     		it	ne
 380 00ce AF42     		cmpne	r7, r5
 381 00d0 EED8     		bhi	.L32
 191:..\API/utility.c ****     }
 192:..\API/utility.c ****     //
 193:..\API/utility.c ****     if ((*pLength > 0) && (value < 0) && (radix < 0) && (width >= 0))
 382              		.loc 1 193 0
 383 00d2 C4B1     		cbz	r4, .L34
 384              		.loc 1 193 0 is_stmt 0 discriminator 1
 385 00d4 002A     		cmp	r2, #0
 386 00d6 16DA     		bge	.L34
 387              		.loc 1 193 0 discriminator 2
 388 00d8 002B     		cmp	r3, #0
 389 00da 14DA     		bge	.L34
 390              		.loc 1 193 0 discriminator 3
 391 00dc BEF1000F 		cmp	lr, #0
 392 00e0 11DB     		blt	.L34
 393              	.LVL54:
 194:..\API/utility.c ****     {
 195:..\API/utility.c ****         ch = '-';
 196:..\API/utility.c ****         *str++ = ch;
 394              		.loc 1 196 0 is_stmt 1
 395 00e2 2D23     		movs	r3, #45
 396              	.LVL55:
 397 00e4 0370     		strb	r3, [r0]
 197:..\API/utility.c ****         (*pLength)--;
 398              		.loc 1 197 0
 399 00e6 0B68     		ldr	r3, [r1]
 400 00e8 013B     		subs	r3, r3, #1
 401 00ea 0B60     		str	r3, [r1]
 196:..\API/utility.c ****         (*pLength)--;
 402              		.loc 1 196 0
 403 00ec 0130     		adds	r0, r0, #1
 404              	.LVL56:
 405 00ee 0AE0     		b	.L34
 406              	.LVL57:
 407              	.L36:
 198:..\API/utility.c ****     }
 199:..\API/utility.c ****     //
 200:..\API/utility.c ****     while ((*pLength > 0) && (i > 0))
 201:..\API/utility.c ****     {
 202:..\API/utility.c ****         ch = workbuf[--i];
 408              		.loc 1 202 0
 409 00f0 0CF1FF3C 		add	ip, ip, #-1
 410              	.LVL58:
 411 00f4 10AB     		add	r3, sp, #64
 412 00f6 6344     		add	r3, r3, ip
 413 00f8 13F8403C 		ldrb	r3, [r3, #-64]	@ zero_extendqisi2
 414              	.LVL59:
 203:..\API/utility.c ****         *str++ = ch;
 415              		.loc 1 203 0
 416 00fc 0370     		strb	r3, [r0]
ARM GAS  C:\Users\koseki\AppData\Local\Temp\ccOe5Jk8.s 			page 12


 204:..\API/utility.c ****         (*pLength)--;
 417              		.loc 1 204 0
 418 00fe 0B68     		ldr	r3, [r1]
 419              	.LVL60:
 420 0100 013B     		subs	r3, r3, #1
 421 0102 0B60     		str	r3, [r1]
 422              	.LVL61:
 203:..\API/utility.c ****         *str++ = ch;
 423              		.loc 1 203 0
 424 0104 0130     		adds	r0, r0, #1
 425              	.LVL62:
 426              	.L34:
 200:..\API/utility.c ****     {
 427              		.loc 1 200 0
 428 0106 0B68     		ldr	r3, [r1]
 429 0108 13B1     		cbz	r3, .L35
 200:..\API/utility.c ****     {
 430              		.loc 1 200 0 is_stmt 0 discriminator 1
 431 010a BCF1000F 		cmp	ip, #0
 432 010e EFD1     		bne	.L36
 433              	.L35:
 205:..\API/utility.c ****     }
 206:..\API/utility.c ****     //
 207:..\API/utility.c ****     // Finish
 208:..\API/utility.c ****     //
 209:..\API/utility.c ****     if (str != NULL) *str = '\0';
 434              		.loc 1 209 0 is_stmt 1
 435 0110 08B1     		cbz	r0, .L16
 436              		.loc 1 209 0 is_stmt 0 discriminator 1
 437 0112 0023     		movs	r3, #0
 438 0114 0370     		strb	r3, [r0]
 439              	.LVL63:
 440              	.L16:
 210:..\API/utility.c ****     return str;
 211:..\API/utility.c **** }
 441              		.loc 1 211 0 is_stmt 1
 442 0116 11B0     		add	sp, sp, #68
 443              		.cfi_def_cfa_offset 28
 444              		@ sp needed
 445 0118 BDE8F083 		pop	{r4, r5, r6, r7, r8, r9, pc}
 446              		.cfi_endproc
 447              	.LFE67:
 448              		.size	xitoa, .-xitoa
 449              		.section	.text.xvsnprintf,"ax",%progbits
 450              		.align	2
 451              		.global	xvsnprintf
 452              		.thumb
 453              		.thumb_func
 454              		.type	xvsnprintf, %function
 455              	xvsnprintf:
 456              	.LFB69:
 212:..\API/utility.c **** 
 213:..\API/utility.c **** //====================================
 214:..\API/utility.c **** // Extended snprintf() for Small MCU
 215:..\API/utility.c **** //====================================
 216:..\API/utility.c **** uint8 *xsnprintf(uint8 *str, uint32 length, const char *format, ...)
 217:..\API/utility.c **** {
ARM GAS  C:\Users\koseki\AppData\Local\Temp\ccOe5Jk8.s 			page 13


 218:..\API/utility.c ****     va_list ap;
 219:..\API/utility.c **** 
 220:..\API/utility.c ****     va_start(ap, format);
 221:..\API/utility.c ****     str = xvsnprintf(str, length, format, ap);
 222:..\API/utility.c ****     va_end(ap);
 223:..\API/utility.c ****     return str;
 224:..\API/utility.c **** }
 225:..\API/utility.c **** 
 226:..\API/utility.c **** //====================================
 227:..\API/utility.c **** // Extended vsnprintf() for Small MCU
 228:..\API/utility.c **** //====================================
 229:..\API/utility.c **** /* Format string is placed in the ROM. The format flags is similar to printf().
 230:..\API/utility.c **** 
 231:..\API/utility.c ****    %[flag][width][size]type
 232:..\API/utility.c **** 
 233:..\API/utility.c ****    flag
 234:..\API/utility.c ****      A '0' means filled with '0' when output is shorter than width.
 235:..\API/utility.c ****      ' ' is used in default. This is effective only numeral type.
 236:..\API/utility.c ****    width
 237:..\API/utility.c ****      Minimum width in decimal number. This is effective only numeral type.
 238:..\API/utility.c ****      Default width is zero.
 239:..\API/utility.c ****    size (In this program, this is ignored. Always treaded as long.)
 240:..\API/utility.c ****      A 'l' means the argument is long(32bit). Default is short(16bit).
 241:..\API/utility.c ****      This is effective only numeral type.
 242:..\API/utility.c ****    type
 243:..\API/utility.c ****      'c' : Character, argument is the value
 244:..\API/utility.c ****      's' : String placed on memory, argument is the pointer
 245:..\API/utility.c ****      'd' : Signed decimal, argument is the value
 246:..\API/utility.c ****      'u' : Unsigned decimal, argument is the value
 247:..\API/utility.c ****      'x' : Hex decimal, argument is the value
 248:..\API/utility.c ****      'b' : Binary, argument is the value
 249:..\API/utility.c ****      '%' : '%'
 250:..\API/utility.c **** */
 251:..\API/utility.c **** uint8 *xvsnprintf(uint8 *str, uint32 length, const char *format, va_list ap)
 252:..\API/utility.c **** {
 457              		.loc 1 252 0
 458              		.cfi_startproc
 459              		@ args = 0, pretend = 0, frame = 16
 460              		@ frame_needed = 0, uses_anonymous_args = 0
 461              	.LVL64:
 462 0000 70B5     		push	{r4, r5, r6, lr}
 463              		.cfi_def_cfa_offset 16
 464              		.cfi_offset 4, -16
 465              		.cfi_offset 5, -12
 466              		.cfi_offset 6, -8
 467              		.cfi_offset 14, -4
 468 0002 86B0     		sub	sp, sp, #24
 469              		.cfi_def_cfa_offset 40
 470 0004 0446     		mov	r4, r0
 471 0006 0391     		str	r1, [sp, #12]
 472 0008 1D46     		mov	r5, r3
 253:..\API/utility.c ****     uint8 *ptr;
 254:..\API/utility.c ****     int32 data;
 255:..\API/utility.c ****     int8 zero;
 256:..\API/utility.c ****     int8 width;
 257:..\API/utility.c **** 
 258:..\API/utility.c ****     ptr = (uint8*) format;
ARM GAS  C:\Users\koseki\AppData\Local\Temp\ccOe5Jk8.s 			page 14


 473              		.loc 1 258 0
 474 000a 0592     		str	r2, [sp, #20]
 259:..\API/utility.c ****     while(*ptr != '\0')
 475              		.loc 1 259 0
 476 000c 9CE0     		b	.L42
 477              	.LVL65:
 478              	.L61:
 260:..\API/utility.c ****     {
 261:..\API/utility.c ****         if (*ptr == '%')
 479              		.loc 1 261 0
 480 000e 252B     		cmp	r3, #37
 481 0010 40F09080 		bne	.L43
 262:..\API/utility.c ****         {
 263:..\API/utility.c ****             ptr++;
 482              		.loc 1 263 0
 483 0014 531C     		adds	r3, r2, #1
 484 0016 0593     		str	r3, [sp, #20]
 485              	.LVL66:
 264:..\API/utility.c ****             zero = 1;
 265:..\API/utility.c ****             if (*ptr == '0')
 486              		.loc 1 265 0
 487 0018 5278     		ldrb	r2, [r2, #1]	@ zero_extendqisi2
 488 001a 302A     		cmp	r2, #48
 489 001c 03D1     		bne	.L63
 490              	.LVL67:
 266:..\API/utility.c ****             {
 267:..\API/utility.c ****                 zero = -1;
 268:..\API/utility.c ****                 ptr++;
 491              		.loc 1 268 0
 492 001e 0133     		adds	r3, r3, #1
 493 0020 0593     		str	r3, [sp, #20]
 267:..\API/utility.c ****                 ptr++;
 494              		.loc 1 267 0
 495 0022 FF26     		movs	r6, #255
 496 0024 00E0     		b	.L44
 497              	.LVL68:
 498              	.L63:
 264:..\API/utility.c ****             zero = 1;
 499              		.loc 1 264 0
 500 0026 0126     		movs	r6, #1
 501              	.LVL69:
 502              	.L44:
 269:..\API/utility.c ****             }
 270:..\API/utility.c ****             width = 0;
 271:..\API/utility.c ****             if (xatoi(&ptr, &data))
 503              		.loc 1 271 0
 504 0028 05A8     		add	r0, sp, #20
 505 002a 04A9     		add	r1, sp, #16
 506 002c FFF7FEFF 		bl	xatoi
 507              	.LVL70:
 508 0030 10B1     		cbz	r0, .L64
 272:..\API/utility.c ****             {
 273:..\API/utility.c ****                 width = (int8) data;
 509              		.loc 1 273 0
 510 0032 9DF81010 		ldrb	r1, [sp, #16]	@ zero_extendqisi2
 511              	.LVL71:
 512 0036 00E0     		b	.L45
ARM GAS  C:\Users\koseki\AppData\Local\Temp\ccOe5Jk8.s 			page 15


 513              	.LVL72:
 514              	.L64:
 270:..\API/utility.c ****             if (xatoi(&ptr, &data))
 515              		.loc 1 270 0
 516 0038 0021     		movs	r1, #0
 517              	.LVL73:
 518              	.L45:
 274:..\API/utility.c ****             }
 275:..\API/utility.c ****             if (*ptr == 'l')
 519              		.loc 1 275 0
 520 003a 059B     		ldr	r3, [sp, #20]
 521 003c 1A78     		ldrb	r2, [r3]	@ zero_extendqisi2
 522 003e 6C2A     		cmp	r2, #108
 523 0040 01D1     		bne	.L46
 276:..\API/utility.c ****             {
 277:..\API/utility.c ****                 // ignore
 278:..\API/utility.c ****                 ptr++;
 524              		.loc 1 278 0
 525 0042 0133     		adds	r3, r3, #1
 526 0044 0593     		str	r3, [sp, #20]
 527              	.L46:
 279:..\API/utility.c ****             }
 280:..\API/utility.c ****             switch (*ptr)
 528              		.loc 1 280 0
 529 0046 059B     		ldr	r3, [sp, #20]
 530 0048 1B78     		ldrb	r3, [r3]	@ zero_extendqisi2
 531 004a 642B     		cmp	r3, #100
 532 004c 29D0     		beq	.L48
 533 004e 05D8     		bhi	.L49
 534 0050 622B     		cmp	r3, #98
 535 0052 4ED0     		beq	.L50
 536 0054 09D8     		bhi	.L51
 537 0056 252B     		cmp	r3, #37
 538 0058 58D0     		beq	.L52
 539 005a 60E0     		b	.L47
 540              	.L49:
 541 005c 752B     		cmp	r3, #117
 542 005e 2ED0     		beq	.L53
 543 0060 782B     		cmp	r3, #120
 544 0062 39D0     		beq	.L54
 545 0064 732B     		cmp	r3, #115
 546 0066 5AD1     		bne	.L47
 547 0068 0AE0     		b	.L55
 548              	.L51:
 549              	.LBB2:
 281:..\API/utility.c ****             {
 282:..\API/utility.c ****                 case 'c':
 283:..\API/utility.c ****                 {
 284:..\API/utility.c ****                     uint8 ch = (uint8) va_arg(ap, int);
 550              		.loc 1 284 0
 551 006a 2A78     		ldrb	r2, [r5]	@ zero_extendqisi2
 552              	.LVL74:
 553 006c 0435     		adds	r5, r5, #4
 554              	.LVL75:
 285:..\API/utility.c ****                     if (length > 0) {*str++ = ch; length--;}
 555              		.loc 1 285 0
 556 006e 039B     		ldr	r3, [sp, #12]
ARM GAS  C:\Users\koseki\AppData\Local\Temp\ccOe5Jk8.s 			page 16


 557 0070 002B     		cmp	r3, #0
 558 0072 5BD0     		beq	.L56
 559              	.LVL76:
 560              		.loc 1 285 0 is_stmt 0 discriminator 1
 561 0074 2270     		strb	r2, [r4]
 562 0076 039B     		ldr	r3, [sp, #12]
 563 0078 013B     		subs	r3, r3, #1
 564 007a 0393     		str	r3, [sp, #12]
 565 007c 0134     		adds	r4, r4, #1
 566              	.LVL77:
 567 007e 55E0     		b	.L56
 568              	.LVL78:
 569              	.L55:
 570              	.LBE2:
 571              	.LBB3:
 286:..\API/utility.c ****                     break;
 287:..\API/utility.c ****                 }
 288:..\API/utility.c ****                 case 's':
 289:..\API/utility.c ****                 {
 290:..\API/utility.c ****                     uint8 ch;
 291:..\API/utility.c ****                     uint8 *string = (uint8*) va_arg(ap, char*);
 572              		.loc 1 291 0 is_stmt 1
 573 0080 2B68     		ldr	r3, [r5]
 574              	.LVL79:
 575 0082 0435     		adds	r5, r5, #4
 576              	.LVL80:
 292:..\API/utility.c ****                     while((length > 0) && ((ch = *string++) != '\0')) {*str++ = ch; length--;}
 577              		.loc 1 292 0
 578 0084 05E0     		b	.L57
 579              	.LVL81:
 580              	.L58:
 581              		.loc 1 292 0 is_stmt 0 discriminator 3
 582 0086 2370     		strb	r3, [r4]
 583 0088 039B     		ldr	r3, [sp, #12]
 584              	.LVL82:
 585 008a 013B     		subs	r3, r3, #1
 586 008c 0393     		str	r3, [sp, #12]
 587              	.LVL83:
 588 008e 1346     		mov	r3, r2
 589 0090 0134     		adds	r4, r4, #1
 590              	.LVL84:
 591              	.L57:
 592              		.loc 1 292 0 discriminator 1
 593 0092 039A     		ldr	r2, [sp, #12]
 594 0094 002A     		cmp	r2, #0
 595 0096 49D0     		beq	.L56
 596              		.loc 1 292 0 discriminator 2
 597 0098 5A1C     		adds	r2, r3, #1
 598              	.LVL85:
 599 009a 1B78     		ldrb	r3, [r3]	@ zero_extendqisi2
 600              	.LVL86:
 601 009c 002B     		cmp	r3, #0
 602 009e F2D1     		bne	.L58
 603 00a0 44E0     		b	.L56
 604              	.LVL87:
 605              	.L48:
 606              	.LBE3:
ARM GAS  C:\Users\koseki\AppData\Local\Temp\ccOe5Jk8.s 			page 17


 607              	.LBB4:
 293:..\API/utility.c ****                     break;
 294:..\API/utility.c ****                 }
 295:..\API/utility.c ****                 case 'd':
 296:..\API/utility.c ****                 {
 297:..\API/utility.c ****                     int32 value32;
 298:..\API/utility.c ****                     value32 = (int32) va_arg(ap, int);
 608              		.loc 1 298 0 is_stmt 1
 609 00a2 2A68     		ldr	r2, [r5]
 610              	.LVL88:
 611 00a4 0435     		adds	r5, r5, #4
 612              	.LVL89:
 299:..\API/utility.c ****                     str = xitoa(str, &length, (int32) value32, -10, width * zero);
 613              		.loc 1 299 0
 614 00a6 01FB06F1 		mul	r1, r1, r6
 615              	.LVL90:
 616 00aa 49B2     		sxtb	r1, r1
 617 00ac 0091     		str	r1, [sp]
 618 00ae 2046     		mov	r0, r4
 619 00b0 03A9     		add	r1, sp, #12
 620 00b2 6FF00903 		mvn	r3, #9
 621 00b6 FFF7FEFF 		bl	xitoa
 622              	.LVL91:
 623 00ba 0446     		mov	r4, r0
 624              	.LVL92:
 300:..\API/utility.c ****                     break;
 625              		.loc 1 300 0
 626 00bc 36E0     		b	.L56
 627              	.LVL93:
 628              	.L53:
 629              	.LBE4:
 630              	.LBB5:
 301:..\API/utility.c ****                 }
 302:..\API/utility.c ****                 case 'u':
 303:..\API/utility.c ****                 {
 304:..\API/utility.c ****                     int32 value32;
 305:..\API/utility.c ****                     value32 = (int32) va_arg(ap, int);
 631              		.loc 1 305 0
 632 00be 2A68     		ldr	r2, [r5]
 633              	.LVL94:
 634 00c0 0435     		adds	r5, r5, #4
 635              	.LVL95:
 306:..\API/utility.c ****                     str = xitoa(str, &length, (int32) value32, +10, width * zero);
 636              		.loc 1 306 0
 637 00c2 01FB06F1 		mul	r1, r1, r6
 638              	.LVL96:
 639 00c6 49B2     		sxtb	r1, r1
 640 00c8 0091     		str	r1, [sp]
 641 00ca 2046     		mov	r0, r4
 642 00cc 03A9     		add	r1, sp, #12
 643 00ce 0A23     		movs	r3, #10
 644 00d0 FFF7FEFF 		bl	xitoa
 645              	.LVL97:
 646 00d4 0446     		mov	r4, r0
 647              	.LVL98:
 307:..\API/utility.c ****                     break;
 648              		.loc 1 307 0
ARM GAS  C:\Users\koseki\AppData\Local\Temp\ccOe5Jk8.s 			page 18


 649 00d6 29E0     		b	.L56
 650              	.LVL99:
 651              	.L54:
 652              	.LBE5:
 653              	.LBB6:
 308:..\API/utility.c ****                 }
 309:..\API/utility.c ****                 case 'x':
 310:..\API/utility.c ****                 {
 311:..\API/utility.c ****                     int32 value32;
 312:..\API/utility.c ****                     value32 = (int32) va_arg(ap, int);
 654              		.loc 1 312 0
 655 00d8 2A68     		ldr	r2, [r5]
 656              	.LVL100:
 657 00da 0435     		adds	r5, r5, #4
 658              	.LVL101:
 313:..\API/utility.c ****                     str = xitoa(str, &length, (int32) value32, +16, width * zero);
 659              		.loc 1 313 0
 660 00dc 01FB06F1 		mul	r1, r1, r6
 661              	.LVL102:
 662 00e0 49B2     		sxtb	r1, r1
 663 00e2 0091     		str	r1, [sp]
 664 00e4 2046     		mov	r0, r4
 665 00e6 03A9     		add	r1, sp, #12
 666 00e8 1023     		movs	r3, #16
 667 00ea FFF7FEFF 		bl	xitoa
 668              	.LVL103:
 669 00ee 0446     		mov	r4, r0
 670              	.LVL104:
 314:..\API/utility.c ****                     break;
 671              		.loc 1 314 0
 672 00f0 1CE0     		b	.L56
 673              	.LVL105:
 674              	.L50:
 675              	.LBE6:
 676              	.LBB7:
 315:..\API/utility.c ****                 }
 316:..\API/utility.c ****                 case 'b':
 317:..\API/utility.c ****                 {
 318:..\API/utility.c ****                     int32 value32;
 319:..\API/utility.c ****                     value32 = (int32) va_arg(ap, int);
 677              		.loc 1 319 0
 678 00f2 2A68     		ldr	r2, [r5]
 679              	.LVL106:
 680 00f4 0435     		adds	r5, r5, #4
 681              	.LVL107:
 320:..\API/utility.c ****                     str = xitoa(str, &length, (int32) value32, +2, width * zero);
 682              		.loc 1 320 0
 683 00f6 01FB06F1 		mul	r1, r1, r6
 684              	.LVL108:
 685 00fa 49B2     		sxtb	r1, r1
 686 00fc 0091     		str	r1, [sp]
 687 00fe 2046     		mov	r0, r4
 688 0100 03A9     		add	r1, sp, #12
 689 0102 0223     		movs	r3, #2
 690 0104 FFF7FEFF 		bl	xitoa
 691              	.LVL109:
 692 0108 0446     		mov	r4, r0
ARM GAS  C:\Users\koseki\AppData\Local\Temp\ccOe5Jk8.s 			page 19


 693              	.LVL110:
 321:..\API/utility.c ****                     break;
 694              		.loc 1 321 0
 695 010a 0FE0     		b	.L56
 696              	.LVL111:
 697              	.L52:
 698              	.LBE7:
 322:..\API/utility.c ****                 }
 323:..\API/utility.c ****                 case '%':
 324:..\API/utility.c ****                 {
 325:..\API/utility.c ****                     if (length > 0) {*str++ = '%'; length--;}
 699              		.loc 1 325 0
 700 010c 039B     		ldr	r3, [sp, #12]
 701 010e 6BB1     		cbz	r3, .L56
 702              	.LVL112:
 703              		.loc 1 325 0 is_stmt 0 discriminator 1
 704 0110 2523     		movs	r3, #37
 705 0112 2370     		strb	r3, [r4]
 706 0114 039B     		ldr	r3, [sp, #12]
 707 0116 013B     		subs	r3, r3, #1
 708 0118 0393     		str	r3, [sp, #12]
 709 011a 0134     		adds	r4, r4, #1
 710              	.LVL113:
 711 011c 06E0     		b	.L56
 712              	.L47:
 326:..\API/utility.c ****                     break;
 327:..\API/utility.c ****                 }
 328:..\API/utility.c ****                 default:
 329:..\API/utility.c ****                 {
 330:..\API/utility.c ****                     if (length > 0) {*str++ = *ptr; length--;}
 713              		.loc 1 330 0 is_stmt 1
 714 011e 039A     		ldr	r2, [sp, #12]
 715 0120 22B1     		cbz	r2, .L56
 716              	.LVL114:
 717              		.loc 1 330 0 is_stmt 0 discriminator 1
 718 0122 2370     		strb	r3, [r4]
 719 0124 039B     		ldr	r3, [sp, #12]
 720 0126 013B     		subs	r3, r3, #1
 721 0128 0393     		str	r3, [sp, #12]
 722 012a 0134     		adds	r4, r4, #1
 723              	.LVL115:
 724              	.L56:
 331:..\API/utility.c ****                     break;
 332:..\API/utility.c ****                 }
 333:..\API/utility.c ****             }
 334:..\API/utility.c ****             ptr++;
 725              		.loc 1 334 0 is_stmt 1
 726 012c 059B     		ldr	r3, [sp, #20]
 727 012e 0133     		adds	r3, r3, #1
 728 0130 0593     		str	r3, [sp, #20]
 729 0132 09E0     		b	.L42
 730              	.LVL116:
 731              	.L43:
 335:..\API/utility.c ****         }
 336:..\API/utility.c ****         else
 337:..\API/utility.c ****         {
 338:..\API/utility.c ****             if (length > 0) {*str++ = *ptr; length--;}
ARM GAS  C:\Users\koseki\AppData\Local\Temp\ccOe5Jk8.s 			page 20


 732              		.loc 1 338 0
 733 0134 039A     		ldr	r2, [sp, #12]
 734 0136 22B1     		cbz	r2, .L60
 735              	.LVL117:
 736              		.loc 1 338 0 is_stmt 0 discriminator 1
 737 0138 2370     		strb	r3, [r4]
 738 013a 039B     		ldr	r3, [sp, #12]
 739 013c 013B     		subs	r3, r3, #1
 740 013e 0393     		str	r3, [sp, #12]
 741 0140 0134     		adds	r4, r4, #1
 742              	.LVL118:
 743              	.L60:
 339:..\API/utility.c ****             ptr++;
 744              		.loc 1 339 0 is_stmt 1
 745 0142 059B     		ldr	r3, [sp, #20]
 746 0144 0133     		adds	r3, r3, #1
 747 0146 0593     		str	r3, [sp, #20]
 748              	.LVL119:
 749              	.L42:
 259:..\API/utility.c ****     {
 750              		.loc 1 259 0
 751 0148 059A     		ldr	r2, [sp, #20]
 752 014a 1378     		ldrb	r3, [r2]	@ zero_extendqisi2
 753              	.LVL120:
 754 014c 002B     		cmp	r3, #0
 755 014e 7FF45EAF 		bne	.L61
 340:..\API/utility.c ****         }
 341:..\API/utility.c ****     }
 342:..\API/utility.c ****     //
 343:..\API/utility.c ****     if (str != NULL) *str = '\0';
 756              		.loc 1 343 0
 757 0152 04B1     		cbz	r4, .L62
 758              		.loc 1 343 0 is_stmt 0 discriminator 1
 759 0154 2370     		strb	r3, [r4]
 760              	.L62:
 344:..\API/utility.c ****     return str;
 345:..\API/utility.c **** }
 761              		.loc 1 345 0 is_stmt 1
 762 0156 2046     		mov	r0, r4
 763 0158 06B0     		add	sp, sp, #24
 764              		.cfi_def_cfa_offset 16
 765              		@ sp needed
 766 015a 70BD     		pop	{r4, r5, r6, pc}
 767              		.cfi_endproc
 768              	.LFE69:
 769              		.size	xvsnprintf, .-xvsnprintf
 770              		.section	.text.xsnprintf,"ax",%progbits
 771              		.align	2
 772              		.global	xsnprintf
 773              		.thumb
 774              		.thumb_func
 775              		.type	xsnprintf, %function
 776              	xsnprintf:
 777              	.LFB68:
 217:..\API/utility.c ****     va_list ap;
 778              		.loc 1 217 0
 779              		.cfi_startproc
ARM GAS  C:\Users\koseki\AppData\Local\Temp\ccOe5Jk8.s 			page 21


 780              		@ args = 4, pretend = 8, frame = 8
 781              		@ frame_needed = 0, uses_anonymous_args = 1
 782              	.LVL121:
 783 0000 0CB4     		push	{r2, r3}
 784              		.cfi_def_cfa_offset 8
 785              		.cfi_offset 2, -8
 786              		.cfi_offset 3, -4
 787 0002 00B5     		push	{lr}
 788              		.cfi_def_cfa_offset 12
 789              		.cfi_offset 14, -12
 790 0004 83B0     		sub	sp, sp, #12
 791              		.cfi_def_cfa_offset 24
 792 0006 04AB     		add	r3, sp, #16
 793 0008 53F8042B 		ldr	r2, [r3], #4
 220:..\API/utility.c ****     str = xvsnprintf(str, length, format, ap);
 794              		.loc 1 220 0
 795 000c 0193     		str	r3, [sp, #4]
 221:..\API/utility.c ****     va_end(ap);
 796              		.loc 1 221 0
 797 000e FFF7FEFF 		bl	xvsnprintf
 798              	.LVL122:
 224:..\API/utility.c **** 
 799              		.loc 1 224 0
 800 0012 03B0     		add	sp, sp, #12
 801              		.cfi_def_cfa_offset 12
 802              		@ sp needed
 803 0014 5DF804EB 		ldr	lr, [sp], #4
 804              		.cfi_restore 14
 805              		.cfi_def_cfa_offset 8
 806 0018 02B0     		add	sp, sp, #8
 807              		.cfi_restore 3
 808              		.cfi_restore 2
 809              		.cfi_def_cfa_offset 0
 810 001a 7047     		bx	lr
 811              		.cfi_endproc
 812              	.LFE68:
 813              		.size	xsnprintf, .-xsnprintf
 814              		.section	.text.Append_String_UI32,"ax",%progbits
 815              		.align	2
 816              		.global	Append_String_UI32
 817              		.thumb
 818              		.thumb_func
 819              		.type	Append_String_UI32, %function
 820              	Append_String_UI32:
 821              	.LFB70:
 346:..\API/utility.c **** 
 347:..\API/utility.c **** //======================================================
 348:..\API/utility.c **** // Append String UI32
 349:..\API/utility.c **** //======================================================
 350:..\API/utility.c **** uint8* Append_String_UI32(uint32 value, uint8 *string, uint32 radix, uint32 length)
 351:..\API/utility.c **** {
 822              		.loc 1 351 0
 823              		.cfi_startproc
 824              		@ args = 0, pretend = 0, frame = 32
 825              		@ frame_needed = 0, uses_anonymous_args = 0
 826              	.LVL123:
 827 0000 70B5     		push	{r4, r5, r6, lr}
ARM GAS  C:\Users\koseki\AppData\Local\Temp\ccOe5Jk8.s 			page 22


 828              		.cfi_def_cfa_offset 16
 829              		.cfi_offset 4, -16
 830              		.cfi_offset 5, -12
 831              		.cfi_offset 6, -8
 832              		.cfi_offset 14, -4
 833 0002 88B0     		sub	sp, sp, #32
 834              		.cfi_def_cfa_offset 48
 835              	.LVL124:
 352:..\API/utility.c ****     uint8 *dst;
 353:..\API/utility.c ****     uint8 digits[32];
 354:..\API/utility.c ****     uint32 i, n;
 355:..\API/utility.c **** 
 356:..\API/utility.c ****     dst = string;
 357:..\API/utility.c ****     if ((radix < 2) || (radix > 36))
 836              		.loc 1 357 0
 837 0004 941E     		subs	r4, r2, #2
 838 0006 222C     		cmp	r4, #34
 839 0008 02D9     		bls	.L77
 358:..\API/utility.c ****     {
 359:..\API/utility.c ****         *dst = 0;
 840              		.loc 1 359 0
 841 000a 0023     		movs	r3, #0
 842              	.LVL125:
 843 000c 0B70     		strb	r3, [r1]
 360:..\API/utility.c ****         return string;
 844              		.loc 1 360 0
 845 000e 29E0     		b	.L70
 846              	.LVL126:
 847              	.L77:
 848 0010 0026     		movs	r6, #0
 849              	.L69:
 850              	.LVL127:
 361:..\API/utility.c ****     }
 362:..\API/utility.c ****     i = 0;
 363:..\API/utility.c ****     do
 364:..\API/utility.c ****     {
 365:..\API/utility.c ****         n = value % radix;
 851              		.loc 1 365 0
 852 0012 B0FBF2F4 		udiv	r4, r0, r2
 853 0016 02FB1404 		mls	r4, r2, r4, r0
 854              	.LVL128:
 366:..\API/utility.c ****         digits[i++] = (n < 10 ? (uint8) n + '0' : (uint8) n - 10 + 'a');
 855              		.loc 1 366 0
 856 001a 751C     		adds	r5, r6, #1
 857              	.LVL129:
 858 001c 092C     		cmp	r4, #9
 859 001e 03D8     		bhi	.L71
 860              		.loc 1 366 0 is_stmt 0 discriminator 1
 861 0020 3034     		adds	r4, r4, #48
 862              	.LVL130:
 863 0022 04F0FF04 		and	r4, r4, #255
 864              	.LVL131:
 865 0026 02E0     		b	.L72
 866              	.LVL132:
 867              	.L71:
 868              		.loc 1 366 0 discriminator 2
 869 0028 5734     		adds	r4, r4, #87
ARM GAS  C:\Users\koseki\AppData\Local\Temp\ccOe5Jk8.s 			page 23


 870              	.LVL133:
 871 002a 04F0FF04 		and	r4, r4, #255
 872              	.LVL134:
 873              	.L72:
 874              		.loc 1 366 0 discriminator 4
 875 002e 0DF1200E 		add	lr, sp, #32
 876 0032 7644     		add	r6, r6, lr
 877 0034 06F8204C 		strb	r4, [r6, #-32]
 367:..\API/utility.c ****         value = value / radix;
 878              		.loc 1 367 0 is_stmt 1 discriminator 4
 879 0038 B0FBF2F0 		udiv	r0, r0, r2
 880              	.LVL135:
 366:..\API/utility.c ****         digits[i++] = (n < 10 ? (uint8) n + '0' : (uint8) n - 10 + 'a');
 881              		.loc 1 366 0 discriminator 4
 882 003c 2E46     		mov	r6, r5
 368:..\API/utility.c ****     } while (value != 0);
 883              		.loc 1 368 0 discriminator 4
 884 003e 0028     		cmp	r0, #0
 885 0040 E7D1     		bne	.L69
 886 0042 03E0     		b	.L73
 887              	.LVL136:
 888              	.L74:
 369:..\API/utility.c ****     //
 370:..\API/utility.c ****     while (length > i)
 371:..\API/utility.c ****     {
 372:..\API/utility.c ****         *dst++ = '0';
 889              		.loc 1 372 0
 890 0044 3022     		movs	r2, #48
 891 0046 0A70     		strb	r2, [r1]
 373:..\API/utility.c ****         length--;
 892              		.loc 1 373 0
 893 0048 013B     		subs	r3, r3, #1
 894              	.LVL137:
 372:..\API/utility.c ****         length--;
 895              		.loc 1 372 0
 896 004a 0131     		adds	r1, r1, #1
 897              	.LVL138:
 898              	.L73:
 370:..\API/utility.c ****     {
 899              		.loc 1 370 0
 900 004c AB42     		cmp	r3, r5
 901 004e F9D8     		bhi	.L74
 902 0050 06E0     		b	.L75
 903              	.LVL139:
 904              	.L76:
 374:..\API/utility.c ****     }
 375:..\API/utility.c ****     while (i > 0)
 376:..\API/utility.c ****     {
 377:..\API/utility.c ****         *dst++ = digits[--i];
 905              		.loc 1 377 0
 906 0052 013D     		subs	r5, r5, #1
 907              	.LVL140:
 908 0054 08AB     		add	r3, sp, #32
 909 0056 2B44     		add	r3, r3, r5
 910 0058 13F8203C 		ldrb	r3, [r3, #-32]	@ zero_extendqisi2
 911 005c 0B70     		strb	r3, [r1]
 912 005e 0131     		adds	r1, r1, #1
ARM GAS  C:\Users\koseki\AppData\Local\Temp\ccOe5Jk8.s 			page 24


 913              	.LVL141:
 914              	.L75:
 375:..\API/utility.c ****     {
 915              		.loc 1 375 0
 916 0060 002D     		cmp	r5, #0
 917 0062 F6D1     		bne	.L76
 918              	.LVL142:
 919              	.L70:
 378:..\API/utility.c ****     }
 379:..\API/utility.c **** 
 380:..\API/utility.c ****   //*dst++ = '\0';
 381:..\API/utility.c ****   //return string;
 382:..\API/utility.c ****     return dst;
 383:..\API/utility.c **** }
 920              		.loc 1 383 0
 921 0064 0846     		mov	r0, r1
 922              	.LVL143:
 923 0066 08B0     		add	sp, sp, #32
 924              		.cfi_def_cfa_offset 16
 925              		@ sp needed
 926 0068 70BD     		pop	{r4, r5, r6, pc}
 927              		.cfi_endproc
 928              	.LFE70:
 929              		.size	Append_String_UI32, .-Append_String_UI32
 930 006a 00BF     		.section	.text.Append_String_SI32,"ax",%progbits
 931              		.align	2
 932              		.global	Append_String_SI32
 933              		.thumb
 934              		.thumb_func
 935              		.type	Append_String_SI32, %function
 936              	Append_String_SI32:
 937              	.LFB71:
 384:..\API/utility.c **** 
 385:..\API/utility.c **** //======================================================
 386:..\API/utility.c **** // Append String SI32
 387:..\API/utility.c **** //======================================================
 388:..\API/utility.c **** uint8* Append_String_SI32(int32 value, uint8 *string, uint32 radix, uint32 length)
 389:..\API/utility.c **** {
 938              		.loc 1 389 0
 939              		.cfi_startproc
 940              		@ args = 0, pretend = 0, frame = 0
 941              		@ frame_needed = 0, uses_anonymous_args = 0
 942              	.LVL144:
 943 0000 38B5     		push	{r3, r4, r5, lr}
 944              		.cfi_def_cfa_offset 16
 945              		.cfi_offset 3, -16
 946              		.cfi_offset 4, -12
 947              		.cfi_offset 5, -8
 948              		.cfi_offset 14, -4
 949              	.LVL145:
 390:..\API/utility.c ****     uint8 *dst;
 391:..\API/utility.c **** 
 392:..\API/utility.c ****     dst = string;
 393:..\API/utility.c **** 
 394:..\API/utility.c ****     if (value == 0)
 950              		.loc 1 394 0
 951 0002 0446     		mov	r4, r0
ARM GAS  C:\Users\koseki\AppData\Local\Temp\ccOe5Jk8.s 			page 25


 952 0004 18B9     		cbnz	r0, .L80
 395:..\API/utility.c ****     {
 396:..\API/utility.c ****         *dst++ = ' ';
 953              		.loc 1 396 0
 954 0006 4D1C     		adds	r5, r1, #1
 955              	.LVL146:
 956 0008 2020     		movs	r0, #32
 957              	.LVL147:
 958 000a 0870     		strb	r0, [r1]
 959 000c 09E0     		b	.L81
 960              	.LVL148:
 961              	.L80:
 397:..\API/utility.c ****     }
 398:..\API/utility.c ****     else if (value > 0)
 962              		.loc 1 398 0
 963 000e 0028     		cmp	r0, #0
 964 0010 03DD     		ble	.L82
 399:..\API/utility.c ****     {
 400:..\API/utility.c ****         *dst++ = '+';
 965              		.loc 1 400 0
 966 0012 4D1C     		adds	r5, r1, #1
 967              	.LVL149:
 968 0014 2B20     		movs	r0, #43
 969              	.LVL150:
 970 0016 0870     		strb	r0, [r1]
 971 0018 03E0     		b	.L81
 972              	.LVL151:
 973              	.L82:
 401:..\API/utility.c ****     }
 402:..\API/utility.c ****     else
 403:..\API/utility.c ****     {
 404:..\API/utility.c ****         *dst++ = '-';
 974              		.loc 1 404 0
 975 001a 4D1C     		adds	r5, r1, #1
 976              	.LVL152:
 977 001c 2D20     		movs	r0, #45
 978              	.LVL153:
 979 001e 0870     		strb	r0, [r1]
 405:..\API/utility.c ****         value = 0 - value;
 980              		.loc 1 405 0
 981 0020 6442     		negs	r4, r4
 982              	.LVL154:
 983              	.L81:
 406:..\API/utility.c ****     }
 407:..\API/utility.c ****     dst = Append_String_UI32((uint32) value, dst, radix, length);
 984              		.loc 1 407 0
 985 0022 2046     		mov	r0, r4
 986 0024 2946     		mov	r1, r5
 987              	.LVL155:
 988 0026 FFF7FEFF 		bl	Append_String_UI32
 989              	.LVL156:
 408:..\API/utility.c ****   //return string;
 409:..\API/utility.c ****     return dst;
 410:..\API/utility.c **** }
 990              		.loc 1 410 0
 991 002a 38BD     		pop	{r3, r4, r5, pc}
 992              		.cfi_endproc
ARM GAS  C:\Users\koseki\AppData\Local\Temp\ccOe5Jk8.s 			page 26


 993              	.LFE71:
 994              		.size	Append_String_SI32, .-Append_String_SI32
 995              		.section	.text.Append_String_Fixed,"ax",%progbits
 996              		.align	2
 997              		.global	Append_String_Fixed
 998              		.thumb
 999              		.thumb_func
 1000              		.type	Append_String_Fixed, %function
 1001              	Append_String_Fixed:
 1002              	.LFB72:
 411:..\API/utility.c **** 
 412:..\API/utility.c **** //======================================================
 413:..\API/utility.c **** // Append String Fixed
 414:..\API/utility.c **** //======================================================
 415:..\API/utility.c **** // [example]
 416:..\API/utility.c **** // 0111.1100000000000000
 417:..\API/utility.c **** //      c000 = 49152 --> 49152/65536=0.75
 418:..\API/utility.c **** //      49125*1000/65536=749, (749+5)/10=75
 419:..\API/utility.c **** // 0111.1101000000000000
 420:..\API/utility.c **** //      d000 = 53248 --> 53248/65536=0.8125
 421:..\API/utility.c **** //      53248*100000/65536=81250, (81250+5)/10=8125
 422:..\API/utility.c **** uint8* Append_String_Fixed(fix32 fvalue, uint8 *string, uint32 format)
 423:..\API/utility.c **** {
 1003              		.loc 1 423 0
 1004              		.cfi_startproc
 1005              		@ args = 0, pretend = 0, frame = 0
 1006              		@ frame_needed = 0, uses_anonymous_args = 0
 1007              	.LVL157:
 1008 0000 70B5     		push	{r4, r5, r6, lr}
 1009              		.cfi_def_cfa_offset 16
 1010              		.cfi_offset 4, -16
 1011              		.cfi_offset 5, -12
 1012              		.cfi_offset 6, -8
 1013              		.cfi_offset 14, -4
 1014 0002 1546     		mov	r5, r2
 1015              	.LVL158:
 424:..\API/utility.c ****     uint32 ivalue_int;
 425:..\API/utility.c ****     uint32 ivalue_dec;
 426:..\API/utility.c ****     uint8  *dst;
 427:..\API/utility.c **** 
 428:..\API/utility.c ****     dst = string;
 429:..\API/utility.c **** 
 430:..\API/utility.c ****     if (fvalue == 0)
 1016              		.loc 1 430 0
 1017 0004 0446     		mov	r4, r0
 1018 0006 18B9     		cbnz	r0, .L85
 431:..\API/utility.c ****     {
 432:..\API/utility.c ****         *dst++ = ' ';
 1019              		.loc 1 432 0
 1020 0008 4E1C     		adds	r6, r1, #1
 1021              	.LVL159:
 1022 000a 2023     		movs	r3, #32
 1023 000c 0B70     		strb	r3, [r1]
 1024 000e 0BE0     		b	.L86
 1025              	.LVL160:
 1026              	.L85:
 433:..\API/utility.c ****     }
ARM GAS  C:\Users\koseki\AppData\Local\Temp\ccOe5Jk8.s 			page 27


 434:..\API/utility.c ****     else if (fvalue > 0)
 1027              		.loc 1 434 0
 1028 0010 0028     		cmp	r0, #0
 1029 0012 03DD     		ble	.L87
 435:..\API/utility.c ****     {
 436:..\API/utility.c ****         *dst++ = '+';
 1030              		.loc 1 436 0
 1031 0014 4E1C     		adds	r6, r1, #1
 1032              	.LVL161:
 1033 0016 2B23     		movs	r3, #43
 1034 0018 0B70     		strb	r3, [r1]
 1035 001a 05E0     		b	.L86
 1036              	.LVL162:
 1037              	.L87:
 437:..\API/utility.c ****     }
 438:..\API/utility.c ****     else
 439:..\API/utility.c ****     {
 440:..\API/utility.c ****         *dst++ = '-';
 1038              		.loc 1 440 0
 1039 001c 4E1C     		adds	r6, r1, #1
 1040              	.LVL163:
 1041 001e 2D23     		movs	r3, #45
 1042 0020 0B70     		strb	r3, [r1]
 441:..\API/utility.c ****         fvalue = FIX_Abs(fvalue);
 1043              		.loc 1 441 0
 1044 0022 FFF7FEFF 		bl	FIX_Abs
 1045              	.LVL164:
 1046 0026 0446     		mov	r4, r0
 1047              	.LVL165:
 1048              	.L86:
 442:..\API/utility.c ****     }
 443:..\API/utility.c ****     //
 444:..\API/utility.c ****     if (format == 0)
 1049              		.loc 1 444 0
 1050 0028 0DB9     		cbnz	r5, .L88
 445:..\API/utility.c ****     {
 446:..\API/utility.c ****         fvalue = fvalue + (1 << (FIXQ - 1));
 1051              		.loc 1 446 0
 1052 002a 04F50044 		add	r4, r4, #32768
 1053              	.LVL166:
 1054              	.L88:
 447:..\API/utility.c ****     }
 448:..\API/utility.c ****     ivalue_int = fvalue >> FIXQ;
 449:..\API/utility.c ****     dst = Append_String_UI32(ivalue_int, dst, 10, 0);
 1055              		.loc 1 449 0
 1056 002e 2014     		asrs	r0, r4, #16
 1057              	.LVL167:
 1058 0030 3146     		mov	r1, r6
 1059 0032 0A22     		movs	r2, #10
 1060 0034 0023     		movs	r3, #0
 1061 0036 FFF7FEFF 		bl	Append_String_UI32
 1062              	.LVL168:
 1063 003a 0146     		mov	r1, r0
 1064              	.LVL169:
 450:..\API/utility.c ****     //
 451:..\API/utility.c ****     if (format > 0)
 1065              		.loc 1 451 0
ARM GAS  C:\Users\koseki\AppData\Local\Temp\ccOe5Jk8.s 			page 28


 1066 003c 9DB1     		cbz	r5, .L89
 1067              	.LVL170:
 452:..\API/utility.c ****     {
 453:..\API/utility.c ****         *dst++ = '.';
 1068              		.loc 1 453 0
 1069 003e 2E23     		movs	r3, #46
 1070 0040 0370     		strb	r3, [r0]
 454:..\API/utility.c ****         ivalue_dec = fvalue & 0x0ffff;
 1071              		.loc 1 454 0
 1072 0042 A4B2     		uxth	r4, r4
 1073              	.LVL171:
 455:..\API/utility.c ****         ivalue_dec = ivalue_dec * (10 ^ (format + 1)) / (1 << FIXQ);
 1074              		.loc 1 455 0
 1075 0044 681C     		adds	r0, r5, #1
 1076              	.LVL172:
 1077 0046 80F00A00 		eor	r0, r0, #10
 1078 004a 04FB00F0 		mul	r0, r4, r0
 1079 004e 000C     		lsrs	r0, r0, #16
 1080              	.LVL173:
 456:..\API/utility.c ****         ivalue_dec = (ivalue_dec + 5) / 10; // rounding
 1081              		.loc 1 456 0
 1082 0050 441D     		adds	r4, r0, #5
 1083 0052 0648     		ldr	r0, .L91
 1084              	.LVL174:
 1085 0054 A0FB0430 		umull	r3, r0, r0, r4
 1086              	.LVL175:
 457:..\API/utility.c ****         dst = Append_String_UI32(ivalue_dec, dst, 10, 0);
 1087              		.loc 1 457 0
 1088 0058 C008     		lsrs	r0, r0, #3
 1089              	.LVL176:
 1090 005a 0131     		adds	r1, r1, #1
 1091              	.LVL177:
 1092 005c 0A22     		movs	r2, #10
 1093 005e 0023     		movs	r3, #0
 1094 0060 FFF7FEFF 		bl	Append_String_UI32
 1095              	.LVL178:
 1096 0064 0146     		mov	r1, r0
 1097              	.LVL179:
 1098              	.L89:
 458:..\API/utility.c ****     }
 459:..\API/utility.c ****     return dst;
 460:..\API/utility.c **** }
 1099              		.loc 1 460 0
 1100 0066 0846     		mov	r0, r1
 1101 0068 70BD     		pop	{r4, r5, r6, pc}
 1102              	.LVL180:
 1103              	.L92:
 1104 006a 00BF     		.align	2
 1105              	.L91:
 1106 006c CDCCCCCC 		.word	-858993459
 1107              		.cfi_endproc
 1108              	.LFE72:
 1109              		.size	Append_String_Fixed, .-Append_String_Fixed
 1110              		.section	.text.Append_String_UI08_Ndigit,"ax",%progbits
 1111              		.align	2
 1112              		.global	Append_String_UI08_Ndigit
 1113              		.thumb
ARM GAS  C:\Users\koseki\AppData\Local\Temp\ccOe5Jk8.s 			page 29


 1114              		.thumb_func
 1115              		.type	Append_String_UI08_Ndigit, %function
 1116              	Append_String_UI08_Ndigit:
 1117              	.LFB73:
 461:..\API/utility.c **** 
 462:..\API/utility.c **** //======================================================
 463:..\API/utility.c **** // Append String UI32 in N-digit
 464:..\API/utility.c **** //======================================================
 465:..\API/utility.c **** uint8* Append_String_UI08_Ndigit(uint32 value, uint8 *string, uint32 digit)
 466:..\API/utility.c **** {
 1118              		.loc 1 466 0
 1119              		.cfi_startproc
 1120              		@ args = 0, pretend = 0, frame = 0
 1121              		@ frame_needed = 0, uses_anonymous_args = 0
 1122              		@ link register save eliminated.
 1123              	.LVL181:
 1124 0000 70B4     		push	{r4, r5, r6}
 1125              		.cfi_def_cfa_offset 12
 1126              		.cfi_offset 4, -12
 1127              		.cfi_offset 5, -8
 1128              		.cfi_offset 6, -4
 1129              	.LVL182:
 467:..\API/utility.c ****     uint32 i;
 468:..\API/utility.c ****     uint8  *dst;
 469:..\API/utility.c ****     uint32 exp;
 470:..\API/utility.c **** 
 471:..\API/utility.c ****     exp = 1;
 1130              		.loc 1 471 0
 1131 0002 0123     		movs	r3, #1
 472:..\API/utility.c ****     for (i = 0; i < digit; i++) // digit=3
 1132              		.loc 1 472 0
 1133 0004 0024     		movs	r4, #0
 1134 0006 03E0     		b	.L94
 1135              	.LVL183:
 1136              	.L95:
 473:..\API/utility.c ****     {
 474:..\API/utility.c ****         exp = exp * 10;
 1137              		.loc 1 474 0 discriminator 3
 1138 0008 03EB8303 		add	r3, r3, r3, lsl #2
 1139              	.LVL184:
 1140 000c 5B00     		lsls	r3, r3, #1
 1141              	.LVL185:
 472:..\API/utility.c ****     for (i = 0; i < digit; i++) // digit=3
 1142              		.loc 1 472 0 discriminator 3
 1143 000e 0134     		adds	r4, r4, #1
 1144              	.LVL186:
 1145              	.L94:
 472:..\API/utility.c ****     for (i = 0; i < digit; i++) // digit=3
 1146              		.loc 1 472 0 is_stmt 0 discriminator 1
 1147 0010 9442     		cmp	r4, r2
 1148 0012 F9D3     		bcc	.L95
 475:..\API/utility.c ****     }
 476:..\API/utility.c ****     value = value % exp;        // exp = 1000
 1149              		.loc 1 476 0 is_stmt 1
 1150 0014 B0FBF3F4 		udiv	r4, r0, r3
 1151              	.LVL187:
 1152 0018 03FB1400 		mls	r0, r3, r4, r0
ARM GAS  C:\Users\koseki\AppData\Local\Temp\ccOe5Jk8.s 			page 30


 1153              	.LVL188:
 477:..\API/utility.c ****     dst = string;
 478:..\API/utility.c ****     //
 479:..\API/utility.c ****     for (i = 0; i < digit; i++) // digit=3
 1154              		.loc 1 479 0
 1155 001c 0025     		movs	r5, #0
 1156 001e 0DE0     		b	.L96
 1157              	.LVL189:
 1158              	.L97:
 480:..\API/utility.c ****     {
 481:..\API/utility.c ****         *dst++ = '0' + (value % exp) / (exp / 10);
 1159              		.loc 1 481 0 discriminator 3
 1160 0020 B0FBF3F4 		udiv	r4, r0, r3
 1161 0024 03FB1404 		mls	r4, r3, r4, r0
 1162 0028 074E     		ldr	r6, .L99
 1163 002a A6FB0363 		umull	r6, r3, r6, r3
 1164              	.LVL190:
 1165 002e DB08     		lsrs	r3, r3, #3
 1166 0030 B4FBF3F4 		udiv	r4, r4, r3
 1167 0034 3034     		adds	r4, r4, #48
 1168 0036 0C70     		strb	r4, [r1]
 1169              	.LVL191:
 479:..\API/utility.c ****     {
 1170              		.loc 1 479 0 discriminator 3
 1171 0038 0135     		adds	r5, r5, #1
 1172              	.LVL192:
 1173              		.loc 1 481 0 discriminator 3
 1174 003a 0131     		adds	r1, r1, #1
 1175              	.LVL193:
 1176              	.L96:
 479:..\API/utility.c ****     {
 1177              		.loc 1 479 0 discriminator 1
 1178 003c 9542     		cmp	r5, r2
 1179 003e EFD3     		bcc	.L97
 482:..\API/utility.c ****         exp = exp / 10;
 483:..\API/utility.c ****     }
 484:..\API/utility.c ****   //*dst++ = '\0';
 485:..\API/utility.c ****   //return string;
 486:..\API/utility.c ****     return dst;
 487:..\API/utility.c **** }
 1180              		.loc 1 487 0
 1181 0040 0846     		mov	r0, r1
 1182              	.LVL194:
 1183 0042 70BC     		pop	{r4, r5, r6}
 1184              		.cfi_restore 6
 1185              		.cfi_restore 5
 1186              		.cfi_restore 4
 1187              		.cfi_def_cfa_offset 0
 1188              	.LVL195:
 1189 0044 7047     		bx	lr
 1190              	.L100:
 1191 0046 00BF     		.align	2
 1192              	.L99:
 1193 0048 CDCCCCCC 		.word	-858993459
 1194              		.cfi_endproc
 1195              	.LFE73:
 1196              		.size	Append_String_UI08_Ndigit, .-Append_String_UI08_Ndigit
ARM GAS  C:\Users\koseki\AppData\Local\Temp\ccOe5Jk8.s 			page 31


 1197              		.section	.text.Append_String_SI08_Ndigit,"ax",%progbits
 1198              		.align	2
 1199              		.global	Append_String_SI08_Ndigit
 1200              		.thumb
 1201              		.thumb_func
 1202              		.type	Append_String_SI08_Ndigit, %function
 1203              	Append_String_SI08_Ndigit:
 1204              	.LFB74:
 488:..\API/utility.c **** 
 489:..\API/utility.c **** //======================================================
 490:..\API/utility.c **** // Append String SI32 in N-digit
 491:..\API/utility.c **** //======================================================
 492:..\API/utility.c **** uint8* Append_String_SI08_Ndigit(uint32 value, uint8 *string, uint32 digit)
 493:..\API/utility.c **** {
 1205              		.loc 1 493 0
 1206              		.cfi_startproc
 1207              		@ args = 0, pretend = 0, frame = 0
 1208              		@ frame_needed = 0, uses_anonymous_args = 0
 1209              	.LVL196:
 1210 0000 08B5     		push	{r3, lr}
 1211              		.cfi_def_cfa_offset 8
 1212              		.cfi_offset 3, -8
 1213              		.cfi_offset 14, -4
 1214              	.LVL197:
 494:..\API/utility.c ****     uint8  *dst;
 495:..\API/utility.c ****     uint32 abs;
 496:..\API/utility.c **** 
 497:..\API/utility.c ****     dst = string;
 498:..\API/utility.c ****     if (value >= 0)
 499:..\API/utility.c ****     {
 500:..\API/utility.c ****         *dst++ = '+';
 1215              		.loc 1 500 0
 1216 0002 2B23     		movs	r3, #43
 1217 0004 0B70     		strb	r3, [r1]
 1218              	.LVL198:
 501:..\API/utility.c ****         abs = (uint32) ( value);
 502:..\API/utility.c ****     }
 503:..\API/utility.c ****     else
 504:..\API/utility.c ****     {
 505:..\API/utility.c ****         *dst++ = '-';
 506:..\API/utility.c ****         abs = (uint32) (-value);
 507:..\API/utility.c ****     }
 508:..\API/utility.c ****     dst = Append_String_UI08_Ndigit(abs, dst, digit);
 1219              		.loc 1 508 0
 1220 0006 0131     		adds	r1, r1, #1
 1221              	.LVL199:
 1222 0008 FFF7FEFF 		bl	Append_String_UI08_Ndigit
 1223              	.LVL200:
 509:..\API/utility.c ****   //return string;
 510:..\API/utility.c ****     return dst;
 511:..\API/utility.c **** }
 1224              		.loc 1 511 0
 1225 000c 08BD     		pop	{r3, pc}
 1226              		.cfi_endproc
 1227              	.LFE74:
 1228              		.size	Append_String_SI08_Ndigit, .-Append_String_SI08_Ndigit
 1229 000e 00BF     		.section	.text.Append_String,"ax",%progbits
ARM GAS  C:\Users\koseki\AppData\Local\Temp\ccOe5Jk8.s 			page 32


 1230              		.align	2
 1231              		.global	Append_String
 1232              		.thumb
 1233              		.thumb_func
 1234              		.type	Append_String, %function
 1235              	Append_String:
 1236              	.LFB75:
 512:..\API/utility.c **** 
 513:..\API/utility.c **** //======================================================
 514:..\API/utility.c **** // Append String
 515:..\API/utility.c **** //======================================================
 516:..\API/utility.c **** uint8* Append_String(uint8 *pDst, uint8 *pSrc)
 517:..\API/utility.c **** {
 1237              		.loc 1 517 0
 1238              		.cfi_startproc
 1239              		@ args = 0, pretend = 0, frame = 0
 1240              		@ frame_needed = 0, uses_anonymous_args = 0
 1241              		@ link register save eliminated.
 1242              	.LVL201:
 518:..\API/utility.c ****     uint8 ch;
 519:..\API/utility.c **** 
 520:..\API/utility.c ****     while ((ch = *pSrc++) != '\0')
 1243              		.loc 1 520 0
 1244 0000 02E0     		b	.L104
 1245              	.LVL202:
 1246              	.L105:
 521:..\API/utility.c ****     {
 522:..\API/utility.c ****         *pDst++ = ch;
 1247              		.loc 1 522 0
 1248 0002 0370     		strb	r3, [r0]
 520:..\API/utility.c ****     {
 1249              		.loc 1 520 0
 1250 0004 1146     		mov	r1, r2
 1251              		.loc 1 522 0
 1252 0006 0130     		adds	r0, r0, #1
 1253              	.LVL203:
 1254              	.L104:
 520:..\API/utility.c ****     {
 1255              		.loc 1 520 0
 1256 0008 4A1C     		adds	r2, r1, #1
 1257              	.LVL204:
 1258 000a 0B78     		ldrb	r3, [r1]	@ zero_extendqisi2
 1259              	.LVL205:
 1260 000c 002B     		cmp	r3, #0
 1261 000e F8D1     		bne	.L105
 523:..\API/utility.c ****     }
 524:..\API/utility.c ****     return pDst;
 525:..\API/utility.c **** }
 1262              		.loc 1 525 0
 1263 0010 7047     		bx	lr
 1264              		.cfi_endproc
 1265              	.LFE75:
 1266              		.size	Append_String, .-Append_String
 1267 0012 00BF     		.text
 1268              	.Letext0:
 1269              		.file 2 "c:\\program files (x86)\\cypress\\psoc creator\\3.3\\psoc creator\\import\\gnu\\arm\\4.9.
 1270              		.file 3 "c:\\program files (x86)\\cypress\\psoc creator\\3.3\\psoc creator\\import\\gnu\\arm\\4.9.
ARM GAS  C:\Users\koseki\AppData\Local\Temp\ccOe5Jk8.s 			page 33


 1271              		.file 4 "c:\\program files (x86)\\cypress\\psoc creator\\3.3\\psoc creator\\import\\gnu\\arm\\4.9.
 1272              		.file 5 "Generated_Source\\PSoC5/cytypes.h"
 1273              		.file 6 "..\\API\\fixedpoint.h"
 1274              		.file 7 "<built-in>"
 1275              		.file 8 "Generated_Source\\PSoC5/core_cm3.h"
 1276              		.file 9 "c:\\program files (x86)\\cypress\\psoc creator\\3.3\\psoc creator\\import\\gnu\\arm\\4.9.